Component: ARM Compiler 5.06 update 6 (build 750) Tool: armlink [4d35ed]

==============================================================================

Section Cross References

    startup_stm32f072xb.o(STACK) refers (Special) to heapauxi.o(.text) for __use_two_region_memory
    startup_stm32f072xb.o(HEAP) refers (Special) to heapauxi.o(.text) for __use_two_region_memory
    startup_stm32f072xb.o(RESET) refers (Special) to heapauxi.o(.text) for __use_two_region_memory
    startup_stm32f072xb.o(RESET) refers to startup_stm32f072xb.o(STACK) for __initial_sp
    startup_stm32f072xb.o(RESET) refers to startup_stm32f072xb.o(.text) for Reset_Handler
    startup_stm32f072xb.o(RESET) refers to stm32f0xx_it.o(i.NMI_Handler) for NMI_Handler
    startup_stm32f072xb.o(RESET) refers to stm32f0xx_it.o(i.HardFault_Handler) for HardFault_Handler
    startup_stm32f072xb.o(RESET) refers to stm32f0xx_it.o(i.SVC_Handler) for SVC_Handler
    startup_stm32f072xb.o(RESET) refers to stm32f0xx_it.o(i.PendSV_Handler) for PendSV_Handler
    startup_stm32f072xb.o(RESET) refers to stm32f0xx_it.o(i.SysTick_Handler) for SysTick_Handler
    startup_stm32f072xb.o(RESET) refers to stm32f0xx_it.o(i.EXTI2_3_IRQHandler) for EXTI2_3_IRQHandler
    startup_stm32f072xb.o(RESET) refers to stm32f0xx_it.o(i.DMA1_Channel1_IRQHandler) for DMA1_Channel1_IRQHandler
    startup_stm32f072xb.o(RESET) refers to stm32f0xx_it.o(i.TIM1_BRK_UP_TRG_COM_IRQHandler) for TIM1_BRK_UP_TRG_COM_IRQHandler
    startup_stm32f072xb.o(RESET) refers to stm32f0xx_it.o(i.TIM16_IRQHandler) for TIM16_IRQHandler
    startup_stm32f072xb.o(RESET) refers to stm32f0xx_it.o(i.USART1_IRQHandler) for USART1_IRQHandler
    startup_stm32f072xb.o(.text) refers (Special) to heapauxi.o(.text) for __use_two_region_memory
    startup_stm32f072xb.o(.text) refers to system_stm32f0xx.o(i.SystemInit) for SystemInit
    startup_stm32f072xb.o(.text) refers to __main.o(!!!main) for __main
    startup_stm32f072xb.o(.text) refers to startup_stm32f072xb.o(HEAP) for Heap_Mem
    startup_stm32f072xb.o(.text) refers to startup_stm32f072xb.o(STACK) for Stack_Mem
    main.o(i.Error_Handler) refers to stm32f0xx_hal_gpio.o(i.HAL_GPIO_WritePin) for HAL_GPIO_WritePin
    main.o(i.HAL_ADC_ConvCpltCallback) refers to main.o(.bss) for .bss
    main.o(i.HAL_TIM_PeriodElapsedCallback) refers to stm32f0xx_hal.o(i.HAL_IncTick) for HAL_IncTick
    main.o(i._Z14remapMemToSRAMv) refers to main.o(.RAMVectorTable) for .RAMVectorTable
    main.o(i._Z18SystemClock_Configv) refers to rt_memclr.o(.text) for __aeabi_memclr4
    main.o(i._Z18SystemClock_Configv) refers to stm32f0xx_hal_pwr.o(i.HAL_PWR_EnableBkUpAccess) for HAL_PWR_EnableBkUpAccess
    main.o(i._Z18SystemClock_Configv) refers to stm32f0xx_hal_rcc.o(i.HAL_RCC_OscConfig) for HAL_RCC_OscConfig
    main.o(i._Z18SystemClock_Configv) refers to main.o(i.Error_Handler) for Error_Handler
    main.o(i._Z18SystemClock_Configv) refers to stm32f0xx_hal_rcc.o(i.HAL_RCC_ClockConfig) for HAL_RCC_ClockConfig
    main.o(i._Z18SystemClock_Configv) refers to stm32f0xx_hal_rcc_ex.o(i.HAL_RCCEx_PeriphCLKConfig) for HAL_RCCEx_PeriphCLKConfig
    main.o(i._Z18SystemClock_Configv) refers to stm32f0xx_hal_rcc.o(i.HAL_RCC_MCOConfig) for HAL_RCC_MCOConfig
    main.o(i.__sti___8_main_cpp_debug) refers to debug_facilities.o(i._ZN11DebugHelperC1Ev) for DebugHelper::DebugHelper()
    main.o(i.__sti___8_main_cpp_debug) refers to aeabi_atexit.o(.text) for __aeabi_atexit
    main.o(i.__sti___8_main_cpp_debug) refers to cs_register.o(i._ZN6CS_regC1Ev) for CS_reg::CS_reg()
    main.o(i.__sti___8_main_cpp_debug) refers to status_reg.o(i._ZN10STATUS_regC1Ev) for STATUS_reg::STATUS_reg()
    main.o(i.__sti___8_main_cpp_debug) refers to mem.o(i._ZN6MemoryC1Eh) for Memory::Memory(unsigned char)
    main.o(i.__sti___8_main_cpp_debug) refers to mem_controller.o(i._ZN8Mem_ctrlC1EP6MemoryS1_S1_P6CS_reg) for Mem_ctrl::Mem_ctrl(Memory*, Memory*, Memory*, CS_reg*)
    main.o(i.__sti___8_main_cpp_debug) refers to peripherial_controller.o(i._ZN18PeripherialDevicesC1EP6CS_regP10STATUS_reg) for PeripherialDevices::PeripherialDevices(CS_reg*, STATUS_reg*)
    main.o(i.__sti___8_main_cpp_debug) refers to state.o(i._ZN5StateC1Ev) for State::State()
    main.o(i.__sti___8_main_cpp_debug) refers to screen_controller.o(i._ZN11Screen_ctrlC1Ev) for Screen_ctrl::Screen_ctrl()
    main.o(i.__sti___8_main_cpp_debug) refers to adc_controller.o(i._ZN14adc_controllerC1EP6CS_reg) for adc_controller::adc_controller(CS_reg*)
    main.o(i.__sti___8_main_cpp_debug) refers to main_controller.o(i._ZN15main_controllerC1EP11DebugHelperP8Mem_ctrlP18PeripherialDevicesP5StateP11Screen_ctrlP14adc_controller) for main_controller::main_controller(DebugHelper*, Mem_ctrl*, PeripherialDevices*, State*, Screen_ctrl*, adc_controller*)
    main.o(i.__sti___8_main_cpp_debug) refers to monitor.o(i._ZN7monitorC1EP15main_controller) for monitor::monitor(main_controller*)
    main.o(i.__sti___8_main_cpp_debug) refers to main.o(.data) for .data
    main.o(i.__sti___8_main_cpp_debug) refers to debug_facilities.o(i._ZN11DebugHelperD1Ev) for DebugHelper::~DebugHelper()
    main.o(i.__sti___8_main_cpp_debug) refers to main.o(.bss) for .bss
    main.o(i.__sti___8_main_cpp_debug) refers to cs_register.o(i._ZN6CS_regD1Ev) for CS_reg::~CS_reg()
    main.o(i.__sti___8_main_cpp_debug) refers to status_reg.o(i._ZN10STATUS_regD1Ev) for STATUS_reg::~STATUS_reg()
    main.o(i.__sti___8_main_cpp_debug) refers to mem.o(i._ZN6MemoryD1Ev) for Memory::~Memory()
    main.o(i.__sti___8_main_cpp_debug) refers to mem_controller.o(i._ZN8Mem_ctrlD1Ev) for Mem_ctrl::~Mem_ctrl()
    main.o(i.__sti___8_main_cpp_debug) refers to peripherial_controller.o(i._ZN18PeripherialDevicesD1Ev) for PeripherialDevices::~PeripherialDevices()
    main.o(i.__sti___8_main_cpp_debug) refers to state.o(i._ZN5StateD1Ev) for State::~State()
    main.o(i.__sti___8_main_cpp_debug) refers to screen_controller.o(i._ZN11Screen_ctrlD1Ev) for Screen_ctrl::~Screen_ctrl()
    main.o(i.__sti___8_main_cpp_debug) refers to adc_controller.o(i._ZN14adc_controllerD1Ev) for adc_controller::~adc_controller()
    main.o(i.__sti___8_main_cpp_debug) refers to main_controller.o(i._ZN15main_controllerD1Ev) for main_controller::~main_controller()
    main.o(i.__sti___8_main_cpp_debug) refers to monitor.o(i._ZN7monitorD1Ev) for monitor::~monitor()
    main.o(i.main) refers to _printf_percent.o(.ARM.Collect$$_printf_percent$$00000000) for _printf_percent
    main.o(i.main) refers to _printf_d.o(.ARM.Collect$$_printf_percent$$00000009) for _printf_d
    main.o(i.main) refers to _printf_dec.o(.text) for _printf_int_dec
    main.o(i.main) refers to main.o(i._Z14remapMemToSRAMv) for remapMemToSRAM()
    main.o(i.main) refers to stm32f0xx_hal.o(i.HAL_Init) for HAL_Init
    main.o(i.main) refers to main.o(i._Z18SystemClock_Configv) for SystemClock_Config()
    main.o(i.main) refers to gpio.o(i.MX_GPIO_Init) for MX_GPIO_Init
    main.o(i.main) refers to dma.o(i.MX_DMA_Init) for MX_DMA_Init
    main.o(i.main) refers to adc.o(i.MX_ADC_Init) for MX_ADC_Init
    main.o(i.main) refers to rtc.o(i.MX_RTC_Init) for MX_RTC_Init
    main.o(i.main) refers to spi.o(i.MX_SPI1_Init) for MX_SPI1_Init
    main.o(i.main) refers to usart.o(i.MX_USART1_UART_Init) for MX_USART1_UART_Init
    main.o(i.main) refers to crc.o(i.MX_CRC_Init) for MX_CRC_Init
    main.o(i.main) refers to usart.o(i.MX_USART2_UART_Init) for MX_USART2_UART_Init
    main.o(i.main) refers to stm32f0xx_hal_adc.o(i.HAL_ADC_Start_DMA) for HAL_ADC_Start_DMA
    main.o(i.main) refers to tim.o(i.MX_TIM16_Init) for MX_TIM16_Init
    main.o(i.main) refers to tim.o(i.MX_TIM2_Init) for MX_TIM2_Init
    main.o(i.main) refers to tim.o(i.MX_TIM3_Init) for MX_TIM3_Init
    main.o(i.main) refers to main_controller.o(i._ZN15main_controller17init_before_whileEv) for main_controller::init_before_while()
    main.o(i.main) refers to stm32f0xx_hal.o(i.HAL_GetTick) for HAL_GetTick
    main.o(i.main) refers to stm32f0xx_hal_tim.o(i.HAL_TIM_Base_Start_IT) for HAL_TIM_Base_Start_IT
    main.o(i.main) refers to stm32f0xx_hal_tim.o(i.HAL_TIM_Base_Start) for HAL_TIM_Base_Start
    main.o(i.main) refers to debug_facilities.o(i._ZN11DebugHelper12fast_beeps_3Ev) for DebugHelper::fast_beeps_3()
    main.o(i.main) refers to peripherial_controller.o(i._ZN18PeripherialDevices10stop_motorEv) for PeripherialDevices::stop_motor()
    main.o(i.main) refers to peripherial_controller.o(i._ZN18PeripherialDevices4readEv) for PeripherialDevices::read()
    main.o(i.main) refers to screen_controller.o(i._ZN11Screen_ctrl20update_pulse_counterEj) for Screen_ctrl::update_pulse_counter(unsigned)
    main.o(i.main) refers to noretval__2sprintf.o(.text) for __2sprintf
    main.o(i.main) refers to common.o(i._Z16Serial_PutStringPKc) for Serial_PutString(const char*)
    main.o(i.main) refers to stm32f0xx_hal_gpio.o(i.HAL_GPIO_TogglePin) for HAL_GPIO_TogglePin
    main.o(i.main) refers to main_controller.o(i._ZN15main_controller14init_PF_structEP9PF_memory) for main_controller::init_PF_struct(PF_memory*)
    main.o(i.main) refers to main.o(i.__ARM_common_switch8) for __ARM_common_switch8
    main.o(i.main) refers to main_controller.o(i._ZN15main_controller10init_stateEv) for main_controller::init_state()
    main.o(i.main) refers to main_controller.o(i._ZN15main_controller10idle_stateEv) for main_controller::idle_state()
    main.o(i.main) refers to main_controller.o(i._ZN15main_controller12update_stateEv) for main_controller::update_state()
    main.o(i.main) refers to main_controller.o(i._ZN15main_controller12active_stateEv) for main_controller::active_state()
    main.o(i.main) refers to main.o(i._ZN15main_controller14read_interlockEv) for main_controller::read_interlock()
    main.o(i.main) refers to monitor.o(i._ZN7monitor14serial_consumeEv) for monitor::serial_consume()
    main.o(i.main) refers to aeabi_sdiv.o(.text) for __aeabi_uidivmod
    main.o(i.main) refers to monitor.o(i._ZN7monitor6rx_adcEv) for monitor::rx_adc()
    main.o(i.main) refers to main_controller.o(i._ZN15main_controller12update_debugEv) for main_controller::update_debug()
    main.o(i.main) refers to screen_controller.o(i._ZN11Screen_ctrl14update_versionEv) for Screen_ctrl::update_version()
    main.o(i.main) refers to mem_controller.o(i._ZN8Mem_ctrl17check_connectionsEv) for Mem_ctrl::check_connections()
    main.o(i.main) refers to main_controller.o(i._ZN15main_controller8qa_stateEv) for main_controller::qa_state()
    main.o(i.main) refers to monitor.o(i._ZN7monitor16parse_input_uartEv) for monitor::parse_input_uart()
    main.o(i.main) refers to main.o(.bss) for .bss
    main.o(i.main) refers to adc.o(.bss) for hadc
    main.o(i.main) refers to main.o(.data) for .data
    main.o(i.main) refers to tim.o(.bss) for htim16
    main.o(.ARM.exidx) refers to main.o(i.HAL_ADC_ConvCpltCallback) for i.HAL_ADC_ConvCpltCallback
    main.o(.ARM.exidx) refers to main.o(i._Z14remapMemToSRAMv) for i._Z14remapMemToSRAMv
    main.o(.ARM.exidx) refers to main.o(i.Error_Handler) for i.Error_Handler
    main.o(.ARM.exidx) refers to main.o(i._Z18SystemClock_Configv) for i._Z18SystemClock_Configv
    main.o(.ARM.exidx) refers to main.o(i.main) for i.main
    main.o(.ARM.exidx) refers to main.o(i.HAL_TIM_PeriodElapsedCallback) for i.HAL_TIM_PeriodElapsedCallback
    main.o(.ARM.exidx) refers to main.o(i.__sti___8_main_cpp_debug) for i.__sti___8_main_cpp_debug
    main.o(.data) refers to main.o(.bss) for grand_ctrl
    main.o(.data) refers to main.o(.bss) for memory_controller
    main.o(.init_array) refers to main.o(i.__sti___8_main_cpp_debug) for __sti___8_main_cpp_debug
    main.o(.init_array) refers to init_aeabi.o(.text) for __cpp_initialize__aeabi_
    adc_controller.o(i._ZN14adc_controller15convert_to_voltEv) refers to aeabi_sdiv.o(.text) for __aeabi_uidivmod
    adc_controller.o(i._ZN14adc_controller18serial_comm_to_adcE14select_channel) refers to stm32f0xx_hal_spi.o(i.HAL_SPI_TransmitReceive) for HAL_SPI_TransmitReceive
    adc_controller.o(i._ZN14adc_controller18serial_comm_to_adcE14select_channel) refers to spi.o(.bss) for hspi1
    adc_controller.o(i._ZN14adc_controller4readE14select_channel) refers to cs_register.o(i._ZN6CS_reg6cs_a2dE13GPIO_PinState) for CS_reg::cs_a2d(GPIO_PinState)
    adc_controller.o(i._ZN14adc_controller4readE14select_channel) refers to common.o(i.delay) for delay
    adc_controller.o(i._ZN14adc_controller4readE14select_channel) refers to adc_controller.o(i._ZN14adc_controller18serial_comm_to_adcE14select_channel) for adc_controller::serial_comm_to_adc(select_channel)
    adc_controller.o(i._ZN14adc_controller4readE14select_channel) refers to aeabi_sdiv.o(.text) for __aeabi_uidivmod
    adc_controller.o(i._ZN14adc_controller4readEv) refers to stm32f0xx_hal_gpio.o(i.HAL_GPIO_TogglePin) for HAL_GPIO_TogglePin
    adc_controller.o(i._ZN14adc_controller4readEv) refers to adc_controller.o(i._ZN14adc_controller4readE14select_channel) for adc_controller::read(select_channel)
    adc_controller.o(i._ZN14adc_controller4readEv) refers to stm32f0xx_hal.o(i.HAL_Delay) for HAL_Delay
    adc_controller.o(.ARM.exidx) refers to adc_controller.o(i._ZN14adc_controllerC1EP6CS_reg) for i._ZN14adc_controllerC1EP6CS_reg
    adc_controller.o(.ARM.exidx) refers to adc_controller.o(i._ZN14adc_controllerD1Ev) for i._ZN14adc_controllerD1Ev
    adc_controller.o(.ARM.exidx) refers to adc_controller.o(i._ZN14adc_controller18serial_comm_to_adcE14select_channel) for i._ZN14adc_controller18serial_comm_to_adcE14select_channel
    adc_controller.o(.ARM.exidx) refers to adc_controller.o(i._ZN14adc_controller4readE14select_channel) for i._ZN14adc_controller4readE14select_channel
    adc_controller.o(.ARM.exidx) refers to adc_controller.o(i._ZN14adc_controller4readEv) for i._ZN14adc_controller4readEv
    adc_controller.o(.ARM.exidx) refers to adc_controller.o(i._ZN14adc_controller15convert_to_voltEv) for i._ZN14adc_controller15convert_to_voltEv
    adc_controller.o(.ARM.exidx) refers to adc_controller.o(i._ZN14adc_controller14pressure_checkEv) for i._ZN14adc_controller14pressure_checkEv
    adc_controller.o(.ARM.exidx) refers to adc_controller.o(i._ZN14adc_controller14convert_to_psiEv) for i._ZN14adc_controller14convert_to_psiEv
    adc_controller.o(.ARM.exidx) refers to adc_controller.o(i._ZN14adc_controller18convert_to_celsiusEv) for i._ZN14adc_controller18convert_to_celsiusEv
    common.o(i._Z14Serial_PutByteh) refers to stm32f0xx_hal_uart.o(i.HAL_UART_Transmit) for HAL_UART_Transmit
    common.o(i._Z14Serial_PutByteh) refers to usart.o(.bss) for huart1
    common.o(i._Z14prepare_packetPhS_) refers to common.o(i._Z8calc_crcPhi) for calc_crc(unsigned char*, int)
    common.o(i._Z16Serial_PutStringPKc) refers to stm32f0xx_hal_uart.o(i.HAL_UART_Transmit) for HAL_UART_Transmit
    common.o(i._Z16Serial_PutStringPKc) refers to usart.o(.bss) for huart1
    common.o(i._Z17Monitor_PutStringPKc) refers to common.o(i._Z14prepare_packetPhS_) for prepare_packet(unsigned char*, unsigned char*)
    common.o(i._Z17Monitor_PutStringPKc) refers to stm32f0xx_hal_uart.o(i.HAL_UART_Transmit) for HAL_UART_Transmit
    common.o(i._Z17Monitor_PutStringPKc) refers to main.o(.bss) for BUFFER_SCREEN_WITH_CRC
    common.o(i._Z17Monitor_PutStringPKc) refers to usart.o(.bss) for huart2
    common.o(i._Z7Int2StrPhj) refers to aeabi_sdiv.o(.text) for __aeabi_uidivmod
    common.o(i.delay) refers to tim.o(.bss) for htim2
    common.o(i.delay_with_watchdog) refers to stm32f0xx_hal.o(i.HAL_GetTick) for HAL_GetTick
    common.o(i.delay_with_watchdog) refers to stm32f0xx_hal_gpio.o(i.HAL_GPIO_TogglePin) for HAL_GPIO_TogglePin
    common.o(i.delay_with_watchdog) refers to stm32f0xx_hal.o(i.HAL_Delay) for HAL_Delay
    common.o(i.read_reset_button_aux) refers to stm32f0xx_hal_gpio.o(i.HAL_GPIO_ReadPin) for HAL_GPIO_ReadPin
    common.o(i.test_for_reset_press_aux) refers to common.o(i.read_reset_button_aux) for read_reset_button_aux
    common.o(i.test_for_reset_press_aux) refers to common.o(.data) for .data
    common.o(.ARM.exidx) refers to common.o(i._Z7Int2StrPhj) for i._Z7Int2StrPhj
    common.o(.ARM.exidx) refers to common.o(i._Z7Str2IntPhPj) for i._Z7Str2IntPhPj
    common.o(.ARM.exidx) refers to common.o(i._Z16Serial_PutStringPKc) for i._Z16Serial_PutStringPKc
    common.o(.ARM.exidx) refers to common.o(i._Z8calc_crcPhi) for i._Z8calc_crcPhi
    common.o(.ARM.exidx) refers to common.o(i._Z14prepare_packetPhS_) for i._Z14prepare_packetPhS_
    common.o(.ARM.exidx) refers to common.o(i._Z17Monitor_PutStringPKc) for i._Z17Monitor_PutStringPKc
    common.o(.ARM.exidx) refers to common.o(i._Z14Serial_PutByteh) for i._Z14Serial_PutByteh
    common.o(.ARM.exidx) refers to common.o(i.delay) for i.delay
    common.o(.ARM.exidx) refers to common.o(i.translate_int_to_address) for i.translate_int_to_address
    common.o(.ARM.exidx) refers to common.o(i.translate_address_to_int) for i.translate_address_to_int
    common.o(.ARM.exidx) refers to common.o(i.translate_int_to_arr) for i.translate_int_to_arr
    common.o(.ARM.exidx) refers to common.o(i.read_reset_button_aux) for i.read_reset_button_aux
    common.o(.ARM.exidx) refers to common.o(i.test_for_reset_press_aux) for i.test_for_reset_press_aux
    common.o(.ARM.exidx) refers to common.o(i.delay_with_watchdog) for i.delay_with_watchdog
    cs_register.o(i._ZN6CS_reg10cs_genericE13GPIO_PinState10cs_decoder) refers to cs_register.o(i._ZN6CS_reg19pull_chipselet_lineE13GPIO_PinState) for CS_reg::pull_chipselet_line(GPIO_PinState)
    cs_register.o(i._ZN6CS_reg10cs_genericE13GPIO_PinState10cs_decoder) refers to stm32f0xx_hal_spi.o(i.HAL_SPI_Transmit) for HAL_SPI_Transmit
    cs_register.o(i._ZN6CS_reg10cs_genericE13GPIO_PinState10cs_decoder) refers to stm32f0xx_hal_gpio.o(i.HAL_GPIO_WritePin) for HAL_GPIO_WritePin
    cs_register.o(i._ZN6CS_reg10cs_genericE13GPIO_PinState10cs_decoder) refers to cs_register.o(i._ZN6CS_reg14store_registerEv) for CS_reg::store_register()
    cs_register.o(i._ZN6CS_reg10cs_genericE13GPIO_PinState10cs_decoder) refers to spi.o(.bss) for hspi1
    cs_register.o(i._ZN6CS_reg10cs_genericE13GPIO_PinState10cs_decoder) refers to cs_register.o(.data) for .data
    cs_register.o(i._ZN6CS_reg13print_currentEv) refers to _printf_pad.o(.text) for _printf_pre_padding
    cs_register.o(i._ZN6CS_reg13print_currentEv) refers to _printf_percent.o(.ARM.Collect$$_printf_percent$$00000000) for _printf_percent
    cs_register.o(i._ZN6CS_reg13print_currentEv) refers to _printf_d.o(.ARM.Collect$$_printf_percent$$00000009) for _printf_d
    cs_register.o(i._ZN6CS_reg13print_currentEv) refers to _printf_x.o(.ARM.Collect$$_printf_percent$$0000000C) for _printf_x
    cs_register.o(i._ZN6CS_reg13print_currentEv) refers to _printf_dec.o(.text) for _printf_int_dec
    cs_register.o(i._ZN6CS_reg13print_currentEv) refers to _printf_hex_int.o(.text) for _printf_longlong_hex
    cs_register.o(i._ZN6CS_reg13print_currentEv) refers to noretval__2sprintf.o(.text) for __2sprintf
    cs_register.o(i._ZN6CS_reg13print_currentEv) refers to common.o(i._Z16Serial_PutStringPKc) for Serial_PutString(const char*)
    cs_register.o(i._ZN6CS_reg13print_currentEv) refers to main.o(.bss) for aPacketData
    cs_register.o(i._ZN6CS_reg14store_registerEv) refers to stm32f0xx_hal_gpio.o(i.HAL_GPIO_WritePin) for HAL_GPIO_WritePin
    cs_register.o(i._ZN6CS_reg14store_registerEv) refers to common.o(i.delay) for delay
    cs_register.o(i._ZN6CS_reg15motor_cmd_tightEb) refers to cs_register.o(i._ZN6CS_reg19pull_chipselet_lineE13GPIO_PinState) for CS_reg::pull_chipselet_line(GPIO_PinState)
    cs_register.o(i._ZN6CS_reg15motor_cmd_tightEb) refers to stm32f0xx_hal_spi.o(i.HAL_SPI_Transmit) for HAL_SPI_Transmit
    cs_register.o(i._ZN6CS_reg15motor_cmd_tightEb) refers to stm32f0xx_hal_gpio.o(i.HAL_GPIO_WritePin) for HAL_GPIO_WritePin
    cs_register.o(i._ZN6CS_reg15motor_cmd_tightEb) refers to common.o(i.delay) for delay
    cs_register.o(i._ZN6CS_reg15motor_cmd_tightEb) refers to spi.o(.bss) for hspi1
    cs_register.o(i._ZN6CS_reg17motor_cmd_reverseEv) refers to cs_register.o(i._ZN6CS_reg19pull_chipselet_lineE13GPIO_PinState) for CS_reg::pull_chipselet_line(GPIO_PinState)
    cs_register.o(i._ZN6CS_reg17motor_cmd_reverseEv) refers to stm32f0xx_hal_spi.o(i.HAL_SPI_Transmit) for HAL_SPI_Transmit
    cs_register.o(i._ZN6CS_reg17motor_cmd_reverseEv) refers to stm32f0xx_hal.o(i.HAL_Delay) for HAL_Delay
    cs_register.o(i._ZN6CS_reg17motor_cmd_reverseEv) refers to spi.o(.bss) for hspi1
    cs_register.o(i._ZN6CS_reg17print_current_newEv) refers to _printf_pad.o(.text) for _printf_pre_padding
    cs_register.o(i._ZN6CS_reg17print_current_newEv) refers to _printf_percent.o(.ARM.Collect$$_printf_percent$$00000000) for _printf_percent
    cs_register.o(i._ZN6CS_reg17print_current_newEv) refers to _printf_d.o(.ARM.Collect$$_printf_percent$$00000009) for _printf_d
    cs_register.o(i._ZN6CS_reg17print_current_newEv) refers to _printf_x.o(.ARM.Collect$$_printf_percent$$0000000C) for _printf_x
    cs_register.o(i._ZN6CS_reg17print_current_newEv) refers to _printf_dec.o(.text) for _printf_int_dec
    cs_register.o(i._ZN6CS_reg17print_current_newEv) refers to _printf_hex_int.o(.text) for _printf_longlong_hex
    cs_register.o(i._ZN6CS_reg17print_current_newEv) refers to noretval__2sprintf.o(.text) for __2sprintf
    cs_register.o(i._ZN6CS_reg17print_current_newEv) refers to common.o(i._Z16Serial_PutStringPKc) for Serial_PutString(const char*)
    cs_register.o(i._ZN6CS_reg17print_current_newEv) refers to main.o(.bss) for aPacketData
    cs_register.o(i._ZN6CS_reg17print_current_newEv) refers to cs_register.o(.conststring) for .conststring
    cs_register.o(i._ZN6CS_reg19pull_chipselet_lineE13GPIO_PinState) refers to stm32f0xx_hal_gpio.o(i.HAL_GPIO_WritePin) for HAL_GPIO_WritePin
    cs_register.o(i._ZN6CS_reg20read_back_current_csEv) refers to _printf_pad.o(.text) for _printf_pre_padding
    cs_register.o(i._ZN6CS_reg20read_back_current_csEv) refers to _printf_percent.o(.ARM.Collect$$_printf_percent$$00000000) for _printf_percent
    cs_register.o(i._ZN6CS_reg20read_back_current_csEv) refers to _printf_d.o(.ARM.Collect$$_printf_percent$$00000009) for _printf_d
    cs_register.o(i._ZN6CS_reg20read_back_current_csEv) refers to _printf_x.o(.ARM.Collect$$_printf_percent$$0000000C) for _printf_x
    cs_register.o(i._ZN6CS_reg20read_back_current_csEv) refers to _printf_dec.o(.text) for _printf_int_dec
    cs_register.o(i._ZN6CS_reg20read_back_current_csEv) refers to _printf_hex_int.o(.text) for _printf_longlong_hex
    cs_register.o(i._ZN6CS_reg20read_back_current_csEv) refers to stm32f0xx_hal_spi.o(i.HAL_SPI_Transmit) for HAL_SPI_Transmit
    cs_register.o(i._ZN6CS_reg20read_back_current_csEv) refers to cs_register.o(i._ZN6CS_reg19pull_chipselet_lineE13GPIO_PinState) for CS_reg::pull_chipselet_line(GPIO_PinState)
    cs_register.o(i._ZN6CS_reg20read_back_current_csEv) refers to stm32f0xx_hal_spi.o(i.HAL_SPI_Receive) for HAL_SPI_Receive
    cs_register.o(i._ZN6CS_reg20read_back_current_csEv) refers to noretval__2sprintf.o(.text) for __2sprintf
    cs_register.o(i._ZN6CS_reg20read_back_current_csEv) refers to common.o(i._Z16Serial_PutStringPKc) for Serial_PutString(const char*)
    cs_register.o(i._ZN6CS_reg20read_back_current_csEv) refers to cs_register.o(i._ZN6CS_reg9set_valueEh) for CS_reg::set_value(unsigned char)
    cs_register.o(i._ZN6CS_reg20read_back_current_csEv) refers to spi.o(.bss) for hspi1
    cs_register.o(i._ZN6CS_reg20read_back_current_csEv) refers to main.o(.bss) for aPacketData
    cs_register.o(i._ZN6CS_reg21cs_clear_opto_counterE13GPIO_PinState) refers to cs_register.o(i._ZN6CS_reg10cs_genericE13GPIO_PinState10cs_decoder) for CS_reg::cs_generic(GPIO_PinState, cs_decoder)
    cs_register.o(i._ZN6CS_reg3cs1E13GPIO_PinState) refers to stm32f0xx_hal_spi.o(i.HAL_SPI_Transmit) for HAL_SPI_Transmit
    cs_register.o(i._ZN6CS_reg3cs1E13GPIO_PinState) refers to stm32f0xx_hal_gpio.o(i.HAL_GPIO_WritePin) for HAL_GPIO_WritePin
    cs_register.o(i._ZN6CS_reg3cs1E13GPIO_PinState) refers to cs_register.o(i._ZN6CS_reg19pull_chipselet_lineE13GPIO_PinState) for CS_reg::pull_chipselet_line(GPIO_PinState)
    cs_register.o(i._ZN6CS_reg3cs1E13GPIO_PinState) refers to spi.o(.bss) for hspi1
    cs_register.o(i._ZN6CS_reg3cs2E13GPIO_PinState) refers to cs_register.o(i._ZN6CS_reg10cs_genericE13GPIO_PinState10cs_decoder) for CS_reg::cs_generic(GPIO_PinState, cs_decoder)
    cs_register.o(i._ZN6CS_reg3cs3E13GPIO_PinState) refers to cs_register.o(i._ZN6CS_reg10cs_genericE13GPIO_PinState10cs_decoder) for CS_reg::cs_generic(GPIO_PinState, cs_decoder)
    cs_register.o(i._ZN6CS_reg6cs_a2dE13GPIO_PinState) refers to stm32f0xx_hal_spi.o(i.HAL_SPI_Transmit) for HAL_SPI_Transmit
    cs_register.o(i._ZN6CS_reg6cs_a2dE13GPIO_PinState) refers to cs_register.o(i._ZN6CS_reg10cs_genericE13GPIO_PinState10cs_decoder) for CS_reg::cs_generic(GPIO_PinState, cs_decoder)
    cs_register.o(i._ZN6CS_reg6cs_a2dE13GPIO_PinState) refers to spi.o(.bss) for hspi1
    cs_register.o(i._ZN6CS_reg9cs_statusE13GPIO_PinState) refers to cs_register.o(i._ZN6CS_reg10cs_genericE13GPIO_PinState10cs_decoder) for CS_reg::cs_generic(GPIO_PinState, cs_decoder)
    cs_register.o(i._ZN6CS_reg9motor_cmdEb) refers to cs_register.o(i._ZN6CS_reg9set_valueEh) for CS_reg::set_value(unsigned char)
    cs_register.o(i._ZN6CS_reg9set_valueEh) refers to cs_register.o(i._ZN6CS_reg19pull_chipselet_lineE13GPIO_PinState) for CS_reg::pull_chipselet_line(GPIO_PinState)
    cs_register.o(i._ZN6CS_reg9set_valueEh) refers to stm32f0xx_hal_spi.o(i.HAL_SPI_Transmit) for HAL_SPI_Transmit
    cs_register.o(i._ZN6CS_reg9set_valueEh) refers to common.o(i.delay) for delay
    cs_register.o(i._ZN6CS_reg9set_valueEh) refers to cs_register.o(i._ZN6CS_reg14store_registerEv) for CS_reg::store_register()
    cs_register.o(i._ZN6CS_reg9set_valueEh) refers to spi.o(.bss) for hspi1
    cs_register.o(.ARM.exidx) refers to cs_register.o(i._ZN6CS_regC1Ev) for i._ZN6CS_regC1Ev
    cs_register.o(.ARM.exidx) refers to cs_register.o(i._ZN6CS_regD1Ev) for i._ZN6CS_regD1Ev
    cs_register.o(.ARM.exidx) refers to cs_register.o(i._ZN6CS_reg13print_currentEv) for i._ZN6CS_reg13print_currentEv
    cs_register.o(.ARM.exidx) refers to cs_register.o(i._ZN6CS_reg17print_current_newEv) for i._ZN6CS_reg17print_current_newEv
    cs_register.o(.ARM.exidx) refers to cs_register.o(i._ZN6CS_reg19pull_chipselet_lineE13GPIO_PinState) for i._ZN6CS_reg19pull_chipselet_lineE13GPIO_PinState
    cs_register.o(.ARM.exidx) refers to cs_register.o(i._ZN6CS_reg3cs1E13GPIO_PinState) for i._ZN6CS_reg3cs1E13GPIO_PinState
    cs_register.o(.ARM.exidx) refers to cs_register.o(i._ZN6CS_reg14store_registerEv) for i._ZN6CS_reg14store_registerEv
    cs_register.o(.ARM.exidx) refers to cs_register.o(i._ZN6CS_reg10cs_genericE13GPIO_PinState10cs_decoder) for i._ZN6CS_reg10cs_genericE13GPIO_PinState10cs_decoder
    cs_register.o(.ARM.exidx) refers to cs_register.o(i._ZN6CS_reg3cs2E13GPIO_PinState) for i._ZN6CS_reg3cs2E13GPIO_PinState
    cs_register.o(.ARM.exidx) refers to cs_register.o(i._ZN6CS_reg3cs3E13GPIO_PinState) for i._ZN6CS_reg3cs3E13GPIO_PinState
    cs_register.o(.ARM.exidx) refers to cs_register.o(i._ZN6CS_reg9cs_statusE13GPIO_PinState) for i._ZN6CS_reg9cs_statusE13GPIO_PinState
    cs_register.o(.ARM.exidx) refers to cs_register.o(i._ZN6CS_reg6cs_a2dE13GPIO_PinState) for i._ZN6CS_reg6cs_a2dE13GPIO_PinState
    cs_register.o(.ARM.exidx) refers to cs_register.o(i._ZN6CS_reg21cs_clear_opto_counterE13GPIO_PinState) for i._ZN6CS_reg21cs_clear_opto_counterE13GPIO_PinState
    cs_register.o(.ARM.exidx) refers to cs_register.o(i._ZN6CS_reg9set_valueEh) for i._ZN6CS_reg9set_valueEh
    cs_register.o(.ARM.exidx) refers to cs_register.o(i._ZN6CS_reg9motor_cmdEb) for i._ZN6CS_reg9motor_cmdEb
    cs_register.o(.ARM.exidx) refers to cs_register.o(i._ZN6CS_reg15motor_cmd_tightEb) for i._ZN6CS_reg15motor_cmd_tightEb
    cs_register.o(.ARM.exidx) refers to cs_register.o(i._ZN6CS_reg17motor_cmd_reverseEv) for i._ZN6CS_reg17motor_cmd_reverseEv
    cs_register.o(.ARM.exidx) refers to cs_register.o(i._ZN6CS_reg20read_back_current_csEv) for i._ZN6CS_reg20read_back_current_csEv
    debug_facilities.o(i._ZN11DebugHelper10fast_beepsEv) refers to stm32f0xx_hal_gpio.o(i.HAL_GPIO_WritePin) for HAL_GPIO_WritePin
    debug_facilities.o(i._ZN11DebugHelper10fast_beepsEv) refers to stm32f0xx_hal.o(i.HAL_Delay) for HAL_Delay
    debug_facilities.o(i._ZN11DebugHelper12fast_beeps_2Ev) refers to stm32f0xx_hal_gpio.o(i.HAL_GPIO_WritePin) for HAL_GPIO_WritePin
    debug_facilities.o(i._ZN11DebugHelper12fast_beeps_2Ev) refers to stm32f0xx_hal.o(i.HAL_Delay) for HAL_Delay
    debug_facilities.o(i._ZN11DebugHelper12fast_beeps_3Ev) refers to stm32f0xx_hal_gpio.o(i.HAL_GPIO_WritePin) for HAL_GPIO_WritePin
    debug_facilities.o(i._ZN11DebugHelper12fast_beeps_3Ev) refers to stm32f0xx_hal.o(i.HAL_Delay) for HAL_Delay
    debug_facilities.o(i._ZN11DebugHelper12update_stateEh) refers to stm32f0xx_hal_gpio.o(i.HAL_GPIO_WritePin) for HAL_GPIO_WritePin
    debug_facilities.o(i._ZN11DebugHelper4showEj) refers to stm32f0xx_hal_gpio.o(i.HAL_GPIO_WritePin) for HAL_GPIO_WritePin
    debug_facilities.o(i._ZN11DebugHelper6updateEbbbbb) refers to debug_facilities.o(i._ZN11DebugHelper4showEj) for DebugHelper::show(unsigned)
    debug_facilities.o(i._ZN11DebugHelper6updateEj) refers to debug_facilities.o(i._ZN11DebugHelper4showEj) for DebugHelper::show(unsigned)
    debug_facilities.o(i._ZN11DebugHelper6updateEv) refers to stm32f0xx_hal_gpio.o(i.HAL_GPIO_WritePin) for HAL_GPIO_WritePin
    debug_facilities.o(i._ZN11DebugHelper9long_beepEv) refers to stm32f0xx_hal_gpio.o(i.HAL_GPIO_WritePin) for HAL_GPIO_WritePin
    debug_facilities.o(i._ZN11DebugHelper9long_beepEv) refers to stm32f0xx_hal.o(i.HAL_Delay) for HAL_Delay
    debug_facilities.o(.ARM.exidx) refers to debug_facilities.o(i._ZN11DebugHelperC1Ev) for i._ZN11DebugHelperC1Ev
    debug_facilities.o(.ARM.exidx) refers to debug_facilities.o(i._ZN11DebugHelperD1Ev) for i._ZN11DebugHelperD1Ev
    debug_facilities.o(.ARM.exidx) refers to debug_facilities.o(i._ZN11DebugHelper10fast_beepsEv) for i._ZN11DebugHelper10fast_beepsEv
    debug_facilities.o(.ARM.exidx) refers to debug_facilities.o(i._ZN11DebugHelper12fast_beeps_2Ev) for i._ZN11DebugHelper12fast_beeps_2Ev
    debug_facilities.o(.ARM.exidx) refers to debug_facilities.o(i._ZN11DebugHelper12fast_beeps_3Ev) for i._ZN11DebugHelper12fast_beeps_3Ev
    debug_facilities.o(.ARM.exidx) refers to debug_facilities.o(i._ZN11DebugHelper9long_beepEv) for i._ZN11DebugHelper9long_beepEv
    debug_facilities.o(.ARM.exidx) refers to debug_facilities.o(i._ZN11DebugHelper6updateEv) for i._ZN11DebugHelper6updateEv
    debug_facilities.o(.ARM.exidx) refers to debug_facilities.o(i._ZN11DebugHelper4showEj) for i._ZN11DebugHelper4showEj
    debug_facilities.o(.ARM.exidx) refers to debug_facilities.o(i._ZN11DebugHelper6updateEj) for i._ZN11DebugHelper6updateEj
    debug_facilities.o(.ARM.exidx) refers to debug_facilities.o(i._ZN11DebugHelper6updateEbbbbb) for i._ZN11DebugHelper6updateEbbbbb
    debug_facilities.o(.ARM.exidx) refers to debug_facilities.o(i._ZN11DebugHelper12update_stateEh) for i._ZN11DebugHelper12update_stateEh
    error_controller.o(i._ZN16error_controller3logE12DEBUG_LEVEL_PKct) refers to common.o(i._Z16Serial_PutStringPKc) for Serial_PutString(const char*)
    error_controller.o(i._ZN16error_controller3logE12DEBUG_LEVEL_PKct) refers to stm32f0xx_hal.o(i.HAL_Delay) for HAL_Delay
    error_controller.o(.ARM.exidx) refers to error_controller.o(i._ZN16error_controllerC1Ev) for i._ZN16error_controllerC1Ev
    error_controller.o(.ARM.exidx) refers to error_controller.o(i._ZN16error_controllerD1Ev) for i._ZN16error_controllerD1Ev
    error_controller.o(.ARM.exidx) refers to error_controller.o(i._ZN16error_controller3logE12DEBUG_LEVEL_PKct) for i._ZN16error_controller3logE12DEBUG_LEVEL_PKct
    error_controller.o(.ARM.exidx) refers to error_controller.o(i._ZN16error_controller8on_fatalEv) for i._ZN16error_controller8on_fatalEv
    flash_if.o(i._Z14FLASH_If_Erasev) refers to mem_controller.o(i._ZN8Mem_ctrl5eraseEh) for Mem_ctrl::erase(unsigned char)
    flash_if.o(i._Z14FLASH_If_Erasev) refers to main.o(.data) for memory_extern
    flash_if.o(i._Z14FLASH_If_WritejPhj) refers to uread4.o(.text) for __aeabi_uread4
    flash_if.o(i._Z14FLASH_If_WritejPhj) refers to mem_controller.o(i._ZN8Mem_ctrl5writeEhjj) for Mem_ctrl::write(unsigned char, unsigned, unsigned)
    flash_if.o(i._Z14FLASH_If_WritejPhj) refers to stm32f0xx_hal.o(i.HAL_Delay) for HAL_Delay
    flash_if.o(i._Z14FLASH_If_WritejPhj) refers to main.o(.data) for memory_extern
    flash_if.o(.ARM.exidx) refers to flash_if.o(i._Z14FLASH_If_Erasev) for i._Z14FLASH_If_Erasev
    flash_if.o(.ARM.exidx) refers to flash_if.o(i._Z14FLASH_If_WritejPhj) for i._Z14FLASH_If_WritejPhj
    main_controller.o(i._ZN15main_controller10idle_stateEv) refers to common.o(i.test_for_reset_press_aux) for test_for_reset_press_aux
    main_controller.o(i._ZN15main_controller10idle_stateEv) refers to debug_facilities.o(i._ZN11DebugHelper10fast_beepsEv) for DebugHelper::fast_beeps()
    main_controller.o(i._ZN15main_controller10idle_stateEv) refers to screen_controller.o(i._ZN11Screen_ctrl12clean_screenEj) for Screen_ctrl::clean_screen(unsigned)
    main_controller.o(i._ZN15main_controller10idle_stateEv) refers to adc_controller.o(i._ZN14adc_controller4readEv) for adc_controller::read()
    main_controller.o(i._ZN15main_controller10idle_stateEv) refers to peripherial_controller.o(i._ZN18PeripherialDevices4readEv) for PeripherialDevices::read()
    main_controller.o(i._ZN15main_controller10idle_stateEv) refers to main_controller.o(i._ZN15main_controller15fire_is_pressedEv) for main_controller::fire_is_pressed()
    main_controller.o(i._ZN15main_controller10idle_stateEv) refers to main_controller.o(i._ZN15main_controller20need_to_stall_staticEv) for main_controller::need_to_stall_static()
    main_controller.o(i._ZN15main_controller10idle_stateEv) refers to stm32f0xx_hal.o(i.HAL_GetTick) for HAL_GetTick
    main_controller.o(i._ZN15main_controller10idle_stateEv) refers to main_controller.o(i._ZN15main_controller13added_counterEv) for main_controller::added_counter()
    main_controller.o(i._ZN15main_controller10idle_stateEv) refers to peripherial_controller.o(i._ZN18PeripherialDevices15start_motor_pwmEv) for PeripherialDevices::start_motor_pwm()
    main_controller.o(i._ZN15main_controller10idle_stateEv) refers to main_controller.o(i._ZN15main_controller19set_b_motor_runningEb) for main_controller::set_b_motor_running(bool)
    main_controller.o(i._ZN15main_controller10idle_stateEv) refers to screen_controller.o(i._ZN11Screen_ctrl12update_piazoEb) for Screen_ctrl::update_piazo(bool)
    main_controller.o(i._ZN15main_controller10idle_stateEv) refers to main_controller.o(i._ZN15main_controller7get_allEv) for main_controller::get_all()
    main_controller.o(i._ZN15main_controller10idle_stateEv) refers to adc_controller.o(i._ZN14adc_controller15convert_to_voltEv) for adc_controller::convert_to_volt()
    main_controller.o(i._ZN15main_controller10idle_stateEv) refers to screen_controller.o(i._ZN11Screen_ctrl14update_batteryEjj) for Screen_ctrl::update_battery(unsigned, unsigned)
    main_controller.o(i._ZN15main_controller10idle_stateEv) refers to screen_controller.o(i._ZN11Screen_ctrl15update_pressureEj) for Screen_ctrl::update_pressure(unsigned)
    main_controller.o(i._ZN15main_controller10idle_stateEv) refers to screen_controller.o(i._ZN11Screen_ctrl27update_remaining_in_percentEjj) for Screen_ctrl::update_remaining_in_percent(unsigned, unsigned)
    main_controller.o(i._ZN15main_controller10idle_stateEv) refers to main_controller.o(i._ZN15main_controller12update_debugEv) for main_controller::update_debug()
    main_controller.o(i._ZN15main_controller10idle_stateEv) refers to peripherial_controller.o(i._ZN18PeripherialDevices13clear_counterEv) for PeripherialDevices::clear_counter()
    main_controller.o(i._ZN15main_controller10idle_stateEv) refers to main.o(.data) for RESET_PRESSED
    main_controller.o(i._ZN15main_controller10idle_stateEv) refers to main.o(.data) for reset_button_instead_of_fire
    main_controller.o(i._ZN15main_controller10idle_stateEv) refers to main.o(.data) for COUNTER_V
    main_controller.o(i._ZN15main_controller10init_stateEv) refers to _printf_percent.o(.ARM.Collect$$_printf_percent$$00000000) for _printf_percent
    main_controller.o(i._ZN15main_controller10init_stateEv) refers to _printf_d.o(.ARM.Collect$$_printf_percent$$00000009) for _printf_d
    main_controller.o(i._ZN15main_controller10init_stateEv) refers to _printf_dec.o(.text) for _printf_int_dec
    main_controller.o(i._ZN15main_controller10init_stateEv) refers to stm32f0xx_hal_gpio.o(i.HAL_GPIO_TogglePin) for HAL_GPIO_TogglePin
    main_controller.o(i._ZN15main_controller10init_stateEv) refers to stm32f0xx_hal.o(i.HAL_Delay) for HAL_Delay
    main_controller.o(i._ZN15main_controller10init_stateEv) refers to common.o(i._Z16Serial_PutStringPKc) for Serial_PutString(const char*)
    main_controller.o(i._ZN15main_controller10init_stateEv) refers to peripherial_controller.o(i._ZN18PeripherialDevices10stop_motorEv) for PeripherialDevices::stop_motor()
    main_controller.o(i._ZN15main_controller10init_stateEv) refers to mem_controller.o(i._ZN8Mem_ctrl17check_connectionsEv) for Mem_ctrl::check_connections()
    main_controller.o(i._ZN15main_controller10init_stateEv) refers to main_controller.o(i._ZN15main_controller12update_debugEv) for main_controller::update_debug()
    main_controller.o(i._ZN15main_controller10init_stateEv) refers to main_controller.o(i._ZN15main_controller14is_b_apt_validEv) for main_controller::is_b_apt_valid()
    main_controller.o(i._ZN15main_controller10init_stateEv) refers to main_controller.o(i._ZN15main_controller13is_b_am_validEv) for main_controller::is_b_am_valid()
    main_controller.o(i._ZN15main_controller10init_stateEv) refers to stm32f0xx_hal_gpio.o(i.HAL_GPIO_WritePin) for HAL_GPIO_WritePin
    main_controller.o(i._ZN15main_controller10init_stateEv) refers to mem_controller.o(i._ZN8Mem_ctrl10get_serialEv) for Mem_ctrl::get_serial()
    main_controller.o(i._ZN15main_controller10init_stateEv) refers to mem_controller.o(i._ZN8Mem_ctrl7get_maxEv) for Mem_ctrl::get_max()
    main_controller.o(i._ZN15main_controller10init_stateEv) refers to mem_controller.o(i._ZN8Mem_ctrl8get_dateEv) for Mem_ctrl::get_date()
    main_controller.o(i._ZN15main_controller10init_stateEv) refers to mem_controller.o(i._ZN8Mem_ctrl16binary_and_patchEv) for Mem_ctrl::binary_and_patch()
    main_controller.o(i._ZN15main_controller10init_stateEv) refers to main_controller.o(i._ZN15main_controller14get_apt_pulsesEv) for main_controller::get_apt_pulses()
    main_controller.o(i._ZN15main_controller10init_stateEv) refers to main_controller.o(i._ZN15main_controller15get_un32_pulsesEv) for main_controller::get_un32_pulses()
    main_controller.o(i._ZN15main_controller10init_stateEv) refers to screen_controller.o(i._ZN11Screen_ctrl22update_error_remainingEj) for Screen_ctrl::update_error_remaining(unsigned)
    main_controller.o(i._ZN15main_controller10init_stateEv) refers to noretval__2sprintf.o(.text) for __2sprintf
    main_controller.o(i._ZN15main_controller10init_stateEv) refers to main_controller.o(i._ZN15main_controller19generate_error_codeEv) for main_controller::generate_error_code()
    main_controller.o(i._ZN15main_controller10init_stateEv) refers to main_controller.o(i._ZN15main_controller15get_un32_cursorEv) for main_controller::get_un32_cursor()
    main_controller.o(i._ZN15main_controller10init_stateEv) refers to screen_controller.o(i._ZN11Screen_ctrl21tx_send_general_errorEj) for Screen_ctrl::tx_send_general_error(unsigned)
    main_controller.o(i._ZN15main_controller10init_stateEv) refers to mem_controller.o(i._ZN8Mem_ctrl4readEhj) for Mem_ctrl::read(unsigned char, unsigned)
    main_controller.o(i._ZN15main_controller10init_stateEv) refers to mem_controller.o(i._ZN8Mem_ctrl5writeEhjj) for Mem_ctrl::write(unsigned char, unsigned, unsigned)
    main_controller.o(i._ZN15main_controller10init_stateEv) refers to adc_controller.o(i._ZN14adc_controller4readEv) for adc_controller::read()
    main_controller.o(i._ZN15main_controller10init_stateEv) refers to mem_controller.o(i._ZN8Mem_ctrl14print_registerEh) for Mem_ctrl::print_register(unsigned char)
    main_controller.o(i._ZN15main_controller10init_stateEv) refers to mem_controller.o(i._ZN8Mem_ctrl14write_registerEht) for Mem_ctrl::write_register(unsigned char, unsigned short)
    main_controller.o(i._ZN15main_controller10init_stateEv) refers to common.o(i.delay_with_watchdog) for delay_with_watchdog
    main_controller.o(i._ZN15main_controller10init_stateEv) refers to screen_controller.o(i._ZN11Screen_ctrl30update_pulse_counter_remainingEjj) for Screen_ctrl::update_pulse_counter_remaining(unsigned, unsigned)
    main_controller.o(i._ZN15main_controller10init_stateEv) refers to screen_controller.o(i._ZN11Screen_ctrl12blank_screenEv) for Screen_ctrl::blank_screen()
    main_controller.o(i._ZN15main_controller10init_stateEv) refers to common.o(i.delay) for delay
    main_controller.o(i._ZN15main_controller10init_stateEv) refers to main_controller.o(i._ZN15main_controller14is_b_mcu_validEv) for main_controller::is_b_mcu_valid()
    main_controller.o(i._ZN15main_controller10init_stateEv) refers to screen_controller.o(i._ZN11Screen_ctrl21tx_send_general_errorEjj) for Screen_ctrl::tx_send_general_error(unsigned, unsigned)
    main_controller.o(i._ZN15main_controller10init_stateEv) refers to main_controller.o(.constdata) for .constdata
    main_controller.o(i._ZN15main_controller12active_stateEv) refers to peripherial_controller.o(i._ZN18PeripherialDevices4readEv) for PeripherialDevices::read()
    main_controller.o(i._ZN15main_controller12active_stateEv) refers to main_controller.o(i._ZN15main_controller21need_to_stall_dynamicEv) for main_controller::need_to_stall_dynamic()
    main_controller.o(i._ZN15main_controller12active_stateEv) refers to main_controller.o(i._ZN15main_controller15fire_is_pressedEv) for main_controller::fire_is_pressed()
    main_controller.o(i._ZN15main_controller12active_stateEv) refers to main_controller.o(i._ZN15main_controller19set_b_motor_runningEb) for main_controller::set_b_motor_running(bool)
    main_controller.o(i._ZN15main_controller12active_stateEv) refers to peripherial_controller.o(i._ZN18PeripherialDevices10stop_motorEv) for PeripherialDevices::stop_motor()
    main_controller.o(i._ZN15main_controller12active_stateEv) refers to main_controller.o(i._ZN15main_controller30write_out_pulses_on_stop_motorEv) for main_controller::write_out_pulses_on_stop_motor()
    main_controller.o(i._ZN15main_controller12active_stateEv) refers to screen_controller.o(i._ZN11Screen_ctrl15update_pressureEj) for Screen_ctrl::update_pressure(unsigned)
    main_controller.o(i._ZN15main_controller12active_stateEv) refers to common.o(i.delay_with_watchdog) for delay_with_watchdog
    main_controller.o(i._ZN15main_controller12active_stateEv) refers to stm32f0xx_hal.o(i.HAL_GetTick) for HAL_GetTick
    main_controller.o(i._ZN15main_controller12active_stateEv) refers to screen_controller.o(i._ZN11Screen_ctrl22update_error_remainingEj) for Screen_ctrl::update_error_remaining(unsigned)
    main_controller.o(i._ZN15main_controller12active_stateEv) refers to main_controller.o(i._ZN15main_controller19is_b_is_interlockedEv) for main_controller::is_b_is_interlocked()
    main_controller.o(i._ZN15main_controller12active_stateEv) refers to peripherial_controller.o(i._ZN18PeripherialDevices15start_motor_pwmEv) for PeripherialDevices::start_motor_pwm()
    main_controller.o(i._ZN15main_controller12active_stateEv) refers to screen_controller.o(i._ZN11Screen_ctrl12update_piazoEb) for Screen_ctrl::update_piazo(bool)
    main_controller.o(i._ZN15main_controller12active_stateEv) refers to main_controller.o(i._ZN15main_controller13added_counterEv) for main_controller::added_counter()
    main_controller.o(i._ZN15main_controller12active_stateEv) refers to aeabi_sdiv.o(.text) for __aeabi_uidivmod
    main_controller.o(i._ZN15main_controller12active_stateEv) refers to debug_facilities.o(i._ZN11DebugHelper10fast_beepsEv) for DebugHelper::fast_beeps()
    main_controller.o(i._ZN15main_controller12active_stateEv) refers to screen_controller.o(i._ZN11Screen_ctrl20update_pulse_counterEj) for Screen_ctrl::update_pulse_counter(unsigned)
    main_controller.o(i._ZN15main_controller12active_stateEv) refers to mem_controller.o(i._ZN8Mem_ctrl4readEhj) for Mem_ctrl::read(unsigned char, unsigned)
    main_controller.o(i._ZN15main_controller12active_stateEv) refers to mem_controller.o(i._ZN8Mem_ctrl5writeEhjj) for Mem_ctrl::write(unsigned char, unsigned, unsigned)
    main_controller.o(i._ZN15main_controller12active_stateEv) refers to main.o(.bss) for pf_memory
    main_controller.o(i._ZN15main_controller12active_stateEv) refers to main_controller.o(.data) for .data
    main_controller.o(i._ZN15main_controller12update_debugEv) refers to main_controller.o(i._ZN15main_controller7get_allEv) for main_controller::get_all()
    main_controller.o(i._ZN15main_controller12update_debugEv) refers to main_controller.o(i._ZN15main_controller13is_b_am_validEv) for main_controller::is_b_am_valid()
    main_controller.o(i._ZN15main_controller12update_debugEv) refers to main_controller.o(i._ZN15main_controller14is_b_apt_validEv) for main_controller::is_b_apt_valid()
    main_controller.o(i._ZN15main_controller12update_debugEv) refers to main_controller.o(i._ZN15main_controller14is_b_mcu_validEv) for main_controller::is_b_mcu_valid()
    main_controller.o(i._ZN15main_controller12update_debugEv) refers to main_controller.o(i._ZN15main_controller16is_b_pressure_okEv) for main_controller::is_b_pressure_ok()
    main_controller.o(i._ZN15main_controller12update_debugEv) refers to debug_facilities.o(i._ZN11DebugHelper6updateEbbbbb) for DebugHelper::update(bool, bool, bool, bool, bool)
    main_controller.o(i._ZN15main_controller12update_debugEv) refers to main_controller.o(i._ZN15main_controller17get_current_stateEv) for main_controller::get_current_state()
    main_controller.o(i._ZN15main_controller12update_debugEv) refers to debug_facilities.o(i._ZN11DebugHelper12update_stateEh) for DebugHelper::update_state(unsigned char)
    main_controller.o(i._ZN15main_controller12update_stateEv) refers to mem_controller.o(i._ZN8Mem_ctrl17check_connectionsEv) for Mem_ctrl::check_connections()
    main_controller.o(i._ZN15main_controller12update_stateEv) refers to main_controller.o(i._ZN15main_controller7get_allEv) for main_controller::get_all()
    main_controller.o(i._ZN15main_controller12update_stateEv) refers to adc_controller.o(i._ZN14adc_controller4readEv) for adc_controller::read()
    main_controller.o(i._ZN15main_controller12update_stateEv) refers to adc_controller.o(i._ZN14adc_controller15convert_to_voltEv) for adc_controller::convert_to_volt()
    main_controller.o(i._ZN15main_controller12update_stateEv) refers to screen_controller.o(i._ZN11Screen_ctrl14update_batteryEjj) for Screen_ctrl::update_battery(unsigned, unsigned)
    main_controller.o(i._ZN15main_controller12update_stateEv) refers to screen_controller.o(i._ZN11Screen_ctrl15update_pressureEj) for Screen_ctrl::update_pressure(unsigned)
    main_controller.o(i._ZN15main_controller12update_stateEv) refers to screen_controller.o(i._ZN11Screen_ctrl12update_piazoEb) for Screen_ctrl::update_piazo(bool)
    main_controller.o(i._ZN15main_controller12update_stateEv) refers to screen_controller.o(i._ZN11Screen_ctrl27update_remaining_in_percentEjj) for Screen_ctrl::update_remaining_in_percent(unsigned, unsigned)
    main_controller.o(i._ZN15main_controller12update_stateEv) refers to screen_controller.o(i._ZN11Screen_ctrl20update_pulse_counterEj) for Screen_ctrl::update_pulse_counter(unsigned)
    main_controller.o(i._ZN15main_controller12update_stateEv) refers to screen_controller.o(i._ZN11Screen_ctrl14update_versionEv) for Screen_ctrl::update_version()
    main_controller.o(i._ZN15main_controller12update_stateEv) refers to main_controller.o(i._ZN15main_controller12update_debugEv) for main_controller::update_debug()
    main_controller.o(i._ZN15main_controller13added_counterEv) refers to _printf_percent.o(.ARM.Collect$$_printf_percent$$00000000) for _printf_percent
    main_controller.o(i._ZN15main_controller13added_counterEv) refers to _printf_d.o(.ARM.Collect$$_printf_percent$$00000009) for _printf_d
    main_controller.o(i._ZN15main_controller13added_counterEv) refers to _printf_u.o(.ARM.Collect$$_printf_percent$$0000000A) for _printf_u
    main_controller.o(i._ZN15main_controller13added_counterEv) refers to _printf_dec.o(.text) for _printf_int_dec
    main_controller.o(i._ZN15main_controller13added_counterEv) refers to peripherial_controller.o(i._ZN18PeripherialDevices4readEv) for PeripherialDevices::read()
    main_controller.o(i._ZN15main_controller13added_counterEv) refers to cxa_guard_acquire.o(i.__cxa_guard_acquire) for __cxa_guard_acquire
    main_controller.o(i._ZN15main_controller13added_counterEv) refers to main_controller.o(i._ZN15main_controller19update_opto_counterEv) for main_controller::update_opto_counter()
    main_controller.o(i._ZN15main_controller13added_counterEv) refers to common.o(i._Z16Serial_PutStringPKc) for Serial_PutString(const char*)
    main_controller.o(i._ZN15main_controller13added_counterEv) refers to stm32f0xx_hal.o(i.HAL_GetTick) for HAL_GetTick
    main_controller.o(i._ZN15main_controller13added_counterEv) refers to noretval__2sprintf.o(.text) for __2sprintf
    main_controller.o(i._ZN15main_controller13added_counterEv) refers to main_controller.o(.data) for .data
    main_controller.o(i._ZN15main_controller13added_counterEv) refers to main.o(.data) for COUNTER_V
    main_controller.o(i._ZN15main_controller13added_counterEv) refers to main_controller.o(.bss) for .bss
    main_controller.o(i._ZN15main_controller14get_apt_pulsesEv) refers to mem_controller.o(i._ZN8Mem_ctrl4readEhj) for Mem_ctrl::read(unsigned char, unsigned)
    main_controller.o(i._ZN15main_controller14init_PF_structEP9PF_memory) refers to main_controller.o(i._ZN15main_controller15get_un32_pulsesEv) for main_controller::get_un32_pulses()
    main_controller.o(i._ZN15main_controller14init_PF_structEP9PF_memory) refers to main_controller.o(i._ZN15main_controller15get_un32_cursorEv) for main_controller::get_un32_cursor()
    main_controller.o(i._ZN15main_controller15fire_is_pressedEv) refers to main_controller.o(i._ZN15main_controller19is_b_is_interlockedEv) for main_controller::is_b_is_interlocked()
    main_controller.o(i._ZN15main_controller15fire_is_pressedEv) refers to peripherial_controller.o(i._ZN18PeripherialDevices4readEv) for PeripherialDevices::read()
    main_controller.o(i._ZN15main_controller15fire_is_pressedEv) refers to common.o(i._Z16Serial_PutStringPKc) for Serial_PutString(const char*)
    main_controller.o(i._ZN15main_controller15fire_is_pressedEv) refers to main.o(.data) for reset_button_instead_of_fire
    main_controller.o(i._ZN15main_controller15fire_is_pressedEv) refers to main.o(.data) for RESET_PRESSED
    main_controller.o(i._ZN15main_controller15fire_is_pressedEv) refers to main_controller.o(.data) for .data
    main_controller.o(i._ZN15main_controller17init_before_whileEv) refers to debug_facilities.o(i._ZN11DebugHelper4showEj) for DebugHelper::show(unsigned)
    main_controller.o(i._ZN15main_controller17init_before_whileEv) refers to screen_controller.o(i._ZN11Screen_ctrl10print_logoEv) for Screen_ctrl::print_logo()
    main_controller.o(i._ZN15main_controller17init_before_whileEv) refers to screen_controller.o(i._ZN11Screen_ctrl14update_versionEv) for Screen_ctrl::update_version()
    main_controller.o(i._ZN15main_controller17init_before_whileEv) refers to state.o(i._ZN5State15init_first_stepEv) for State::init_first_step()
    main_controller.o(i._ZN15main_controller19generate_error_codeEv) refers to main_controller.o(i._ZN15main_controller13is_b_am_validEv) for main_controller::is_b_am_valid()
    main_controller.o(i._ZN15main_controller19generate_error_codeEv) refers to main_controller.o(i._ZN15main_controller14is_b_apt_validEv) for main_controller::is_b_apt_valid()
    main_controller.o(i._ZN15main_controller19generate_error_codeEv) refers to main_controller.o(i._ZN15main_controller14is_b_mcu_validEv) for main_controller::is_b_mcu_valid()
    main_controller.o(i._ZN15main_controller19update_opto_counterEv) refers to main_controller.o(.data) for .data
    main_controller.o(i._ZN15main_controller20need_to_stall_staticEv) refers to adc_controller.o(i._ZN14adc_controller4readE14select_channel) for adc_controller::read(select_channel)
    main_controller.o(i._ZN15main_controller20need_to_stall_staticEv) refers to adc_controller.o(i._ZN14adc_controller14pressure_checkEv) for adc_controller::pressure_check()
    main_controller.o(i._ZN15main_controller20need_to_stall_staticEv) refers to common.o(i._Z16Serial_PutStringPKc) for Serial_PutString(const char*)
    main_controller.o(i._ZN15main_controller20need_to_stall_staticEv) refers to stm32f0xx_hal.o(i.HAL_GetTick) for HAL_GetTick
    main_controller.o(i._ZN15main_controller20need_to_stall_staticEv) refers to screen_controller.o(i._ZN11Screen_ctrl22update_error_remainingEj) for Screen_ctrl::update_error_remaining(unsigned)
    main_controller.o(i._ZN15main_controller20need_to_stall_staticEv) refers to stm32f0xx_hal_gpio.o(i.HAL_GPIO_TogglePin) for HAL_GPIO_TogglePin
    main_controller.o(i._ZN15main_controller20need_to_stall_staticEv) refers to stm32f0xx_hal.o(i.HAL_Delay) for HAL_Delay
    main_controller.o(i._ZN15main_controller20need_to_stall_staticEv) refers to main_controller.o(i._ZN15main_controller13is_b_am_validEv) for main_controller::is_b_am_valid()
    main_controller.o(i._ZN15main_controller20need_to_stall_staticEv) refers to main_controller.o(i._ZN15main_controller19is_b_is_interlockedEv) for main_controller::is_b_is_interlocked()
    main_controller.o(i._ZN15main_controller20need_to_stall_staticEv) refers to main_controller.o(.data) for .data
    main_controller.o(i._ZN15main_controller21need_to_stall_dynamicEv) refers to cxa_guard_acquire.o(i.__cxa_guard_acquire) for __cxa_guard_acquire
    main_controller.o(i._ZN15main_controller21need_to_stall_dynamicEv) refers to stm32f0xx_hal.o(i.HAL_GetTick) for HAL_GetTick
    main_controller.o(i._ZN15main_controller21need_to_stall_dynamicEv) refers to adc_controller.o(i._ZN14adc_controller4readE14select_channel) for adc_controller::read(select_channel)
    main_controller.o(i._ZN15main_controller21need_to_stall_dynamicEv) refers to adc_controller.o(i._ZN14adc_controller14pressure_checkEv) for adc_controller::pressure_check()
    main_controller.o(i._ZN15main_controller21need_to_stall_dynamicEv) refers to common.o(i._Z16Serial_PutStringPKc) for Serial_PutString(const char*)
    main_controller.o(i._ZN15main_controller21need_to_stall_dynamicEv) refers to stm32f0xx_hal_gpio.o(i.HAL_GPIO_TogglePin) for HAL_GPIO_TogglePin
    main_controller.o(i._ZN15main_controller21need_to_stall_dynamicEv) refers to main_controller.o(i._ZN15main_controller19update_opto_counterEv) for main_controller::update_opto_counter()
    main_controller.o(i._ZN15main_controller21need_to_stall_dynamicEv) refers to stm32f0xx_hal.o(i.HAL_Delay) for HAL_Delay
    main_controller.o(i._ZN15main_controller21need_to_stall_dynamicEv) refers to screen_controller.o(i._ZN11Screen_ctrl21tx_send_general_errorEj) for Screen_ctrl::tx_send_general_error(unsigned)
    main_controller.o(i._ZN15main_controller21need_to_stall_dynamicEv) refers to main_controller.o(i._ZN15main_controller19is_b_is_interlockedEv) for main_controller::is_b_is_interlocked()
    main_controller.o(i._ZN15main_controller21need_to_stall_dynamicEv) refers to main_controller.o(i._ZN15main_controller13is_b_am_validEv) for main_controller::is_b_am_valid()
    main_controller.o(i._ZN15main_controller21need_to_stall_dynamicEv) refers to mem_controller.o(i._ZN8Mem_ctrl17check_connectionsEh) for Mem_ctrl::check_connections(unsigned char)
    main_controller.o(i._ZN15main_controller21need_to_stall_dynamicEv) refers to adc_controller.o(i._ZN14adc_controller18convert_to_celsiusEv) for adc_controller::convert_to_celsius()
    main_controller.o(i._ZN15main_controller21need_to_stall_dynamicEv) refers to mem_controller.o(i._ZN8Mem_ctrl9LOG_DEBUGEjjjj) for Mem_ctrl::LOG_DEBUG(unsigned, unsigned, unsigned, unsigned)
    main_controller.o(i._ZN15main_controller21need_to_stall_dynamicEv) refers to main_controller.o(.data) for .data
    main_controller.o(i._ZN15main_controller21need_to_stall_dynamicEv) refers to main.o(.data) for COUNTER_V
    main_controller.o(i._ZN15main_controller30write_out_pulses_on_stop_motorEv) refers to _printf_percent.o(.ARM.Collect$$_printf_percent$$00000000) for _printf_percent
    main_controller.o(i._ZN15main_controller30write_out_pulses_on_stop_motorEv) refers to _printf_d.o(.ARM.Collect$$_printf_percent$$00000009) for _printf_d
    main_controller.o(i._ZN15main_controller30write_out_pulses_on_stop_motorEv) refers to _printf_u.o(.ARM.Collect$$_printf_percent$$0000000A) for _printf_u
    main_controller.o(i._ZN15main_controller30write_out_pulses_on_stop_motorEv) refers to _printf_dec.o(.text) for _printf_int_dec
    main_controller.o(i._ZN15main_controller30write_out_pulses_on_stop_motorEv) refers to main_controller.o(i._ZN15main_controller15get_un32_pulsesEv) for main_controller::get_un32_pulses()
    main_controller.o(i._ZN15main_controller30write_out_pulses_on_stop_motorEv) refers to main_controller.o(i._ZN15main_controller15get_un32_cursorEv) for main_controller::get_un32_cursor()
    main_controller.o(i._ZN15main_controller30write_out_pulses_on_stop_motorEv) refers to noretval__2sprintf.o(.text) for __2sprintf
    main_controller.o(i._ZN15main_controller30write_out_pulses_on_stop_motorEv) refers to common.o(i._Z16Serial_PutStringPKc) for Serial_PutString(const char*)
    main_controller.o(i._ZN15main_controller30write_out_pulses_on_stop_motorEv) refers to mem_controller.o(i._ZN8Mem_ctrl17check_connectionsEv) for Mem_ctrl::check_connections()
    main_controller.o(i._ZN15main_controller30write_out_pulses_on_stop_motorEv) refers to stm32f0xx_hal.o(i.HAL_GetTick) for HAL_GetTick
    main_controller.o(i._ZN15main_controller30write_out_pulses_on_stop_motorEv) refers to mem_controller.o(i._ZN8Mem_ctrl5writeEhjj) for Mem_ctrl::write(unsigned char, unsigned, unsigned)
    main_controller.o(i._ZN15main_controller30write_out_pulses_on_stop_motorEv) refers to main_controller.o(i._ZN15main_controller19is_b_is_interlockedEv) for main_controller::is_b_is_interlocked()
    main_controller.o(i._ZN15main_controller30write_out_pulses_on_stop_motorEv) refers to mem_controller.o(i._ZN8Mem_ctrl4readEhj) for Mem_ctrl::read(unsigned char, unsigned)
    main_controller.o(i._ZN15main_controller30write_out_pulses_on_stop_motorEv) refers to common.o(i.delay) for delay
    main_controller.o(i._ZN15main_controller30write_out_pulses_on_stop_motorEv) refers to main_controller.o(i._ZN15main_controller19generate_error_codeEv) for main_controller::generate_error_code()
    main_controller.o(i._ZN15main_controller30write_out_pulses_on_stop_motorEv) refers to screen_controller.o(i._ZN11Screen_ctrl21tx_send_general_errorEjj) for Screen_ctrl::tx_send_general_error(unsigned, unsigned)
    main_controller.o(i._ZN15main_controller30write_out_pulses_on_stop_motorEv) refers to stm32f0xx_hal_gpio.o(i.HAL_GPIO_TogglePin) for HAL_GPIO_TogglePin
    main_controller.o(i._ZN15main_controller30write_out_pulses_on_stop_motorEv) refers to main_controller.o(.bss) for .bss
    main_controller.o(i._ZN15main_controller30write_out_pulses_on_stop_motorEv) refers to main_controller.o(.data) for .data
    main_controller.o(i._ZN15main_controller30write_out_pulses_on_stop_motorEv) refers to main.o(.bss) for pf_memory
    main_controller.o(i._ZN15main_controller7get_allEv) refers to main_controller.o(i._ZN15main_controller16is_b_pressure_okEv) for main_controller::is_b_pressure_ok()
    main_controller.o(i._ZN15main_controller7get_allEv) refers to main_controller.o(i._ZN15main_controller17get_current_stateEv) for main_controller::get_current_state()
    main_controller.o(i._ZN15main_controller8qa_stateEv) refers to adc_controller.o(i._ZN14adc_controller4readEv) for adc_controller::read()
    main_controller.o(i._ZN15main_controller8qa_stateEv) refers to adc_controller.o(i._ZN14adc_controller15convert_to_voltEv) for adc_controller::convert_to_volt()
    main_controller.o(i._ZN15main_controller8qa_stateEv) refers to peripherial_controller.o(i._ZN18PeripherialDevices4readEv) for PeripherialDevices::read()
    main_controller.o(i._ZN15main_controller8qa_stateEv) refers to peripherial_controller.o(i._ZN18PeripherialDevices12toggle_motorEv) for PeripherialDevices::toggle_motor()
    main_controller.o(i._ZN15main_controller8qa_stateEv) refers to peripherial_controller.o(i._ZN18PeripherialDevices12read_counterEv) for PeripherialDevices::read_counter()
    main_controller.o(i._ZN15main_controller8qa_stateEv) refers to main_controller.o(i._ZN15main_controller13added_counterEv) for main_controller::added_counter()
    main_controller.o(i._ZN15main_controller8qa_stateEv) refers to peripherial_controller.o(i._ZN18PeripherialDevices10stop_motorEv) for PeripherialDevices::stop_motor()
    main_controller.o(i._ZN15main_controller8qa_stateEv) refers to main_controller.o(i._ZN15main_controller15get_un32_pulsesEv) for main_controller::get_un32_pulses()
    main_controller.o(i._ZN15main_controller8qa_stateEv) refers to screen_controller.o(i._ZN11Screen_ctrl20update_pulse_counterEj) for Screen_ctrl::update_pulse_counter(unsigned)
    main_controller.o(i._ZN15main_controller8qa_stateEv) refers to mem_controller.o(i._ZN8Mem_ctrl17check_connectionsEv) for Mem_ctrl::check_connections()
    main_controller.o(i._ZN15main_controller8qa_stateEv) refers to screen_controller.o(i._ZN11Screen_ctrl14update_batteryEjj) for Screen_ctrl::update_battery(unsigned, unsigned)
    main_controller.o(i._ZN15main_controller8qa_stateEv) refers to screen_controller.o(i._ZN11Screen_ctrl15update_pressureEj) for Screen_ctrl::update_pressure(unsigned)
    main_controller.o(i._ZN15main_controller8qa_stateEv) refers to screen_controller.o(i._ZN11Screen_ctrl27update_remaining_in_percentEjj) for Screen_ctrl::update_remaining_in_percent(unsigned, unsigned)
    main_controller.o(i._ZN15main_controller8qa_stateEv) refers to screen_controller.o(i._ZN11Screen_ctrl12update_piazoEb) for Screen_ctrl::update_piazo(bool)
    main_controller.o(i._ZN15main_controller8qa_stateEv) refers to main_controller.o(i._ZN15main_controller13is_b_am_validEv) for main_controller::is_b_am_valid()
    main_controller.o(i._ZN15main_controller8qa_stateEv) refers to main_controller.o(i._ZN15main_controller14is_b_apt_validEv) for main_controller::is_b_apt_valid()
    main_controller.o(i._ZN15main_controller8qa_stateEv) refers to main_controller.o(i._ZN15main_controller14is_b_mcu_validEv) for main_controller::is_b_mcu_valid()
    main_controller.o(i._ZN15main_controller8qa_stateEv) refers to screen_controller.o(i._ZN11Screen_ctrl6qa_monEbbb) for Screen_ctrl::qa_mon(bool, bool, bool)
    main_controller.o(i._ZN15main_controller8qa_stateEv) refers to main_controller.o(i._ZN15main_controller12update_debugEv) for main_controller::update_debug()
    main_controller.o(.ARM.exidx) refers to main_controller.o(i._ZN15main_controller17init_before_whileEv) for i._ZN15main_controller17init_before_whileEv
    main_controller.o(.ARM.exidx) refers to main_controller.o(i._ZN15main_controller19generate_error_codeEv) for i._ZN15main_controller19generate_error_codeEv
    main_controller.o(.ARM.exidx) refers to main_controller.o(i._ZN15main_controller14get_apt_pulsesEv) for i._ZN15main_controller14get_apt_pulsesEv
    main_controller.o(.ARM.exidx) refers to main_controller.o(i._ZN15main_controller7get_allEv) for i._ZN15main_controller7get_allEv
    main_controller.o(.ARM.exidx) refers to main_controller.o(i._ZN15main_controller12update_debugEv) for i._ZN15main_controller12update_debugEv
    main_controller.o(.ARM.exidx) refers to main_controller.o(i._ZN15main_controller10init_stateEv) for i._ZN15main_controller10init_stateEv
    main_controller.o(.ARM.exidx) refers to main_controller.o(i._ZN15main_controller19update_opto_counterEv) for i._ZN15main_controller19update_opto_counterEv
    main_controller.o(.ARM.exidx) refers to main_controller.o(i._ZN15main_controller13added_counterEv) for i._ZN15main_controller13added_counterEv
    main_controller.o(.ARM.exidx) refers to main_controller.o(i._ZN15main_controller20need_to_stall_staticEv) for i._ZN15main_controller20need_to_stall_staticEv
    main_controller.o(.ARM.exidx) refers to main_controller.o(i._ZN15main_controller15fire_is_pressedEv) for i._ZN15main_controller15fire_is_pressedEv
    main_controller.o(.ARM.exidx) refers to main_controller.o(i._ZN15main_controller10idle_stateEv) for i._ZN15main_controller10idle_stateEv
    main_controller.o(.ARM.exidx) refers to main_controller.o(i._ZN15main_controller30write_out_pulses_on_stop_motorEv) for i._ZN15main_controller30write_out_pulses_on_stop_motorEv
    main_controller.o(.ARM.exidx) refers to main_controller.o(i._ZN15main_controller21need_to_stall_dynamicEv) for i._ZN15main_controller21need_to_stall_dynamicEv
    main_controller.o(.ARM.exidx) refers to main_controller.o(i._ZN15main_controller12active_stateEv) for i._ZN15main_controller12active_stateEv
    main_controller.o(.ARM.exidx) refers to main_controller.o(i._ZN15main_controller8qa_stateEv) for i._ZN15main_controller8qa_stateEv
    main_controller.o(.ARM.exidx) refers to main_controller.o(i._ZN15main_controller12update_stateEv) for i._ZN15main_controller12update_stateEv
    main_controller.o(.ARM.exidx) refers to main_controller.o(i._ZN15main_controller14init_PF_structEP9PF_memory) for i._ZN15main_controller14init_PF_structEP9PF_memory
    main_controller.o(.ARM.exidx) refers to main_controller.o(i._ZN15main_controllerC1EP11DebugHelperP8Mem_ctrlP18PeripherialDevicesP5StateP11Screen_ctrlP14adc_controller) for i._ZN15main_controllerC1EP11DebugHelperP8Mem_ctrlP18PeripherialDevicesP5StateP11Screen_ctrlP14adc_controller
    main_controller.o(.ARM.exidx) refers to main_controller.o(i._ZN15main_controllerD1Ev) for i._ZN15main_controllerD1Ev
    main_controller.o(.ARM.exidx) refers to main_controller.o(i._ZN15main_controller22stall_error_write_backEv) for i._ZN15main_controller22stall_error_write_backEv
    mem.o(i._ZN6Memory12print_statusEv) refers to _printf_pad.o(.text) for _printf_pre_padding
    mem.o(i._ZN6Memory12print_statusEv) refers to _printf_percent.o(.ARM.Collect$$_printf_percent$$00000000) for _printf_percent
    mem.o(i._ZN6Memory12print_statusEv) refers to _printf_d.o(.ARM.Collect$$_printf_percent$$00000009) for _printf_d
    mem.o(i._ZN6Memory12print_statusEv) refers to _printf_x.o(.ARM.Collect$$_printf_percent$$0000000C) for _printf_x
    mem.o(i._ZN6Memory12print_statusEv) refers to _printf_dec.o(.text) for _printf_int_dec
    mem.o(i._ZN6Memory12print_statusEv) refers to _printf_hex_int.o(.text) for _printf_longlong_hex
    mem.o(i._ZN6Memory12print_statusEv) refers to noretval__2sprintf.o(.text) for __2sprintf
    mem.o(i._ZN6Memory12print_statusEv) refers to common.o(i._Z16Serial_PutStringPKc) for Serial_PutString(const char*)
    mem.o(i._ZN6Memory12print_statusEv) refers to mem.o(.conststring) for .conststring
    mem.o(i._ZN6Memory12print_statusEv) refers to mem.o(.bss) for .bss
    mem.o(i._ZN6Memory12write_enableEj) refers to stm32f0xx_hal_spi.o(i.HAL_SPI_Transmit) for HAL_SPI_Transmit
    mem.o(i._ZN6Memory12write_enableEj) refers to spi.o(.bss) for hspi1
    mem.o(i._ZN6Memory12write_enableEv) refers to stm32f0xx_hal_spi.o(i.HAL_SPI_Transmit) for HAL_SPI_Transmit
    mem.o(i._ZN6Memory12write_enableEv) refers to spi.o(.bss) for hspi1
    mem.o(i._ZN6Memory13write_disableEv) refers to stm32f0xx_hal_spi.o(i.HAL_SPI_Transmit) for HAL_SPI_Transmit
    mem.o(i._ZN6Memory13write_disableEv) refers to spi.o(.bss) for hspi1
    mem.o(i._ZN6Memory15uint32_to_arrayEjPh) refers to common.o(i.translate_int_to_arr) for translate_int_to_arr
    mem.o(i._ZN6Memory17uint32_to_addressEjPh) refers to common.o(i.translate_int_to_address) for translate_int_to_address
    mem.o(i._ZN6Memory21decorated_read_statusEch) refers to _printf_pad.o(.text) for _printf_pre_padding
    mem.o(i._ZN6Memory21decorated_read_statusEch) refers to _printf_percent.o(.ARM.Collect$$_printf_percent$$00000000) for _printf_percent
    mem.o(i._ZN6Memory21decorated_read_statusEch) refers to _printf_d.o(.ARM.Collect$$_printf_percent$$00000009) for _printf_d
    mem.o(i._ZN6Memory21decorated_read_statusEch) refers to _printf_x.o(.ARM.Collect$$_printf_percent$$0000000C) for _printf_x
    mem.o(i._ZN6Memory21decorated_read_statusEch) refers to _printf_dec.o(.text) for _printf_int_dec
    mem.o(i._ZN6Memory21decorated_read_statusEch) refers to _printf_hex_int.o(.text) for _printf_longlong_hex
    mem.o(i._ZN6Memory21decorated_read_statusEch) refers to stm32f0xx_hal_spi.o(i.HAL_SPI_Transmit) for HAL_SPI_Transmit
    mem.o(i._ZN6Memory21decorated_read_statusEch) refers to stm32f0xx_hal_spi.o(i.HAL_SPI_Receive) for HAL_SPI_Receive
    mem.o(i._ZN6Memory21decorated_read_statusEch) refers to noretval__2sprintf.o(.text) for __2sprintf
    mem.o(i._ZN6Memory21decorated_read_statusEch) refers to common.o(i._Z16Serial_PutStringPKc) for Serial_PutString(const char*)
    mem.o(i._ZN6Memory21decorated_read_statusEch) refers to spi.o(.bss) for hspi1
    mem.o(i._ZN6Memory21decorated_read_statusEch) refers to mem.o(.conststring) for .conststring
    mem.o(i._ZN6Memory21decorated_read_statusEch) refers to mem.o(.bss) for .bss
    mem.o(i._ZN6Memory21read_buffer_to_uint32EPh) refers to common.o(i.translate_address_to_int) for translate_address_to_int
    mem.o(i._ZN6Memory21read_status_register1Ev) refers to stm32f0xx_hal_spi.o(i.HAL_SPI_Transmit) for HAL_SPI_Transmit
    mem.o(i._ZN6Memory21read_status_register1Ev) refers to stm32f0xx_hal_spi.o(i.HAL_SPI_Receive) for HAL_SPI_Receive
    mem.o(i._ZN6Memory21read_status_register1Ev) refers to spi.o(.bss) for hspi1
    mem.o(i._ZN6Memory21read_status_register2Ev) refers to stm32f0xx_hal_spi.o(i.HAL_SPI_Transmit) for HAL_SPI_Transmit
    mem.o(i._ZN6Memory21read_status_register2Ev) refers to stm32f0xx_hal_spi.o(i.HAL_SPI_Receive) for HAL_SPI_Receive
    mem.o(i._ZN6Memory21read_status_register2Ev) refers to spi.o(.bss) for hspi1
    mem.o(i._ZN6Memory21write_status_registerEt) refers to stm32f0xx_hal_spi.o(i.HAL_SPI_Transmit) for HAL_SPI_Transmit
    mem.o(i._ZN6Memory21write_status_registerEt) refers to spi.o(.bss) for hspi1
    mem.o(i._ZN6Memory4readEj) refers to stm32f0xx_hal_spi.o(i.HAL_SPI_Transmit) for HAL_SPI_Transmit
    mem.o(i._ZN6Memory4readEj) refers to common.o(i.translate_int_to_address) for translate_int_to_address
    mem.o(i._ZN6Memory4readEj) refers to stm32f0xx_hal_spi.o(i.HAL_SPI_Receive) for HAL_SPI_Receive
    mem.o(i._ZN6Memory4readEj) refers to common.o(i.translate_address_to_int) for translate_address_to_int
    mem.o(i._ZN6Memory4readEj) refers to spi.o(.bss) for hspi1
    mem.o(i._ZN6Memory5eraseEj) refers to stm32f0xx_hal_spi.o(i.HAL_SPI_Transmit) for HAL_SPI_Transmit
    mem.o(i._ZN6Memory5eraseEj) refers to common.o(i.translate_int_to_address) for translate_int_to_address
    mem.o(i._ZN6Memory5eraseEj) refers to spi.o(.bss) for hspi1
    mem.o(i._ZN6Memory5eraseEv) refers to stm32f0xx_hal_spi.o(i.HAL_SPI_Transmit) for HAL_SPI_Transmit
    mem.o(i._ZN6Memory5eraseEv) refers to spi.o(.bss) for hspi1
    mem.o(i._ZN6Memory5writeEjj) refers to common.o(i.translate_int_to_address) for translate_int_to_address
    mem.o(i._ZN6Memory5writeEjj) refers to common.o(i.translate_int_to_arr) for translate_int_to_arr
    mem.o(i._ZN6Memory5writeEjj) refers to stm32f0xx_hal_spi.o(i.HAL_SPI_Transmit) for HAL_SPI_Transmit
    mem.o(i._ZN6Memory5writeEjj) refers to spi.o(.bss) for hspi1
    mem.o(i._ZN6Memory6get_idEv) refers to stm32f0xx_hal_spi.o(i.HAL_SPI_Transmit) for HAL_SPI_Transmit
    mem.o(i._ZN6Memory6get_idEv) refers to stm32f0xx_hal_spi.o(i.HAL_SPI_Receive) for HAL_SPI_Receive
    mem.o(i._ZN6Memory6get_idEv) refers to spi.o(.bss) for hspi1
    mem.o(i._ZN6Memory6read16Ej) refers to _printf_pad.o(.text) for _printf_pre_padding
    mem.o(i._ZN6Memory6read16Ej) refers to _printf_percent.o(.ARM.Collect$$_printf_percent$$00000000) for _printf_percent
    mem.o(i._ZN6Memory6read16Ej) refers to _printf_x.o(.ARM.Collect$$_printf_percent$$0000000C) for _printf_x
    mem.o(i._ZN6Memory6read16Ej) refers to _printf_hex_int.o(.text) for _printf_longlong_hex
    mem.o(i._ZN6Memory6read16Ej) refers to common.o(i.translate_int_to_arr) for translate_int_to_arr
    mem.o(i._ZN6Memory6read16Ej) refers to noretval__2sprintf.o(.text) for __2sprintf
    mem.o(i._ZN6Memory6read16Ej) refers to common.o(i._Z16Serial_PutStringPKc) for Serial_PutString(const char*)
    mem.o(i._ZN6Memory6read16Ej) refers to stm32f0xx_hal_spi.o(i.HAL_SPI_Transmit) for HAL_SPI_Transmit
    mem.o(i._ZN6Memory6read16Ej) refers to common.o(i.delay) for delay
    mem.o(i._ZN6Memory6read16Ej) refers to stm32f0xx_hal_spi.o(i.HAL_SPI_Receive) for HAL_SPI_Receive
    mem.o(i._ZN6Memory6read16Ej) refers to spi.o(.bss) for hspi1
    mem.o(i._ZN6Memory6read16Ej) refers to mem.o(.bss) for .bss
    mem.o(i._ZN6Memory8check_idEv) refers to mem.o(i._ZN6Memory6get_idEv) for Memory::get_id()
    mem.o(i._ZN6MemoryC1Eh) refers to noretval__2sprintf.o(.text) for __2sprintf
    mem.o(.ARM.exidx) refers to mem.o(i._ZN6MemoryC1Eh) for i._ZN6MemoryC1Eh
    mem.o(.ARM.exidx) refers to mem.o(i._ZN6MemoryD1Ev) for i._ZN6MemoryD1Ev
    mem.o(.ARM.exidx) refers to mem.o(i._ZN6Memory12print_statusEv) for i._ZN6Memory12print_statusEv
    mem.o(.ARM.exidx) refers to mem.o(i._ZN6Memory17uint32_to_addressEjPh) for i._ZN6Memory17uint32_to_addressEjPh
    mem.o(.ARM.exidx) refers to mem.o(i._ZN6Memory5eraseEj) for i._ZN6Memory5eraseEj
    mem.o(.ARM.exidx) refers to mem.o(i._ZN6Memory5eraseEv) for i._ZN6Memory5eraseEv
    mem.o(.ARM.exidx) refers to mem.o(i._ZN6Memory13write_disableEv) for i._ZN6Memory13write_disableEv
    mem.o(.ARM.exidx) refers to mem.o(i._ZN6Memory12write_enableEv) for i._ZN6Memory12write_enableEv
    mem.o(.ARM.exidx) refers to mem.o(i._ZN6Memory12write_enableEj) for i._ZN6Memory12write_enableEj
    mem.o(.ARM.exidx) refers to mem.o(i._ZN6Memory21read_status_register1Ev) for i._ZN6Memory21read_status_register1Ev
    mem.o(.ARM.exidx) refers to mem.o(i._ZN6Memory21read_status_register2Ev) for i._ZN6Memory21read_status_register2Ev
    mem.o(.ARM.exidx) refers to mem.o(i._ZN6Memory21decorated_read_statusEch) for i._ZN6Memory21decorated_read_statusEch
    mem.o(.ARM.exidx) refers to mem.o(i._ZN6Memory21write_status_registerEt) for i._ZN6Memory21write_status_registerEt
    mem.o(.ARM.exidx) refers to mem.o(i._ZN6Memory4readEj) for i._ZN6Memory4readEj
    mem.o(.ARM.exidx) refers to mem.o(i._ZN6Memory15uint32_to_arrayEjPh) for i._ZN6Memory15uint32_to_arrayEjPh
    mem.o(.ARM.exidx) refers to mem.o(i._ZN6Memory6read16Ej) for i._ZN6Memory6read16Ej
    mem.o(.ARM.exidx) refers to mem.o(i._ZN6Memory6get_idEv) for i._ZN6Memory6get_idEv
    mem.o(.ARM.exidx) refers to mem.o(i._ZN6Memory8check_idEv) for i._ZN6Memory8check_idEv
    mem.o(.ARM.exidx) refers to mem.o(i._ZN6Memory5writeEjj) for i._ZN6Memory5writeEjj
    mem.o(.ARM.exidx) refers to mem.o(i._ZN6Memory21read_buffer_to_uint32EPh) for i._ZN6Memory21read_buffer_to_uint32EPh
    mem_controller.o(i._ZN8Mem_ctrl10get_serialEh) refers to _printf_percent.o(.ARM.Collect$$_printf_percent$$00000000) for _printf_percent
    mem_controller.o(i._ZN8Mem_ctrl10get_serialEh) refers to _printf_d.o(.ARM.Collect$$_printf_percent$$00000009) for _printf_d
    mem_controller.o(i._ZN8Mem_ctrl10get_serialEh) refers to _printf_dec.o(.text) for _printf_int_dec
    mem_controller.o(i._ZN8Mem_ctrl10get_serialEh) refers to mem_controller.o(i._ZN8Mem_ctrl16chip_select_pullEh13GPIO_PinState) for Mem_ctrl::chip_select_pull(unsigned char, GPIO_PinState)
    mem_controller.o(i._ZN8Mem_ctrl10get_serialEh) refers to mem.o(i._ZN6Memory4readEj) for Memory::read(unsigned)
    mem_controller.o(i._ZN8Mem_ctrl10get_serialEh) refers to noretval__2sprintf.o(.text) for __2sprintf
    mem_controller.o(i._ZN8Mem_ctrl10get_serialEh) refers to common.o(i._Z16Serial_PutStringPKc) for Serial_PutString(const char*)
    mem_controller.o(i._ZN8Mem_ctrl10get_serialEh) refers to mem_controller.o(.bss) for .bss
    mem_controller.o(i._ZN8Mem_ctrl10get_serialEv) refers to stm32f0xx_hal.o(i.HAL_Delay) for HAL_Delay
    mem_controller.o(i._ZN8Mem_ctrl10get_serialEv) refers to mem_controller.o(i._ZN8Mem_ctrl10get_serialEh) for Mem_ctrl::get_serial(unsigned char)
    mem_controller.o(i._ZN8Mem_ctrl10write_onceEhjj) refers to _printf_pad.o(.text) for _printf_pre_padding
    mem_controller.o(i._ZN8Mem_ctrl10write_onceEhjj) refers to _printf_percent.o(.ARM.Collect$$_printf_percent$$00000000) for _printf_percent
    mem_controller.o(i._ZN8Mem_ctrl10write_onceEhjj) refers to _printf_d.o(.ARM.Collect$$_printf_percent$$00000009) for _printf_d
    mem_controller.o(i._ZN8Mem_ctrl10write_onceEhjj) refers to _printf_x.o(.ARM.Collect$$_printf_percent$$0000000C) for _printf_x
    mem_controller.o(i._ZN8Mem_ctrl10write_onceEhjj) refers to _printf_dec.o(.text) for _printf_int_dec
    mem_controller.o(i._ZN8Mem_ctrl10write_onceEhjj) refers to _printf_hex_int.o(.text) for _printf_longlong_hex
    mem_controller.o(i._ZN8Mem_ctrl10write_onceEhjj) refers to mem_controller.o(i._ZN8Mem_ctrl16chip_select_pullEh13GPIO_PinState) for Mem_ctrl::chip_select_pull(unsigned char, GPIO_PinState)
    mem_controller.o(i._ZN8Mem_ctrl10write_onceEhjj) refers to mem.o(i._ZN6Memory12write_enableEv) for Memory::write_enable()
    mem_controller.o(i._ZN8Mem_ctrl10write_onceEhjj) refers to stm32f0xx_hal.o(i.HAL_Delay) for HAL_Delay
    mem_controller.o(i._ZN8Mem_ctrl10write_onceEhjj) refers to mem.o(i._ZN6Memory5writeEjj) for Memory::write(unsigned, unsigned)
    mem_controller.o(i._ZN8Mem_ctrl10write_onceEhjj) refers to mem_controller.o(i._ZN8Mem_ctrl13poll_completeEhj) for Mem_ctrl::poll_complete(unsigned char, unsigned)
    mem_controller.o(i._ZN8Mem_ctrl10write_onceEhjj) refers to common.o(i._Z16Serial_PutStringPKc) for Serial_PutString(const char*)
    mem_controller.o(i._ZN8Mem_ctrl10write_onceEhjj) refers to mem.o(i._ZN6Memory12print_statusEv) for Memory::print_status()
    mem_controller.o(i._ZN8Mem_ctrl10write_onceEhjj) refers to mem.o(i._ZN6Memory13write_disableEv) for Memory::write_disable()
    mem_controller.o(i._ZN8Mem_ctrl10write_onceEhjj) refers to mem_controller.o(i._ZN8Mem_ctrl4readEhj) for Mem_ctrl::read(unsigned char, unsigned)
    mem_controller.o(i._ZN8Mem_ctrl10write_onceEhjj) refers to noretval__2sprintf.o(.text) for __2sprintf
    mem_controller.o(i._ZN8Mem_ctrl10write_onceEhjj) refers to mem_controller.o(.bss) for .bss
    mem_controller.o(i._ZN8Mem_ctrl13get_ap_offsetEv) refers to mem_controller.o(i._ZN8Mem_ctrl18read_skip_problemsEhj) for Mem_ctrl::read_skip_problems(unsigned char, unsigned)
    mem_controller.o(i._ZN8Mem_ctrl13get_ap_offsetEv) refers to noretval__2sprintf.o(.text) for __2sprintf
    mem_controller.o(i._ZN8Mem_ctrl13get_ap_offsetEv) refers to common.o(i._Z16Serial_PutStringPKc) for Serial_PutString(const char*)
    mem_controller.o(i._ZN8Mem_ctrl13get_ap_offsetEv) refers to aeabi_sdiv.o(.text) for __aeabi_idivmod
    mem_controller.o(i._ZN8Mem_ctrl13get_ap_offsetEv) refers to stm32f0xx_hal_gpio.o(i.HAL_GPIO_TogglePin) for HAL_GPIO_TogglePin
    mem_controller.o(i._ZN8Mem_ctrl13poll_completeEhj) refers to _printf_percent.o(.ARM.Collect$$_printf_percent$$00000000) for _printf_percent
    mem_controller.o(i._ZN8Mem_ctrl13poll_completeEhj) refers to _printf_s.o(.ARM.Collect$$_printf_percent$$00000014) for _printf_s
    mem_controller.o(i._ZN8Mem_ctrl13poll_completeEhj) refers to _printf_str.o(.text) for _printf_str
    mem_controller.o(i._ZN8Mem_ctrl13poll_completeEhj) refers to mem_controller.o(i._ZN8Mem_ctrl16chip_select_pullEh13GPIO_PinState) for Mem_ctrl::chip_select_pull(unsigned char, GPIO_PinState)
    mem_controller.o(i._ZN8Mem_ctrl13poll_completeEhj) refers to stm32f0xx_hal.o(i.HAL_GetTick) for HAL_GetTick
    mem_controller.o(i._ZN8Mem_ctrl13poll_completeEhj) refers to mem.o(i._ZN6Memory21read_status_register1Ev) for Memory::read_status_register1()
    mem_controller.o(i._ZN8Mem_ctrl13poll_completeEhj) refers to stm32f0xx_hal.o(i.HAL_Delay) for HAL_Delay
    mem_controller.o(i._ZN8Mem_ctrl13poll_completeEhj) refers to noretval__2sprintf.o(.text) for __2sprintf
    mem_controller.o(i._ZN8Mem_ctrl13poll_completeEhj) refers to common.o(i._Z16Serial_PutStringPKc) for Serial_PutString(const char*)
    mem_controller.o(i._ZN8Mem_ctrl13poll_completeEhj) refers to main.o(.bss) for aPacketData
    mem_controller.o(i._ZN8Mem_ctrl14print_registerEh) refers to mem_controller.o(i._ZN8Mem_ctrl16chip_select_pullEh13GPIO_PinState) for Mem_ctrl::chip_select_pull(unsigned char, GPIO_PinState)
    mem_controller.o(i._ZN8Mem_ctrl14print_registerEh) refers to mem.o(i._ZN6Memory21read_status_register1Ev) for Memory::read_status_register1()
    mem_controller.o(i._ZN8Mem_ctrl14print_registerEh) refers to stm32f0xx_hal.o(i.HAL_Delay) for HAL_Delay
    mem_controller.o(i._ZN8Mem_ctrl14print_registerEh) refers to mem.o(i._ZN6Memory21read_status_register2Ev) for Memory::read_status_register2()
    mem_controller.o(i._ZN8Mem_ctrl14print_registerEh) refers to mem.o(i._ZN6Memory12print_statusEv) for Memory::print_status()
    mem_controller.o(i._ZN8Mem_ctrl14write_registerEht) refers to mem_controller.o(i._ZN8Mem_ctrl16chip_select_pullEh13GPIO_PinState) for Mem_ctrl::chip_select_pull(unsigned char, GPIO_PinState)
    mem_controller.o(i._ZN8Mem_ctrl14write_registerEht) refers to mem.o(i._ZN6Memory12write_enableEv) for Memory::write_enable()
    mem_controller.o(i._ZN8Mem_ctrl14write_registerEht) refers to stm32f0xx_hal.o(i.HAL_Delay) for HAL_Delay
    mem_controller.o(i._ZN8Mem_ctrl14write_registerEht) refers to mem.o(i._ZN6Memory21write_status_registerEt) for Memory::write_status_register(unsigned short)
    mem_controller.o(i._ZN8Mem_ctrl16binary_and_patchEv) refers to _printf_pad.o(.text) for _printf_pre_padding
    mem_controller.o(i._ZN8Mem_ctrl16binary_and_patchEv) refers to _printf_percent.o(.ARM.Collect$$_printf_percent$$00000000) for _printf_percent
    mem_controller.o(i._ZN8Mem_ctrl16binary_and_patchEv) refers to _printf_x.o(.ARM.Collect$$_printf_percent$$0000000C) for _printf_x
    mem_controller.o(i._ZN8Mem_ctrl16binary_and_patchEv) refers to _printf_hex_int.o(.text) for _printf_longlong_hex
    mem_controller.o(i._ZN8Mem_ctrl16binary_and_patchEv) refers to _printf_d.o(.ARM.Collect$$_printf_percent$$00000009) for _printf_d
    mem_controller.o(i._ZN8Mem_ctrl16binary_and_patchEv) refers to _printf_dec.o(.text) for _printf_int_dec
    mem_controller.o(i._ZN8Mem_ctrl16binary_and_patchEv) refers to mem_controller.o(i._ZN8Mem_ctrl13get_ap_offsetEv) for Mem_ctrl::get_ap_offset()
    mem_controller.o(i._ZN8Mem_ctrl16binary_and_patchEv) refers to noretval__2sprintf.o(.text) for __2sprintf
    mem_controller.o(i._ZN8Mem_ctrl16binary_and_patchEv) refers to common.o(i._Z16Serial_PutStringPKc) for Serial_PutString(const char*)
    mem_controller.o(i._ZN8Mem_ctrl16binary_and_patchEv) refers to mem_controller.o(i._ZN8Mem_ctrl4readEhj) for Mem_ctrl::read(unsigned char, unsigned)
    mem_controller.o(i._ZN8Mem_ctrl16binary_and_patchEv) refers to mem_controller.o(i._ZN8Mem_ctrl5writeEhjj) for Mem_ctrl::write(unsigned char, unsigned, unsigned)
    mem_controller.o(i._ZN8Mem_ctrl16binary_and_patchEv) refers to mem_controller.o(i._ZN8Mem_ctrl5eraseEh) for Mem_ctrl::erase(unsigned char)
    mem_controller.o(i._ZN8Mem_ctrl16binary_and_patchEv) refers to stm32f0xx_hal.o(i.HAL_Delay) for HAL_Delay
    mem_controller.o(i._ZN8Mem_ctrl16chip_select_pullEh13GPIO_PinState) refers to cs_register.o(i._ZN6CS_reg3cs1E13GPIO_PinState) for CS_reg::cs1(GPIO_PinState)
    mem_controller.o(i._ZN8Mem_ctrl16chip_select_pullEh13GPIO_PinState) refers to cs_register.o(i._ZN6CS_reg3cs2E13GPIO_PinState) for CS_reg::cs2(GPIO_PinState)
    mem_controller.o(i._ZN8Mem_ctrl16chip_select_pullEh13GPIO_PinState) refers to cs_register.o(i._ZN6CS_reg3cs3E13GPIO_PinState) for CS_reg::cs3(GPIO_PinState)
    mem_controller.o(i._ZN8Mem_ctrl17check_connectionsEh) refers to mem_controller.o(i._ZN8Mem_ctrl16chip_select_pullEh13GPIO_PinState) for Mem_ctrl::chip_select_pull(unsigned char, GPIO_PinState)
    mem_controller.o(i._ZN8Mem_ctrl17check_connectionsEh) refers to mem.o(i._ZN6Memory8check_idEv) for Memory::check_id()
    mem_controller.o(i._ZN8Mem_ctrl17check_connectionsEv) refers to stm32f0xx_hal_gpio.o(i.HAL_GPIO_TogglePin) for HAL_GPIO_TogglePin
    mem_controller.o(i._ZN8Mem_ctrl17check_connectionsEv) refers to mem_controller.o(i._ZN8Mem_ctrl17check_connectionsEh) for Mem_ctrl::check_connections(unsigned char)
    mem_controller.o(i._ZN8Mem_ctrl17check_connectionsEv) refers to stm32f0xx_hal.o(i.HAL_Delay) for HAL_Delay
    mem_controller.o(i._ZN8Mem_ctrl18read_skip_problemsEhj) refers to mem_controller.o(i._ZN8Mem_ctrl9read_onceEhj) for Mem_ctrl::read_once(unsigned char, unsigned)
    mem_controller.o(i._ZN8Mem_ctrl20read_back_current_csEv) refers to cs_register.o(i._ZN6CS_reg20read_back_current_csEv) for CS_reg::read_back_current_cs()
    mem_controller.o(i._ZN8Mem_ctrl32check_connections_with_printbackEh) refers to _printf_pad.o(.text) for _printf_pre_padding
    mem_controller.o(i._ZN8Mem_ctrl32check_connections_with_printbackEh) refers to _printf_percent.o(.ARM.Collect$$_printf_percent$$00000000) for _printf_percent
    mem_controller.o(i._ZN8Mem_ctrl32check_connections_with_printbackEh) refers to _printf_d.o(.ARM.Collect$$_printf_percent$$00000009) for _printf_d
    mem_controller.o(i._ZN8Mem_ctrl32check_connections_with_printbackEh) refers to _printf_x.o(.ARM.Collect$$_printf_percent$$0000000C) for _printf_x
    mem_controller.o(i._ZN8Mem_ctrl32check_connections_with_printbackEh) refers to _printf_dec.o(.text) for _printf_int_dec
    mem_controller.o(i._ZN8Mem_ctrl32check_connections_with_printbackEh) refers to _printf_hex_int.o(.text) for _printf_longlong_hex
    mem_controller.o(i._ZN8Mem_ctrl32check_connections_with_printbackEh) refers to mem_controller.o(i._ZN8Mem_ctrl16chip_select_pullEh13GPIO_PinState) for Mem_ctrl::chip_select_pull(unsigned char, GPIO_PinState)
    mem_controller.o(i._ZN8Mem_ctrl32check_connections_with_printbackEh) refers to mem.o(i._ZN6Memory8check_idEv) for Memory::check_id()
    mem_controller.o(i._ZN8Mem_ctrl32check_connections_with_printbackEh) refers to noretval__2sprintf.o(.text) for __2sprintf
    mem_controller.o(i._ZN8Mem_ctrl32check_connections_with_printbackEh) refers to common.o(i._Z16Serial_PutStringPKc) for Serial_PutString(const char*)
    mem_controller.o(i._ZN8Mem_ctrl32check_connections_with_printbackEh) refers to main.o(.bss) for aPacketData
    mem_controller.o(i._ZN8Mem_ctrl4readEhj) refers to mem_controller.o(i._ZN8Mem_ctrl9read_onceEhj) for Mem_ctrl::read_once(unsigned char, unsigned)
    mem_controller.o(i._ZN8Mem_ctrl5eraseEh) refers to mem_controller.o(i._ZN8Mem_ctrl16chip_select_pullEh13GPIO_PinState) for Mem_ctrl::chip_select_pull(unsigned char, GPIO_PinState)
    mem_controller.o(i._ZN8Mem_ctrl5eraseEh) refers to mem.o(i._ZN6Memory12write_enableEv) for Memory::write_enable()
    mem_controller.o(i._ZN8Mem_ctrl5eraseEh) refers to stm32f0xx_hal.o(i.HAL_Delay) for HAL_Delay
    mem_controller.o(i._ZN8Mem_ctrl5eraseEh) refers to mem.o(i._ZN6Memory5eraseEv) for Memory::erase()
    mem_controller.o(i._ZN8Mem_ctrl5eraseEhj) refers to mem_controller.o(i._ZN8Mem_ctrl16chip_select_pullEh13GPIO_PinState) for Mem_ctrl::chip_select_pull(unsigned char, GPIO_PinState)
    mem_controller.o(i._ZN8Mem_ctrl5eraseEhj) refers to mem.o(i._ZN6Memory12write_enableEv) for Memory::write_enable()
    mem_controller.o(i._ZN8Mem_ctrl5eraseEhj) refers to stm32f0xx_hal.o(i.HAL_Delay) for HAL_Delay
    mem_controller.o(i._ZN8Mem_ctrl5eraseEhj) refers to mem.o(i._ZN6Memory5eraseEj) for Memory::erase(unsigned)
    mem_controller.o(i._ZN8Mem_ctrl5writeEhjj) refers to mem_controller.o(i._ZN8Mem_ctrl10write_onceEhjj) for Mem_ctrl::write_once(unsigned char, unsigned, unsigned)
    mem_controller.o(i._ZN8Mem_ctrl7get_maxEh) refers to mem_controller.o(i._ZN8Mem_ctrl16chip_select_pullEh13GPIO_PinState) for Mem_ctrl::chip_select_pull(unsigned char, GPIO_PinState)
    mem_controller.o(i._ZN8Mem_ctrl7get_maxEh) refers to mem.o(i._ZN6Memory4readEj) for Memory::read(unsigned)
    mem_controller.o(i._ZN8Mem_ctrl7get_maxEv) refers to mem_controller.o(i._ZN8Mem_ctrl7get_maxEh) for Mem_ctrl::get_max(unsigned char)
    mem_controller.o(i._ZN8Mem_ctrl7get_maxEv) refers to stm32f0xx_hal.o(i.HAL_Delay) for HAL_Delay
    mem_controller.o(i._ZN8Mem_ctrl7read256Ehj) refers to mem_controller.o(i._ZN8Mem_ctrl16chip_select_pullEh13GPIO_PinState) for Mem_ctrl::chip_select_pull(unsigned char, GPIO_PinState)
    mem_controller.o(i._ZN8Mem_ctrl7read256Ehj) refers to mem.o(i._ZN6Memory6read16Ej) for Memory::read16(unsigned)
    mem_controller.o(i._ZN8Mem_ctrl7read256Ehj) refers to common.o(i.delay) for delay
    mem_controller.o(i._ZN8Mem_ctrl8get_dateEh) refers to mem_controller.o(i._ZN8Mem_ctrl16chip_select_pullEh13GPIO_PinState) for Mem_ctrl::chip_select_pull(unsigned char, GPIO_PinState)
    mem_controller.o(i._ZN8Mem_ctrl8get_dateEh) refers to mem.o(i._ZN6Memory4readEj) for Memory::read(unsigned)
    mem_controller.o(i._ZN8Mem_ctrl8get_dateEv) refers to mem_controller.o(i._ZN8Mem_ctrl8get_dateEh) for Mem_ctrl::get_date(unsigned char)
    mem_controller.o(i._ZN8Mem_ctrl8get_dateEv) refers to stm32f0xx_hal.o(i.HAL_Delay) for HAL_Delay
    mem_controller.o(i._ZN8Mem_ctrl9LOG_DEBUGEjjjj) refers to mem_controller.o(i._ZN8Mem_ctrl9LOG_WRITEE13stall_log_out) for Mem_ctrl::LOG_WRITE(stall_log_out)
    mem_controller.o(i._ZN8Mem_ctrl9LOG_WRITEE13stall_log_out) refers to mem_controller.o(i._ZN8Mem_ctrl4readEhj) for Mem_ctrl::read(unsigned char, unsigned)
    mem_controller.o(i._ZN8Mem_ctrl9LOG_WRITEE13stall_log_out) refers to mem_controller.o(i._ZN8Mem_ctrl16chip_select_pullEh13GPIO_PinState) for Mem_ctrl::chip_select_pull(unsigned char, GPIO_PinState)
    mem_controller.o(i._ZN8Mem_ctrl9LOG_WRITEE13stall_log_out) refers to mem.o(i._ZN6Memory12write_enableEv) for Memory::write_enable()
    mem_controller.o(i._ZN8Mem_ctrl9LOG_WRITEE13stall_log_out) refers to common.o(i.delay) for delay
    mem_controller.o(i._ZN8Mem_ctrl9LOG_WRITEE13stall_log_out) refers to stm32f0xx_hal_spi.o(i.HAL_SPI_Transmit) for HAL_SPI_Transmit
    mem_controller.o(i._ZN8Mem_ctrl9LOG_WRITEE13stall_log_out) refers to common.o(i.translate_int_to_address) for translate_int_to_address
    mem_controller.o(i._ZN8Mem_ctrl9LOG_WRITEE13stall_log_out) refers to spi.o(.bss) for hspi1
    mem_controller.o(i._ZN8Mem_ctrl9read_onceEhj) refers to mem_controller.o(i._ZN8Mem_ctrl16chip_select_pullEh13GPIO_PinState) for Mem_ctrl::chip_select_pull(unsigned char, GPIO_PinState)
    mem_controller.o(i._ZN8Mem_ctrl9read_onceEhj) refers to mem.o(i._ZN6Memory4readEj) for Memory::read(unsigned)
    mem_controller.o(.ARM.exidx) refers to mem_controller.o(i._ZN8Mem_ctrlC1EP6MemoryS1_S1_P6CS_reg) for i._ZN8Mem_ctrlC1EP6MemoryS1_S1_P6CS_reg
    mem_controller.o(.ARM.exidx) refers to mem_controller.o(i._ZN8Mem_ctrlD1Ev) for i._ZN8Mem_ctrlD1Ev
    mem_controller.o(.ARM.exidx) refers to mem_controller.o(i._ZN8Mem_ctrl16chip_select_pullEh13GPIO_PinState) for i._ZN8Mem_ctrl16chip_select_pullEh13GPIO_PinState
    mem_controller.o(.ARM.exidx) refers to mem_controller.o(i._ZN8Mem_ctrl17check_connectionsEh) for i._ZN8Mem_ctrl17check_connectionsEh
    mem_controller.o(.ARM.exidx) refers to mem_controller.o(i._ZN8Mem_ctrl17check_connectionsEv) for i._ZN8Mem_ctrl17check_connectionsEv
    mem_controller.o(.ARM.exidx) refers to mem_controller.o(i._ZN8Mem_ctrl13poll_completeEhj) for i._ZN8Mem_ctrl13poll_completeEhj
    mem_controller.o(.ARM.exidx) refers to mem_controller.o(i._ZN8Mem_ctrl9read_onceEhj) for i._ZN8Mem_ctrl9read_onceEhj
    mem_controller.o(.ARM.exidx) refers to mem_controller.o(i._ZN8Mem_ctrl4readEhj) for i._ZN8Mem_ctrl4readEhj
    mem_controller.o(.ARM.exidx) refers to mem_controller.o(i._ZN8Mem_ctrl10write_onceEhjj) for i._ZN8Mem_ctrl10write_onceEhjj
    mem_controller.o(.ARM.exidx) refers to mem_controller.o(i._ZN8Mem_ctrl5writeEhjj) for i._ZN8Mem_ctrl5writeEhjj
    mem_controller.o(.ARM.exidx) refers to mem_controller.o(i._ZN8Mem_ctrl18read_skip_problemsEhj) for i._ZN8Mem_ctrl18read_skip_problemsEhj
    mem_controller.o(.ARM.exidx) refers to mem_controller.o(i._ZN8Mem_ctrl7read256Ehj) for i._ZN8Mem_ctrl7read256Ehj
    mem_controller.o(.ARM.exidx) refers to mem_controller.o(i._ZN8Mem_ctrl14print_registerEh) for i._ZN8Mem_ctrl14print_registerEh
    mem_controller.o(.ARM.exidx) refers to mem_controller.o(i._ZN8Mem_ctrl14write_registerEht) for i._ZN8Mem_ctrl14write_registerEht
    mem_controller.o(.ARM.exidx) refers to mem_controller.o(i._ZN8Mem_ctrl5eraseEhj) for i._ZN8Mem_ctrl5eraseEhj
    mem_controller.o(.ARM.exidx) refers to mem_controller.o(i._ZN8Mem_ctrl5eraseEh) for i._ZN8Mem_ctrl5eraseEh
    mem_controller.o(.ARM.exidx) refers to mem_controller.o(i._ZN8Mem_ctrl20read_back_current_csEv) for i._ZN8Mem_ctrl20read_back_current_csEv
    mem_controller.o(.ARM.exidx) refers to mem_controller.o(i._ZN8Mem_ctrl9LOG_WRITEE13stall_log_out) for i._ZN8Mem_ctrl9LOG_WRITEE13stall_log_out
    mem_controller.o(.ARM.exidx) refers to mem_controller.o(i._ZN8Mem_ctrl9LOG_DEBUGEjjjj) for i._ZN8Mem_ctrl9LOG_DEBUGEjjjj
    mem_controller.o(.ARM.exidx) refers to mem_controller.o(i._ZN8Mem_ctrl10get_serialEh) for i._ZN8Mem_ctrl10get_serialEh
    mem_controller.o(.ARM.exidx) refers to mem_controller.o(i._ZN8Mem_ctrl10get_serialEv) for i._ZN8Mem_ctrl10get_serialEv
    mem_controller.o(.ARM.exidx) refers to mem_controller.o(i._ZN8Mem_ctrl7get_maxEh) for i._ZN8Mem_ctrl7get_maxEh
    mem_controller.o(.ARM.exidx) refers to mem_controller.o(i._ZN8Mem_ctrl7get_maxEv) for i._ZN8Mem_ctrl7get_maxEv
    mem_controller.o(.ARM.exidx) refers to mem_controller.o(i._ZN8Mem_ctrl8get_dateEh) for i._ZN8Mem_ctrl8get_dateEh
    mem_controller.o(.ARM.exidx) refers to mem_controller.o(i._ZN8Mem_ctrl8get_dateEv) for i._ZN8Mem_ctrl8get_dateEv
    mem_controller.o(.ARM.exidx) refers to mem_controller.o(i._ZN8Mem_ctrl13get_ap_offsetEv) for i._ZN8Mem_ctrl13get_ap_offsetEv
    mem_controller.o(.ARM.exidx) refers to mem_controller.o(i._ZN8Mem_ctrl16binary_and_patchEv) for i._ZN8Mem_ctrl16binary_and_patchEv
    mem_controller.o(.ARM.exidx) refers to mem_controller.o(i._ZN8Mem_ctrl32check_connections_with_printbackEh) for i._ZN8Mem_ctrl32check_connections_with_printbackEh
    menu.o(i._Z8dump_memv) refers to _printf_pad.o(.text) for _printf_pre_padding
    menu.o(i._Z8dump_memv) refers to _printf_percent.o(.ARM.Collect$$_printf_percent$$00000000) for _printf_percent
    menu.o(i._Z8dump_memv) refers to _printf_x.o(.ARM.Collect$$_printf_percent$$0000000C) for _printf_x
    menu.o(i._Z8dump_memv) refers to _printf_hex_int.o(.text) for _printf_longlong_hex
    menu.o(i._Z8dump_memv) refers to noretval__2sprintf.o(.text) for __2sprintf
    menu.o(i._Z8dump_memv) refers to common.o(i._Z16Serial_PutStringPKc) for Serial_PutString(const char*)
    menu.o(i._Z8dump_memv) refers to menu.o(.bss) for .bss
    menu.o(i._Z9Main_Menuv) refers to common.o(i._Z16Serial_PutStringPKc) for Serial_PutString(const char*)
    menu.o(i._Z9Main_Menuv) refers to stm32f0xx_hal_uart.o(i.HAL_UART_Receive) for HAL_UART_Receive
    menu.o(i._Z9Main_Menuv) refers to xmodem.o(i._Z14xmodem_receivev) for xmodem_receive()
    menu.o(i._Z9Main_Menuv) refers to menu.o(i._Z8dump_memv) for dump_mem()
    menu.o(i._Z9Main_Menuv) refers to menu.o(.conststring) for .conststring
    menu.o(i._Z9Main_Menuv) refers to usart.o(.bss) for huart1
    menu.o(.ARM.exidx) refers to menu.o(i._Z8dump_memv) for i._Z8dump_memv
    menu.o(.ARM.exidx) refers to menu.o(i._Z9Main_Menuv) for i._Z9Main_Menuv
    peripherial_controller.o(i._Z12firstSectionv) refers to peripherial_controller.o(i._Z4beepii) for beep(int, int)
    peripherial_controller.o(i._Z12firstSectionv) refers to stm32f0xx_hal.o(i.HAL_Delay) for HAL_Delay
    peripherial_controller.o(i._Z13secondSectionv) refers to peripherial_controller.o(i._Z4beepii) for beep(int, int)
    peripherial_controller.o(i._Z13secondSectionv) refers to stm32f0xx_hal.o(i.HAL_Delay) for HAL_Delay
    peripherial_controller.o(i._Z4beepii) refers to peripherial_controller.o(i._Z4toneii) for tone(int, int)
    peripherial_controller.o(i._Z4beepii) refers to peripherial_controller.o(i._Z6noTonev) for noTone()
    peripherial_controller.o(i._Z4beepii) refers to common.o(i.delay) for delay
    peripherial_controller.o(i._Z4toneii) refers to aeabi_sdiv.o(.text) for __aeabi_idivmod
    peripherial_controller.o(i._Z4toneii) refers to stm32f0xx_hal_gpio.o(i.HAL_GPIO_WritePin) for HAL_GPIO_WritePin
    peripherial_controller.o(i._Z4toneii) refers to common.o(i.delay) for delay
    peripherial_controller.o(i._Z4toneii) refers to tim.o(.bss) for htim3
    peripherial_controller.o(i._Z6noTonev) refers to stm32f0xx_hal_gpio.o(i.HAL_GPIO_WritePin) for HAL_GPIO_WritePin
    peripherial_controller.o(i._ZN18PeripherialDevices10stop_motorEv) refers to cs_register.o(i._ZN6CS_reg15motor_cmd_tightEb) for CS_reg::motor_cmd_tight(bool)
    peripherial_controller.o(i._ZN18PeripherialDevices10stop_motorEv) refers to common.o(i._Z16Serial_PutStringPKc) for Serial_PutString(const char*)
    peripherial_controller.o(i._ZN18PeripherialDevices10stop_motorEv) refers to peripherial_controller.o(.constdata) for .constdata
    peripherial_controller.o(i._ZN18PeripherialDevices11start_motorEv) refers to peripherial_controller.o(i._ZN18PeripherialDevices13clear_counterEv) for PeripherialDevices::clear_counter()
    peripherial_controller.o(i._ZN18PeripherialDevices11start_motorEv) refers to cs_register.o(i._ZN6CS_reg15motor_cmd_tightEb) for CS_reg::motor_cmd_tight(bool)
    peripherial_controller.o(i._ZN18PeripherialDevices11start_motorEv) refers to common.o(i._Z16Serial_PutStringPKc) for Serial_PutString(const char*)
    peripherial_controller.o(i._ZN18PeripherialDevices11start_motorEv) refers to peripherial_controller.o(.constdata) for .constdata
    peripherial_controller.o(i._ZN18PeripherialDevices12read_counterEv) refers to peripherial_controller.o(i._ZN18PeripherialDevices4readEv) for PeripherialDevices::read()
    peripherial_controller.o(i._ZN18PeripherialDevices12toggle_motorEv) refers to peripherial_controller.o(i._ZN18PeripherialDevices10stop_motorEv) for PeripherialDevices::stop_motor()
    peripherial_controller.o(i._ZN18PeripherialDevices12toggle_motorEv) refers to peripherial_controller.o(i._ZN18PeripherialDevices11start_motorEv) for PeripherialDevices::start_motor()
    peripherial_controller.o(i._ZN18PeripherialDevices13clear_counterEv) refers to cs_register.o(i._ZN6CS_reg21cs_clear_opto_counterE13GPIO_PinState) for CS_reg::cs_clear_opto_counter(GPIO_PinState)
    peripherial_controller.o(i._ZN18PeripherialDevices13reverse_motorEv) refers to cs_register.o(i._ZN6CS_reg17motor_cmd_reverseEv) for CS_reg::motor_cmd_reverse()
    peripherial_controller.o(i._ZN18PeripherialDevices15start_motor_pwmEv) refers to cs_register.o(i._ZN6CS_reg15motor_cmd_tightEb) for CS_reg::motor_cmd_tight(bool)
    peripherial_controller.o(i._ZN18PeripherialDevices15start_motor_pwmEv) refers to common.o(i.delay) for delay
    peripherial_controller.o(i._ZN18PeripherialDevices15start_motor_pwmEv) refers to common.o(i._Z16Serial_PutStringPKc) for Serial_PutString(const char*)
    peripherial_controller.o(i._ZN18PeripherialDevices15start_motor_pwmEv) refers to peripherial_controller.o(.constdata) for .constdata
    peripherial_controller.o(i._ZN18PeripherialDevices22read_fire_button_pressEv) refers to peripherial_controller.o(i._ZN18PeripherialDevices4readEv) for PeripherialDevices::read()
    peripherial_controller.o(i._ZN18PeripherialDevices4readEv) refers to cs_register.o(i._ZN6CS_reg9cs_statusE13GPIO_PinState) for CS_reg::cs_status(GPIO_PinState)
    peripherial_controller.o(i._ZN18PeripherialDevices4readEv) refers to status_reg.o(i._ZN10STATUS_reg9get_valueEv) for STATUS_reg::get_value()
    peripherial_controller.o(i._ZN18PeripherialDevices9star_warsEv) refers to peripherial_controller.o(i._Z12firstSectionv) for firstSection()
    peripherial_controller.o(i._ZN18PeripherialDevices9star_warsEv) refers to peripherial_controller.o(i._Z13secondSectionv) for secondSection()
    peripherial_controller.o(i._ZN18PeripherialDevices9star_warsEv) refers to peripherial_controller.o(i._Z4beepii) for beep(int, int)
    peripherial_controller.o(i._ZN18PeripherialDevices9star_warsEv) refers to stm32f0xx_hal.o(i.HAL_Delay) for HAL_Delay
    peripherial_controller.o(.ARM.exidx) refers to peripherial_controller.o(i._Z4toneii) for i._Z4toneii
    peripherial_controller.o(.ARM.exidx) refers to peripherial_controller.o(i._Z6noTonev) for i._Z6noTonev
    peripherial_controller.o(.ARM.exidx) refers to peripherial_controller.o(i._Z4beepii) for i._Z4beepii
    peripherial_controller.o(.ARM.exidx) refers to peripherial_controller.o(i._Z12firstSectionv) for i._Z12firstSectionv
    peripherial_controller.o(.ARM.exidx) refers to peripherial_controller.o(i._Z13secondSectionv) for i._Z13secondSectionv
    peripherial_controller.o(.ARM.exidx) refers to peripherial_controller.o(i._ZN18PeripherialDevicesC1EP6CS_regP10STATUS_reg) for i._ZN18PeripherialDevicesC1EP6CS_regP10STATUS_reg
    peripherial_controller.o(.ARM.exidx) refers to peripherial_controller.o(i._ZN18PeripherialDevicesD1Ev) for i._ZN18PeripherialDevicesD1Ev
    peripherial_controller.o(.ARM.exidx) refers to peripherial_controller.o(i._ZN18PeripherialDevices4readEv) for i._ZN18PeripherialDevices4readEv
    peripherial_controller.o(.ARM.exidx) refers to peripherial_controller.o(i._ZN18PeripherialDevices12read_counterEv) for i._ZN18PeripherialDevices12read_counterEv
    peripherial_controller.o(.ARM.exidx) refers to peripherial_controller.o(i._ZN18PeripherialDevices13clear_counterEv) for i._ZN18PeripherialDevices13clear_counterEv
    peripherial_controller.o(.ARM.exidx) refers to peripherial_controller.o(i._ZN18PeripherialDevices11start_motorEv) for i._ZN18PeripherialDevices11start_motorEv
    peripherial_controller.o(.ARM.exidx) refers to peripherial_controller.o(i._ZN18PeripherialDevices13reverse_motorEv) for i._ZN18PeripherialDevices13reverse_motorEv
    peripherial_controller.o(.ARM.exidx) refers to peripherial_controller.o(i._ZN18PeripherialDevices10stop_motorEv) for i._ZN18PeripherialDevices10stop_motorEv
    peripherial_controller.o(.ARM.exidx) refers to peripherial_controller.o(i._ZN18PeripherialDevices15start_motor_pwmEv) for i._ZN18PeripherialDevices15start_motor_pwmEv
    peripherial_controller.o(.ARM.exidx) refers to peripherial_controller.o(i._ZN18PeripherialDevices22read_fire_button_pressEv) for i._ZN18PeripherialDevices22read_fire_button_pressEv
    peripherial_controller.o(.ARM.exidx) refers to peripherial_controller.o(i._ZN18PeripherialDevices9star_warsEv) for i._ZN18PeripherialDevices9star_warsEv
    peripherial_controller.o(.ARM.exidx) refers to peripherial_controller.o(i._ZN18PeripherialDevices12toggle_motorEv) for i._ZN18PeripherialDevices12toggle_motorEv
    screen_controller.o(i._ZN11Screen_ctrl10print_logoEv) refers to _printf_percent.o(.ARM.Collect$$_printf_percent$$00000000) for _printf_percent
    screen_controller.o(i._ZN11Screen_ctrl10print_logoEv) refers to _printf_s.o(.ARM.Collect$$_printf_percent$$00000014) for _printf_s
    screen_controller.o(i._ZN11Screen_ctrl10print_logoEv) refers to _printf_str.o(.text) for _printf_str
    screen_controller.o(i._ZN11Screen_ctrl10print_logoEv) refers to noretval__2sprintf.o(.text) for __2sprintf
    screen_controller.o(i._ZN11Screen_ctrl10print_logoEv) refers to common.o(i._Z16Serial_PutStringPKc) for Serial_PutString(const char*)
    screen_controller.o(i._ZN11Screen_ctrl10print_logoEv) refers to screen_controller.o(.constdata) for .constdata
    screen_controller.o(i._ZN11Screen_ctrl11pass_to_ardEPh) refers to _printf_percent.o(.ARM.Collect$$_printf_percent$$00000000) for _printf_percent
    screen_controller.o(i._ZN11Screen_ctrl11pass_to_ardEPh) refers to _printf_s.o(.ARM.Collect$$_printf_percent$$00000014) for _printf_s
    screen_controller.o(i._ZN11Screen_ctrl11pass_to_ardEPh) refers to _printf_str.o(.text) for _printf_str
    screen_controller.o(i._ZN11Screen_ctrl11pass_to_ardEPh) refers to noretval__2sprintf.o(.text) for __2sprintf
    screen_controller.o(i._ZN11Screen_ctrl11pass_to_ardEPh) refers to common.o(i._Z16Serial_PutStringPKc) for Serial_PutString(const char*)
    screen_controller.o(i._ZN11Screen_ctrl11pass_to_ardEPh) refers to common.o(i._Z17Monitor_PutStringPKc) for Monitor_PutString(const char*)
    screen_controller.o(i._ZN11Screen_ctrl12blank_screenEv) refers to noretval__2sprintf.o(.text) for __2sprintf
    screen_controller.o(i._ZN11Screen_ctrl12blank_screenEv) refers to common.o(i._Z17Monitor_PutStringPKc) for Monitor_PutString(const char*)
    screen_controller.o(i._ZN11Screen_ctrl12clean_screenEj) refers to _printf_percent.o(.ARM.Collect$$_printf_percent$$00000000) for _printf_percent
    screen_controller.o(i._ZN11Screen_ctrl12clean_screenEj) refers to _printf_u.o(.ARM.Collect$$_printf_percent$$0000000A) for _printf_u
    screen_controller.o(i._ZN11Screen_ctrl12clean_screenEj) refers to _printf_dec.o(.text) for _printf_int_dec
    screen_controller.o(i._ZN11Screen_ctrl12clean_screenEj) refers to noretval__2sprintf.o(.text) for __2sprintf
    screen_controller.o(i._ZN11Screen_ctrl12clean_screenEj) refers to common.o(i._Z17Monitor_PutStringPKc) for Monitor_PutString(const char*)
    screen_controller.o(i._ZN11Screen_ctrl12update_piazoEb) refers to cxa_guard_acquire.o(i.__cxa_guard_acquire) for __cxa_guard_acquire
    screen_controller.o(i._ZN11Screen_ctrl12update_piazoEb) refers to stm32f0xx_hal.o(i.HAL_GetTick) for HAL_GetTick
    screen_controller.o(i._ZN11Screen_ctrl12update_piazoEb) refers to noretval__2sprintf.o(.text) for __2sprintf
    screen_controller.o(i._ZN11Screen_ctrl12update_piazoEb) refers to common.o(i._Z17Monitor_PutStringPKc) for Monitor_PutString(const char*)
    screen_controller.o(i._ZN11Screen_ctrl12update_piazoEb) refers to screen_controller.o(.data) for .data
    screen_controller.o(i._ZN11Screen_ctrl14update_batteryEjj) refers to _printf_percent.o(.ARM.Collect$$_printf_percent$$00000000) for _printf_percent
    screen_controller.o(i._ZN11Screen_ctrl14update_batteryEjj) refers to _printf_u.o(.ARM.Collect$$_printf_percent$$0000000A) for _printf_u
    screen_controller.o(i._ZN11Screen_ctrl14update_batteryEjj) refers to _printf_dec.o(.text) for _printf_int_dec
    screen_controller.o(i._ZN11Screen_ctrl14update_batteryEjj) refers to _printf_d.o(.ARM.Collect$$_printf_percent$$00000009) for _printf_d
    screen_controller.o(i._ZN11Screen_ctrl14update_batteryEjj) refers to noretval__2sprintf.o(.text) for __2sprintf
    screen_controller.o(i._ZN11Screen_ctrl14update_batteryEjj) refers to common.o(i._Z17Monitor_PutStringPKc) for Monitor_PutString(const char*)
    screen_controller.o(i._ZN11Screen_ctrl14update_batteryEjj) refers to aeabi_sdiv.o(.text) for __aeabi_idivmod
    screen_controller.o(i._ZN11Screen_ctrl14update_batteryEjj) refers to common.o(i._Z16Serial_PutStringPKc) for Serial_PutString(const char*)
    screen_controller.o(i._ZN11Screen_ctrl14update_batteryEjj) refers to screen_controller.o(.data) for .data
    screen_controller.o(i._ZN11Screen_ctrl14update_versionEv) refers to _printf_percent.o(.ARM.Collect$$_printf_percent$$00000000) for _printf_percent
    screen_controller.o(i._ZN11Screen_ctrl14update_versionEv) refers to _printf_s.o(.ARM.Collect$$_printf_percent$$00000014) for _printf_s
    screen_controller.o(i._ZN11Screen_ctrl14update_versionEv) refers to _printf_str.o(.text) for _printf_str
    screen_controller.o(i._ZN11Screen_ctrl14update_versionEv) refers to rt_memcpy.o(.emb_text) for __aeabi_memcpy4
    screen_controller.o(i._ZN11Screen_ctrl14update_versionEv) refers to noretval__2sprintf.o(.text) for __2sprintf
    screen_controller.o(i._ZN11Screen_ctrl14update_versionEv) refers to common.o(i._Z17Monitor_PutStringPKc) for Monitor_PutString(const char*)
    screen_controller.o(i._ZN11Screen_ctrl15update_pressureEj) refers to noretval__2sprintf.o(.text) for __2sprintf
    screen_controller.o(i._ZN11Screen_ctrl15update_pressureEj) refers to common.o(i._Z17Monitor_PutStringPKc) for Monitor_PutString(const char*)
    screen_controller.o(i._ZN11Screen_ctrl19check_timer_expiredEv) refers to _printf_percent.o(.ARM.Collect$$_printf_percent$$00000000) for _printf_percent
    screen_controller.o(i._ZN11Screen_ctrl19check_timer_expiredEv) refers to _printf_u.o(.ARM.Collect$$_printf_percent$$0000000A) for _printf_u
    screen_controller.o(i._ZN11Screen_ctrl19check_timer_expiredEv) refers to _printf_dec.o(.text) for _printf_int_dec
    screen_controller.o(i._ZN11Screen_ctrl19check_timer_expiredEv) refers to stm32f0xx_hal.o(i.HAL_GetTick) for HAL_GetTick
    screen_controller.o(i._ZN11Screen_ctrl19check_timer_expiredEv) refers to common.o(i._Z16Serial_PutStringPKc) for Serial_PutString(const char*)
    screen_controller.o(i._ZN11Screen_ctrl19check_timer_expiredEv) refers to noretval__2sprintf.o(.text) for __2sprintf
    screen_controller.o(i._ZN11Screen_ctrl19check_timer_expiredEv) refers to common.o(i._Z17Monitor_PutStringPKc) for Monitor_PutString(const char*)
    screen_controller.o(i._ZN11Screen_ctrl19check_timer_expiredEv) refers to common.o(i.delay) for delay
    screen_controller.o(i._ZN11Screen_ctrl19check_timer_expiredEv) refers to screen_controller.o(.data) for .data
    screen_controller.o(i._ZN11Screen_ctrl20update_pulse_counterEj) refers to _printf_percent.o(.ARM.Collect$$_printf_percent$$00000000) for _printf_percent
    screen_controller.o(i._ZN11Screen_ctrl20update_pulse_counterEj) refers to _printf_u.o(.ARM.Collect$$_printf_percent$$0000000A) for _printf_u
    screen_controller.o(i._ZN11Screen_ctrl20update_pulse_counterEj) refers to _printf_dec.o(.text) for _printf_int_dec
    screen_controller.o(i._ZN11Screen_ctrl20update_pulse_counterEj) refers to noretval__2sprintf.o(.text) for __2sprintf
    screen_controller.o(i._ZN11Screen_ctrl20update_pulse_counterEj) refers to common.o(i._Z17Monitor_PutStringPKc) for Monitor_PutString(const char*)
    screen_controller.o(i._ZN11Screen_ctrl21tx_send_general_errorEj) refers to _printf_percent.o(.ARM.Collect$$_printf_percent$$00000000) for _printf_percent
    screen_controller.o(i._ZN11Screen_ctrl21tx_send_general_errorEj) refers to _printf_d.o(.ARM.Collect$$_printf_percent$$00000009) for _printf_d
    screen_controller.o(i._ZN11Screen_ctrl21tx_send_general_errorEj) refers to _printf_dec.o(.text) for _printf_int_dec
    screen_controller.o(i._ZN11Screen_ctrl21tx_send_general_errorEj) refers to screen_controller.o(i._ZN11Screen_ctrl19check_timer_expiredEv) for Screen_ctrl::check_timer_expired()
    screen_controller.o(i._ZN11Screen_ctrl21tx_send_general_errorEj) refers to noretval__2sprintf.o(.text) for __2sprintf
    screen_controller.o(i._ZN11Screen_ctrl21tx_send_general_errorEj) refers to common.o(i._Z16Serial_PutStringPKc) for Serial_PutString(const char*)
    screen_controller.o(i._ZN11Screen_ctrl21tx_send_general_errorEj) refers to common.o(i._Z17Monitor_PutStringPKc) for Monitor_PutString(const char*)
    screen_controller.o(i._ZN11Screen_ctrl21tx_send_general_errorEj) refers to rt_memcpy.o(.emb_text) for __aeabi_memcpy4
    screen_controller.o(i._ZN11Screen_ctrl21tx_send_general_errorEj) refers to screen_controller.o(.conststring) for .conststring
    screen_controller.o(i._ZN11Screen_ctrl21tx_send_general_errorEjj) refers to _printf_percent.o(.ARM.Collect$$_printf_percent$$00000000) for _printf_percent
    screen_controller.o(i._ZN11Screen_ctrl21tx_send_general_errorEjj) refers to _printf_d.o(.ARM.Collect$$_printf_percent$$00000009) for _printf_d
    screen_controller.o(i._ZN11Screen_ctrl21tx_send_general_errorEjj) refers to _printf_dec.o(.text) for _printf_int_dec
    screen_controller.o(i._ZN11Screen_ctrl21tx_send_general_errorEjj) refers to screen_controller.o(i._ZN11Screen_ctrl19check_timer_expiredEv) for Screen_ctrl::check_timer_expired()
    screen_controller.o(i._ZN11Screen_ctrl21tx_send_general_errorEjj) refers to rt_memcpy.o(.emb_text) for __aeabi_memcpy4
    screen_controller.o(i._ZN11Screen_ctrl21tx_send_general_errorEjj) refers to common.o(i._Z16Serial_PutStringPKc) for Serial_PutString(const char*)
    screen_controller.o(i._ZN11Screen_ctrl21tx_send_general_errorEjj) refers to noretval__2sprintf.o(.text) for __2sprintf
    screen_controller.o(i._ZN11Screen_ctrl21tx_send_general_errorEjj) refers to common.o(i._Z17Monitor_PutStringPKc) for Monitor_PutString(const char*)
    screen_controller.o(i._ZN11Screen_ctrl22update_error_remainingEj) refers to _printf_percent.o(.ARM.Collect$$_printf_percent$$00000000) for _printf_percent
    screen_controller.o(i._ZN11Screen_ctrl22update_error_remainingEj) refers to _printf_u.o(.ARM.Collect$$_printf_percent$$0000000A) for _printf_u
    screen_controller.o(i._ZN11Screen_ctrl22update_error_remainingEj) refers to _printf_dec.o(.text) for _printf_int_dec
    screen_controller.o(i._ZN11Screen_ctrl22update_error_remainingEj) refers to screen_controller.o(i._ZN11Screen_ctrl19check_timer_expiredEv) for Screen_ctrl::check_timer_expired()
    screen_controller.o(i._ZN11Screen_ctrl22update_error_remainingEj) refers to noretval__2sprintf.o(.text) for __2sprintf
    screen_controller.o(i._ZN11Screen_ctrl22update_error_remainingEj) refers to common.o(i._Z17Monitor_PutStringPKc) for Monitor_PutString(const char*)
    screen_controller.o(i._ZN11Screen_ctrl27update_remaining_in_percentEjj) refers to _printf_percent.o(.ARM.Collect$$_printf_percent$$00000000) for _printf_percent
    screen_controller.o(i._ZN11Screen_ctrl27update_remaining_in_percentEjj) refers to _printf_u.o(.ARM.Collect$$_printf_percent$$0000000A) for _printf_u
    screen_controller.o(i._ZN11Screen_ctrl27update_remaining_in_percentEjj) refers to _printf_dec.o(.text) for _printf_int_dec
    screen_controller.o(i._ZN11Screen_ctrl27update_remaining_in_percentEjj) refers to cxa_guard_acquire.o(i.__cxa_guard_acquire) for __cxa_guard_acquire
    screen_controller.o(i._ZN11Screen_ctrl27update_remaining_in_percentEjj) refers to aeabi_sdiv.o(.text) for __aeabi_uidivmod
    screen_controller.o(i._ZN11Screen_ctrl27update_remaining_in_percentEjj) refers to stm32f0xx_hal.o(i.HAL_GetTick) for HAL_GetTick
    screen_controller.o(i._ZN11Screen_ctrl27update_remaining_in_percentEjj) refers to noretval__2sprintf.o(.text) for __2sprintf
    screen_controller.o(i._ZN11Screen_ctrl27update_remaining_in_percentEjj) refers to common.o(i._Z17Monitor_PutStringPKc) for Monitor_PutString(const char*)
    screen_controller.o(i._ZN11Screen_ctrl27update_remaining_in_percentEjj) refers to screen_controller.o(.data) for .data
    screen_controller.o(i._ZN11Screen_ctrl30update_pulse_counter_remainingEjj) refers to _printf_percent.o(.ARM.Collect$$_printf_percent$$00000000) for _printf_percent
    screen_controller.o(i._ZN11Screen_ctrl30update_pulse_counter_remainingEjj) refers to _printf_u.o(.ARM.Collect$$_printf_percent$$0000000A) for _printf_u
    screen_controller.o(i._ZN11Screen_ctrl30update_pulse_counter_remainingEjj) refers to _printf_dec.o(.text) for _printf_int_dec
    screen_controller.o(i._ZN11Screen_ctrl30update_pulse_counter_remainingEjj) refers to noretval__2sprintf.o(.text) for __2sprintf
    screen_controller.o(i._ZN11Screen_ctrl30update_pulse_counter_remainingEjj) refers to common.o(i._Z17Monitor_PutStringPKc) for Monitor_PutString(const char*)
    screen_controller.o(i._ZN11Screen_ctrl6qa_monEbbb) refers to _printf_percent.o(.ARM.Collect$$_printf_percent$$00000000) for _printf_percent
    screen_controller.o(i._ZN11Screen_ctrl6qa_monEbbb) refers to _printf_s.o(.ARM.Collect$$_printf_percent$$00000014) for _printf_s
    screen_controller.o(i._ZN11Screen_ctrl6qa_monEbbb) refers to _printf_str.o(.text) for _printf_str
    screen_controller.o(i._ZN11Screen_ctrl6qa_monEbbb) refers to screen_controller.o(i._ZN11Screen_ctrl19check_timer_expiredEv) for Screen_ctrl::check_timer_expired()
    screen_controller.o(i._ZN11Screen_ctrl6qa_monEbbb) refers to noretval__2sprintf.o(.text) for __2sprintf
    screen_controller.o(i._ZN11Screen_ctrl6qa_monEbbb) refers to common.o(i._Z17Monitor_PutStringPKc) for Monitor_PutString(const char*)
    screen_controller.o(i._ZN11Screen_ctrl8get_timeEv) refers to _printf_pad.o(.text) for _printf_pre_padding
    screen_controller.o(i._ZN11Screen_ctrl8get_timeEv) refers to _printf_percent.o(.ARM.Collect$$_printf_percent$$00000000) for _printf_percent
    screen_controller.o(i._ZN11Screen_ctrl8get_timeEv) refers to _printf_d.o(.ARM.Collect$$_printf_percent$$00000009) for _printf_d
    screen_controller.o(i._ZN11Screen_ctrl8get_timeEv) refers to _printf_dec.o(.text) for _printf_int_dec
    screen_controller.o(i._ZN11Screen_ctrl8get_timeEv) refers to stm32f0xx_hal_rtc.o(i.HAL_RTC_GetTime) for HAL_RTC_GetTime
    screen_controller.o(i._ZN11Screen_ctrl8get_timeEv) refers to stm32f0xx_hal_rtc.o(i.HAL_RTC_GetDate) for HAL_RTC_GetDate
    screen_controller.o(i._ZN11Screen_ctrl8get_timeEv) refers to noretval__2sprintf.o(.text) for __2sprintf
    screen_controller.o(i._ZN11Screen_ctrl8get_timeEv) refers to common.o(i._Z16Serial_PutStringPKc) for Serial_PutString(const char*)
    screen_controller.o(i._ZN11Screen_ctrl8get_timeEv) refers to rtc.o(.bss) for hrtc
    screen_controller.o(i._ZN11Screen_ctrlC1Ev) refers to rt_memclr.o(.text) for __aeabi_memclr
    screen_controller.o(i._ZN11Screen_ctrlC1Ev) refers to main.o(.bss) for BUFFER_SCREEN
    screen_controller.o(.ARM.exidx) refers to screen_controller.o(i._ZN11Screen_ctrlC1Ev) for i._ZN11Screen_ctrlC1Ev
    screen_controller.o(.ARM.exidx) refers to screen_controller.o(i._ZN11Screen_ctrlD1Ev) for i._ZN11Screen_ctrlD1Ev
    screen_controller.o(.ARM.exidx) refers to screen_controller.o(i._ZN11Screen_ctrl8get_timeEv) for i._ZN11Screen_ctrl8get_timeEv
    screen_controller.o(.ARM.exidx) refers to screen_controller.o(i._ZN11Screen_ctrl10print_logoEv) for i._ZN11Screen_ctrl10print_logoEv
    screen_controller.o(.ARM.exidx) refers to screen_controller.o(i._ZN11Screen_ctrl14update_batteryEjj) for i._ZN11Screen_ctrl14update_batteryEjj
    screen_controller.o(.ARM.exidx) refers to screen_controller.o(i._ZN11Screen_ctrl15update_pressureEj) for i._ZN11Screen_ctrl15update_pressureEj
    screen_controller.o(.ARM.exidx) refers to screen_controller.o(i._ZN11Screen_ctrl20update_pulse_counterEj) for i._ZN11Screen_ctrl20update_pulse_counterEj
    screen_controller.o(.ARM.exidx) refers to screen_controller.o(i._ZN11Screen_ctrl30update_pulse_counter_remainingEjj) for i._ZN11Screen_ctrl30update_pulse_counter_remainingEjj
    screen_controller.o(.ARM.exidx) refers to screen_controller.o(i._ZN11Screen_ctrl19check_timer_expiredEv) for i._ZN11Screen_ctrl19check_timer_expiredEv
    screen_controller.o(.ARM.exidx) refers to screen_controller.o(i._ZN11Screen_ctrl21tx_send_general_errorEjj) for i._ZN11Screen_ctrl21tx_send_general_errorEjj
    screen_controller.o(.ARM.exidx) refers to screen_controller.o(i._ZN11Screen_ctrl21tx_send_general_errorEj) for i._ZN11Screen_ctrl21tx_send_general_errorEj
    screen_controller.o(.ARM.exidx) refers to screen_controller.o(i._ZN11Screen_ctrl12clean_screenEj) for i._ZN11Screen_ctrl12clean_screenEj
    screen_controller.o(.ARM.exidx) refers to screen_controller.o(i._ZN11Screen_ctrl12blank_screenEv) for i._ZN11Screen_ctrl12blank_screenEv
    screen_controller.o(.ARM.exidx) refers to screen_controller.o(i._ZN11Screen_ctrl14update_versionEv) for i._ZN11Screen_ctrl14update_versionEv
    screen_controller.o(.ARM.exidx) refers to screen_controller.o(i._ZN11Screen_ctrl27update_remaining_in_percentEjj) for i._ZN11Screen_ctrl27update_remaining_in_percentEjj
    screen_controller.o(.ARM.exidx) refers to screen_controller.o(i._ZN11Screen_ctrl22update_error_remainingEj) for i._ZN11Screen_ctrl22update_error_remainingEj
    screen_controller.o(.ARM.exidx) refers to screen_controller.o(i._ZN11Screen_ctrl12update_piazoEb) for i._ZN11Screen_ctrl12update_piazoEb
    screen_controller.o(.ARM.exidx) refers to screen_controller.o(i._ZN11Screen_ctrl6qa_monEbbb) for i._ZN11Screen_ctrl6qa_monEbbb
    screen_controller.o(.ARM.exidx) refers to screen_controller.o(i._ZN11Screen_ctrl11pass_to_ardEPh) for i._ZN11Screen_ctrl11pass_to_ardEPh
    state.o(i._ZN5State14read_interlockEv) refers to stm32f0xx_hal_gpio.o(i.HAL_GPIO_ReadPin) for HAL_GPIO_ReadPin
    state.o(i._ZN5State14read_interlockEv) refers to stm32f0xx_hal.o(i.HAL_GetTick) for HAL_GetTick
    state.o(i._ZN5State14read_interlockEv) refers to stm32f0xx_hal_gpio.o(i.HAL_GPIO_TogglePin) for HAL_GPIO_TogglePin
    state.o(i._ZN5State14read_interlockEv) refers to stm32f0xx_hal.o(i.HAL_Delay) for HAL_Delay
    state.o(i._ZN5State14read_interlockEv) refers to stm32f0xx_hal_gpio.o(i.HAL_GPIO_WritePin) for HAL_GPIO_WritePin
    state.o(i._ZN5State15init_first_stepEv) refers to stm32f0xx_hal_gpio.o(i.HAL_GPIO_ReadPin) for HAL_GPIO_ReadPin
    state.o(i._ZN5State15init_first_stepEv) refers to state.o(i._ZN5State14read_interlockEv) for State::read_interlock()
    state.o(i._ZN5State15init_first_stepEv) refers to stm32f0xx_hal_gpio.o(i.HAL_GPIO_TogglePin) for HAL_GPIO_TogglePin
    state.o(i._ZN5State15init_first_stepEv) refers to main.o(.data) for reset_button_instead_of_fire
    state.o(i._ZN5State15init_first_stepEv) refers to main.o(.data) for COUNTER_V
    state.o(.ARM.exidx) refers to state.o(i._ZN5StateC1Ev) for i._ZN5StateC1Ev
    state.o(.ARM.exidx) refers to state.o(i._ZN5StateD1Ev) for i._ZN5StateD1Ev
    state.o(.ARM.exidx) refers to state.o(i._ZN5State14read_interlockEv) for i._ZN5State14read_interlockEv
    state.o(.ARM.exidx) refers to state.o(i._ZN5State15init_first_stepEv) for i._ZN5State15init_first_stepEv
    status_reg.o(i._ZN10STATUS_reg13print_currentEv) refers to _printf_pad.o(.text) for _printf_pre_padding
    status_reg.o(i._ZN10STATUS_reg13print_currentEv) refers to _printf_percent.o(.ARM.Collect$$_printf_percent$$00000000) for _printf_percent
    status_reg.o(i._ZN10STATUS_reg13print_currentEv) refers to _printf_d.o(.ARM.Collect$$_printf_percent$$00000009) for _printf_d
    status_reg.o(i._ZN10STATUS_reg13print_currentEv) refers to _printf_x.o(.ARM.Collect$$_printf_percent$$0000000C) for _printf_x
    status_reg.o(i._ZN10STATUS_reg13print_currentEv) refers to _printf_dec.o(.text) for _printf_int_dec
    status_reg.o(i._ZN10STATUS_reg13print_currentEv) refers to _printf_hex_int.o(.text) for _printf_longlong_hex
    status_reg.o(i._ZN10STATUS_reg13print_currentEv) refers to noretval__2sprintf.o(.text) for __2sprintf
    status_reg.o(i._ZN10STATUS_reg13print_currentEv) refers to common.o(i._Z16Serial_PutStringPKc) for Serial_PutString(const char*)
    status_reg.o(i._ZN10STATUS_reg13print_currentEv) refers to status_reg.o(.conststring) for .conststring
    status_reg.o(i._ZN10STATUS_reg13print_currentEv) refers to status_reg.o(.bss) for .bss
    status_reg.o(i._ZN10STATUS_reg9get_valueEv) refers to stm32f0xx_hal_spi.o(i.HAL_SPI_Receive) for HAL_SPI_Receive
    status_reg.o(i._ZN10STATUS_reg9get_valueEv) refers to spi.o(.bss) for hspi1
    status_reg.o(.ARM.exidx) refers to status_reg.o(i._ZN10STATUS_regC1Ev) for i._ZN10STATUS_regC1Ev
    status_reg.o(.ARM.exidx) refers to status_reg.o(i._ZN10STATUS_regD1Ev) for i._ZN10STATUS_regD1Ev
    status_reg.o(.ARM.exidx) refers to status_reg.o(i._ZN10STATUS_reg9get_valueEv) for i._ZN10STATUS_reg9get_valueEv
    status_reg.o(.ARM.exidx) refers to status_reg.o(i._ZN10STATUS_reg14nibble_reverseEh) for i._ZN10STATUS_reg14nibble_reverseEh
    status_reg.o(.ARM.exidx) refers to status_reg.o(i._ZN10STATUS_reg13print_currentEv) for i._ZN10STATUS_reg13print_currentEv
    xmodem.o(i._Z14xmodem_receivev) refers to _printf_percent.o(.ARM.Collect$$_printf_percent$$00000000) for _printf_percent
    xmodem.o(i._Z14xmodem_receivev) refers to _printf_d.o(.ARM.Collect$$_printf_percent$$00000009) for _printf_d
    xmodem.o(i._Z14xmodem_receivev) refers to _printf_dec.o(.text) for _printf_int_dec
    xmodem.o(i._Z14xmodem_receivev) refers to _printf_s.o(.ARM.Collect$$_printf_percent$$00000014) for _printf_s
    xmodem.o(i._Z14xmodem_receivev) refers to _printf_str.o(.text) for _printf_str
    xmodem.o(i._Z14xmodem_receivev) refers to stm32f0xx_hal_uart.o(i.HAL_UART_Receive) for HAL_UART_Receive
    xmodem.o(i._Z14xmodem_receivev) refers to common.o(i._Z14Serial_PutByteh) for Serial_PutByte(unsigned char)
    xmodem.o(i._Z14xmodem_receivev) refers to xmodem.o(i._Z20xmodem_error_handlerPhh) for xmodem_error_handler(unsigned char*, unsigned char)
    xmodem.o(i._Z14xmodem_receivev) refers to xmodem.o(i._Z20xmodem_handle_packeth) for xmodem_handle_packet(unsigned char)
    xmodem.o(i._Z14xmodem_receivev) refers to common.o(i._Z16Serial_PutStringPKc) for Serial_PutString(const char*)
    xmodem.o(i._Z14xmodem_receivev) refers to mem_controller.o(i._ZN8Mem_ctrl5writeEhjj) for Mem_ctrl::write(unsigned char, unsigned, unsigned)
    xmodem.o(i._Z14xmodem_receivev) refers to noretval__2sprintf.o(.text) for __2sprintf
    xmodem.o(i._Z14xmodem_receivev) refers to stm32f0xx_hal.o(i.HAL_Delay) for HAL_Delay
    xmodem.o(i._Z14xmodem_receivev) refers to xmodem.o(.data) for .data
    xmodem.o(i._Z14xmodem_receivev) refers to usart.o(.bss) for huart1
    xmodem.o(i._Z14xmodem_receivev) refers to main.o(.data) for memory_extern
    xmodem.o(i._Z14xmodem_receivev) refers to main.o(.bss) for aPacketData
    xmodem.o(i._Z20xmodem_error_handlerPhh) refers to common.o(i._Z14Serial_PutByteh) for Serial_PutByte(unsigned char)
    xmodem.o(i._Z20xmodem_handle_packeth) refers to stm32f0xx_hal_uart.o(i.HAL_UART_Receive) for HAL_UART_Receive
    xmodem.o(i._Z20xmodem_handle_packeth) refers to xmodem.o(i._Z15xmodem_calc_crcPht) for xmodem_calc_crc(unsigned char*, unsigned short)
    xmodem.o(i._Z20xmodem_handle_packeth) refers to flash_if.o(i._Z14FLASH_If_WritejPhj) for FLASH_If_Write(unsigned, unsigned char*, unsigned)
    xmodem.o(i._Z20xmodem_handle_packeth) refers to main.o(.bss) for aPacketData
    xmodem.o(i._Z20xmodem_handle_packeth) refers to usart.o(.bss) for huart1
    xmodem.o(i._Z20xmodem_handle_packeth) refers to xmodem.o(.data) for .data
    xmodem.o(.ARM.exidx) refers to xmodem.o(i._Z20xmodem_error_handlerPhh) for i._Z20xmodem_error_handlerPhh
    xmodem.o(.ARM.exidx) refers to xmodem.o(i._Z15xmodem_calc_crcPht) for i._Z15xmodem_calc_crcPht
    xmodem.o(.ARM.exidx) refers to xmodem.o(i._Z20xmodem_handle_packeth) for i._Z20xmodem_handle_packeth
    xmodem.o(.ARM.exidx) refers to xmodem.o(i._Z14xmodem_receivev) for i._Z14xmodem_receivev
    monitor.o(i._ZN7monitor10rx_patternEv) refers to mem_controller.o(i._ZN8Mem_ctrl14write_registerEht) for Mem_ctrl::write_register(unsigned char, unsigned short)
    monitor.o(i._ZN7monitor10rx_patternEv) refers to mem_controller.o(i._ZN8Mem_ctrl5writeEhjj) for Mem_ctrl::write(unsigned char, unsigned, unsigned)
    monitor.o(i._ZN7monitor10rx_patternEv) refers to common.o(i._Z16Serial_PutStringPKc) for Serial_PutString(const char*)
    monitor.o(i._ZN7monitor11rx_set_dateEv) refers to strtoul.o(.text) for strtoul
    monitor.o(i._ZN7monitor11rx_set_dateEv) refers to mem_controller.o(i._ZN8Mem_ctrl5writeEhjj) for Mem_ctrl::write(unsigned char, unsigned, unsigned)
    monitor.o(i._ZN7monitor11rx_set_maxiEv) refers to strtoul.o(.text) for strtoul
    monitor.o(i._ZN7monitor11rx_set_maxiEv) refers to mem_controller.o(i._ZN8Mem_ctrl5writeEhjj) for Mem_ctrl::write(unsigned char, unsigned, unsigned)
    monitor.o(i._ZN7monitor12rx_go_activeEv) refers to peripherial_controller.o(i._ZN18PeripherialDevices11start_motorEv) for PeripherialDevices::start_motor()
    monitor.o(i._ZN7monitor12rx_read_backEv) refers to mem_controller.o(i._ZN8Mem_ctrl20read_back_current_csEv) for Mem_ctrl::read_back_current_cs()
    monitor.o(i._ZN7monitor12rx_test_readEv) refers to _printf_pad.o(.text) for _printf_pre_padding
    monitor.o(i._ZN7monitor12rx_test_readEv) refers to _printf_percent.o(.ARM.Collect$$_printf_percent$$00000000) for _printf_percent
    monitor.o(i._ZN7monitor12rx_test_readEv) refers to _printf_d.o(.ARM.Collect$$_printf_percent$$00000009) for _printf_d
    monitor.o(i._ZN7monitor12rx_test_readEv) refers to _printf_x.o(.ARM.Collect$$_printf_percent$$0000000C) for _printf_x
    monitor.o(i._ZN7monitor12rx_test_readEv) refers to _printf_s.o(.ARM.Collect$$_printf_percent$$00000014) for _printf_s
    monitor.o(i._ZN7monitor12rx_test_readEv) refers to _printf_dec.o(.text) for _printf_int_dec
    monitor.o(i._ZN7monitor12rx_test_readEv) refers to _printf_hex_int.o(.text) for _printf_longlong_hex
    monitor.o(i._ZN7monitor12rx_test_readEv) refers to _printf_str.o(.text) for _printf_str
    monitor.o(i._ZN7monitor12rx_test_readEv) refers to mem_controller.o(i._ZN8Mem_ctrl4readEhj) for Mem_ctrl::read(unsigned char, unsigned)
    monitor.o(i._ZN7monitor12rx_test_readEv) refers to common.o(i.translate_int_to_arr) for translate_int_to_arr
    monitor.o(i._ZN7monitor12rx_test_readEv) refers to noretval__2sprintf.o(.text) for __2sprintf
    monitor.o(i._ZN7monitor12rx_test_readEv) refers to common.o(i._Z16Serial_PutStringPKc) for Serial_PutString(const char*)
    monitor.o(i._ZN7monitor12rx_test_readEv) refers to monitor.o(.data) for .data
    monitor.o(i._ZN7monitor12rx_test_readEv) refers to monitor.o(.bss) for .bss
    monitor.o(i._ZN7monitor13rx_get_man_idEv) refers to mem_controller.o(i._ZN8Mem_ctrl32check_connections_with_printbackEh) for Mem_ctrl::check_connections_with_printback(unsigned char)
    monitor.o(i._ZN7monitor13rx_set_serialEv) refers to strtoul.o(.text) for strtoul
    monitor.o(i._ZN7monitor13rx_set_serialEv) refers to mem_controller.o(i._ZN8Mem_ctrl5writeEhjj) for Mem_ctrl::write(unsigned char, unsigned, unsigned)
    monitor.o(i._ZN7monitor13rx_stop_motorEv) refers to main_controller.o(i._ZN15main_controller19set_b_motor_runningEb) for main_controller::set_b_motor_running(bool)
    monitor.o(i._ZN7monitor13rx_stop_motorEv) refers to peripherial_controller.o(i._ZN18PeripherialDevices10stop_motorEv) for PeripherialDevices::stop_motor()
    monitor.o(i._ZN7monitor13rx_stop_motorEv) refers to common.o(i._Z16Serial_PutStringPKc) for Serial_PutString(const char*)
    monitor.o(i._ZN7monitor13rx_stop_motorEv) refers to monitor.o(.constdata) for .constdata
    monitor.o(i._ZN7monitor14rx_find_pulsesEv) refers to _printf_percent.o(.ARM.Collect$$_printf_percent$$00000000) for _printf_percent
    monitor.o(i._ZN7monitor14rx_find_pulsesEv) refers to _printf_u.o(.ARM.Collect$$_printf_percent$$0000000A) for _printf_u
    monitor.o(i._ZN7monitor14rx_find_pulsesEv) refers to _printf_dec.o(.text) for _printf_int_dec
    monitor.o(i._ZN7monitor14rx_find_pulsesEv) refers to stm32f0xx_hal.o(i.HAL_GetTick) for HAL_GetTick
    monitor.o(i._ZN7monitor14rx_find_pulsesEv) refers to mem_controller.o(i._ZN8Mem_ctrl16binary_and_patchEv) for Mem_ctrl::binary_and_patch()
    monitor.o(i._ZN7monitor14rx_find_pulsesEv) refers to noretval__2sprintf.o(.text) for __2sprintf
    monitor.o(i._ZN7monitor14rx_find_pulsesEv) refers to common.o(i._Z16Serial_PutStringPKc) for Serial_PutString(const char*)
    monitor.o(i._ZN7monitor14rx_find_pulsesEv) refers to main.o(.bss) for BUFFER_RX
    monitor.o(i._ZN7monitor14rx_start_motorEv) refers to main_controller.o(i._ZN15main_controller19set_b_motor_runningEb) for main_controller::set_b_motor_running(bool)
    monitor.o(i._ZN7monitor14rx_start_motorEv) refers to peripherial_controller.o(i._ZN18PeripherialDevices15start_motor_pwmEv) for PeripherialDevices::start_motor_pwm()
    monitor.o(i._ZN7monitor14rx_start_motorEv) refers to common.o(i._Z16Serial_PutStringPKc) for Serial_PutString(const char*)
    monitor.o(i._ZN7monitor14rx_start_motorEv) refers to monitor.o(.constdata) for .constdata
    monitor.o(i._ZN7monitor14rx_status_readEv) refers to mem_controller.o(i._ZN8Mem_ctrl14print_registerEh) for Mem_ctrl::print_register(unsigned char)
    monitor.o(i._ZN7monitor14serial_consumeEv) refers to monitor.o(i._ZN7monitor16parse_input_uartEv) for monitor::parse_input_uart()
    monitor.o(i._ZN7monitor14serial_consumeEv) refers to common.o(i.test_for_reset_press_aux) for test_for_reset_press_aux
    monitor.o(i._ZN7monitor14serial_consumeEv) refers to common.o(i._Z16Serial_PutStringPKc) for Serial_PutString(const char*)
    monitor.o(i._ZN7monitor14serial_consumeEv) refers to main_controller.o(i._ZN15main_controller19set_b_motor_runningEb) for main_controller::set_b_motor_running(bool)
    monitor.o(i._ZN7monitor14serial_consumeEv) refers to peripherial_controller.o(i._ZN18PeripherialDevices10stop_motorEv) for PeripherialDevices::stop_motor()
    monitor.o(i._ZN7monitor14serial_consumeEv) refers to debug_facilities.o(i._ZN11DebugHelper12fast_beeps_2Ev) for DebugHelper::fast_beeps_2()
    monitor.o(i._ZN7monitor14serial_consumeEv) refers to peripherial_controller.o(i._ZN18PeripherialDevices13clear_counterEv) for PeripherialDevices::clear_counter()
    monitor.o(i._ZN7monitor14serial_consumeEv) refers to main_controller.o(i._ZN15main_controller13added_counterEv) for main_controller::added_counter()
    monitor.o(i._ZN7monitor14serial_consumeEv) refers to peripherial_controller.o(i._ZN18PeripherialDevices15start_motor_pwmEv) for PeripherialDevices::start_motor_pwm()
    monitor.o(i._ZN7monitor14serial_consumeEv) refers to screen_controller.o(i._ZN11Screen_ctrl20update_pulse_counterEj) for Screen_ctrl::update_pulse_counter(unsigned)
    monitor.o(i._ZN7monitor14serial_consumeEv) refers to stm32f0xx_hal_gpio.o(i.HAL_GPIO_ReadPin) for HAL_GPIO_ReadPin
    monitor.o(i._ZN7monitor14serial_consumeEv) refers to stm32f0xx_hal_gpio.o(i.HAL_GPIO_WritePin) for HAL_GPIO_WritePin
    monitor.o(i._ZN7monitor14serial_consumeEv) refers to debug_facilities.o(i._ZN11DebugHelper9long_beepEv) for DebugHelper::long_beep()
    monitor.o(i._ZN7monitor14serial_consumeEv) refers to stm32f0xx_hal.o(i.HAL_GetTick) for HAL_GetTick
    monitor.o(i._ZN7monitor14serial_consumeEv) refers to stm32f0xx_hal_gpio.o(i.HAL_GPIO_TogglePin) for HAL_GPIO_TogglePin
    monitor.o(i._ZN7monitor14serial_consumeEv) refers to stm32f0xx_hal.o(i.HAL_Delay) for HAL_Delay
    monitor.o(i._ZN7monitor14serial_consumeEv) refers to main.o(.data) for RESET_PRESSED
    monitor.o(i._ZN7monitor14serial_consumeEv) refers to monitor.o(.data) for .data
    monitor.o(i._ZN7monitor14serial_consumeEv) refers to main.o(.data__ZZN15main_controller14read_interlockEvE7history) for main_controller::read_interlock()::history
    monitor.o(i._ZN7monitor15rx_status_writeEv) refers to strtoul.o(.text) for strtoul
    monitor.o(i._ZN7monitor15rx_status_writeEv) refers to mem_controller.o(i._ZN8Mem_ctrl14write_registerEht) for Mem_ctrl::write_register(unsigned char, unsigned short)
    monitor.o(i._ZN7monitor16parse_input_uartEv) refers to _printf_percent.o(.ARM.Collect$$_printf_percent$$00000000) for _printf_percent
    monitor.o(i._ZN7monitor16parse_input_uartEv) refers to _printf_d.o(.ARM.Collect$$_printf_percent$$00000009) for _printf_d
    monitor.o(i._ZN7monitor16parse_input_uartEv) refers to _printf_dec.o(.text) for _printf_int_dec
    monitor.o(i._ZN7monitor16parse_input_uartEv) refers to stm32f0xx_hal_uart.o(i.HAL_UART_Receive) for HAL_UART_Receive
    monitor.o(i._ZN7monitor16parse_input_uartEv) refers to common.o(i._Z16Serial_PutStringPKc) for Serial_PutString(const char*)
    monitor.o(i._ZN7monitor16parse_input_uartEv) refers to strtok_r.o(.text) for strtok_r
    monitor.o(i._ZN7monitor16parse_input_uartEv) refers to strncmp.o(.text) for strncmp
    monitor.o(i._ZN7monitor16parse_input_uartEv) refers to stm32f0xx_hal_cortex.o(i.HAL_NVIC_SystemReset) for HAL_NVIC_SystemReset
    monitor.o(i._ZN7monitor16parse_input_uartEv) refers to monitor.o(i._ZN7monitor8rx_writeEv) for monitor::rx_write()
    monitor.o(i._ZN7monitor16parse_input_uartEv) refers to monitor.o(i._ZN7monitor14rx_status_readEv) for monitor::rx_status_read()
    monitor.o(i._ZN7monitor16parse_input_uartEv) refers to monitor.o(i._ZN7monitor15rx_status_writeEv) for monitor::rx_status_write()
    monitor.o(i._ZN7monitor16parse_input_uartEv) refers to monitor.o(i._ZN7monitor7rx_readEv) for monitor::rx_read()
    monitor.o(i._ZN7monitor16parse_input_uartEv) refers to monitor.o(i._ZN7monitor8rx_eraseEv) for monitor::rx_erase()
    monitor.o(i._ZN7monitor16parse_input_uartEv) refers to monitor.o(i._ZN7monitor7rx_nukeEv) for monitor::rx_nuke()
    monitor.o(i._ZN7monitor16parse_input_uartEv) refers to monitor.o(i._ZN7monitor14rx_start_motorEv) for monitor::rx_start_motor()
    monitor.o(i._ZN7monitor16parse_input_uartEv) refers to monitor.o(i._ZN7monitor13rx_stop_motorEv) for monitor::rx_stop_motor()
    monitor.o(i._ZN7monitor16parse_input_uartEv) refers to monitor.o(i._ZN7monitor12rx_go_activeEv) for monitor::rx_go_active()
    monitor.o(i._ZN7monitor16parse_input_uartEv) refers to monitor.o(i._ZN7monitor12rx_test_readEv) for monitor::rx_test_read()
    monitor.o(i._ZN7monitor16parse_input_uartEv) refers to monitor.o(i._ZN7monitor13rx_set_serialEv) for monitor::rx_set_serial()
    monitor.o(i._ZN7monitor16parse_input_uartEv) refers to monitor.o(i._ZN7monitor11rx_set_maxiEv) for monitor::rx_set_maxi()
    monitor.o(i._ZN7monitor16parse_input_uartEv) refers to monitor.o(i._ZN7monitor11rx_set_dateEv) for monitor::rx_set_date()
    monitor.o(i._ZN7monitor16parse_input_uartEv) refers to stm32f0xx_hal_gpio.o(i.HAL_GPIO_WritePin) for HAL_GPIO_WritePin
    monitor.o(i._ZN7monitor16parse_input_uartEv) refers to stm32f0xx_hal.o(i.HAL_Delay) for HAL_Delay
    monitor.o(i._ZN7monitor16parse_input_uartEv) refers to monitor.o(i._ZN7monitor7rx_scanEv) for monitor::rx_scan()
    monitor.o(i._ZN7monitor16parse_input_uartEv) refers to monitor.o(i._ZN7monitor10rx_patternEv) for monitor::rx_pattern()
    monitor.o(i._ZN7monitor16parse_input_uartEv) refers to monitor.o(i._ZN7monitor7rx_scanEhj) for monitor::rx_scan(unsigned char, unsigned)
    monitor.o(i._ZN7monitor16parse_input_uartEv) refers to monitor.o(i._ZN7monitor13rx_get_man_idEv) for monitor::rx_get_man_id()
    monitor.o(i._ZN7monitor16parse_input_uartEv) refers to monitor.o(i._ZN7monitor19rx_get_man_id_checkEv) for monitor::rx_get_man_id_check()
    monitor.o(i._ZN7monitor16parse_input_uartEv) refers to monitor.o(i._ZN7monitor14rx_find_pulsesEv) for monitor::rx_find_pulses()
    monitor.o(i._ZN7monitor16parse_input_uartEv) refers to usart.o(.bss) for huart1
    monitor.o(i._ZN7monitor16parse_input_uartEv) refers to monitor.o(.data) for .data
    monitor.o(i._ZN7monitor16parse_input_uartEv) refers to menu.o(i._Z9Main_Menuv) for Main_Menu()
    monitor.o(i._ZN7monitor16parse_input_uartEv) refers to monitor.o(i._ZN7monitor8rx_debugEv) for monitor::rx_debug()
    monitor.o(i._ZN7monitor16parse_input_uartEv) refers to monitor.o(i._ZN7monitor7rx_exitEv) for monitor::rx_exit()
    monitor.o(i._ZN7monitor16parse_input_uartEv) refers to monitor.o(i._ZN7monitor6rx_adcEv) for monitor::rx_adc()
    monitor.o(i._ZN7monitor16parse_input_uartEv) refers to noretval__2sprintf.o(.text) for __2sprintf
    monitor.o(i._ZN7monitor16parse_input_uartEv) refers to monitor.o(i._ZN7monitor18rx_status_reg_readEv) for monitor::rx_status_reg_read()
    monitor.o(i._ZN7monitor16parse_input_uartEv) refers to monitor.o(i._ZN7monitor12rx_read_backEv) for monitor::rx_read_back()
    monitor.o(i._ZN7monitor16parse_input_uartEv) refers to monitor.o(i._ZN7monitor7rx_passEv) for monitor::rx_pass()
    monitor.o(i._ZN7monitor16parse_input_uartEv) refers to monitor.o(i._ZN7monitor8rx_blinkEv) for monitor::rx_blink()
    monitor.o(i._ZN7monitor16parse_input_uartEv) refers to monitor.o(i._ZN7monitor16rx_reverse_motorEv) for monitor::rx_reverse_motor()
    monitor.o(i._ZN7monitor16parse_input_uartEv) refers to mem_controller.o(i._ZN8Mem_ctrl9LOG_WRITEE13stall_log_out) for Mem_ctrl::LOG_WRITE(stall_log_out)
    monitor.o(i._ZN7monitor16parse_input_uartEv) refers to peripherial_controller.o(i._ZN18PeripherialDevices9star_warsEv) for PeripherialDevices::star_wars()
    monitor.o(i._ZN7monitor16parse_input_uartEv) refers to monitor.o(.constdata) for .constdata
    monitor.o(i._ZN7monitor16parse_input_uartEv) refers to main.o(.data) for WATCHDOG_IS_ENABLED
    monitor.o(i._ZN7monitor16parse_input_uartEv) refers to main.o(.data) for COUNTER_V
    monitor.o(i._ZN7monitor16rx_reverse_motorEv) refers to peripherial_controller.o(i._ZN18PeripherialDevices13reverse_motorEv) for PeripherialDevices::reverse_motor()
    monitor.o(i._ZN7monitor18rx_status_reg_readEv) refers to peripherial_controller.o(i._ZN18PeripherialDevices4readEv) for PeripherialDevices::read()
    monitor.o(i._ZN7monitor18rx_status_reg_readEv) refers to status_reg.o(i._ZN10STATUS_reg13print_currentEv) for STATUS_reg::print_current()
    monitor.o(i._ZN7monitor19rx_get_man_id_checkEv) refers to _printf_percent.o(.ARM.Collect$$_printf_percent$$00000000) for _printf_percent
    monitor.o(i._ZN7monitor19rx_get_man_id_checkEv) refers to _printf_d.o(.ARM.Collect$$_printf_percent$$00000009) for _printf_d
    monitor.o(i._ZN7monitor19rx_get_man_id_checkEv) refers to _printf_dec.o(.text) for _printf_int_dec
    monitor.o(i._ZN7monitor19rx_get_man_id_checkEv) refers to mem_controller.o(i._ZN8Mem_ctrl17check_connectionsEh) for Mem_ctrl::check_connections(unsigned char)
    monitor.o(i._ZN7monitor19rx_get_man_id_checkEv) refers to noretval__2sprintf.o(.text) for __2sprintf
    monitor.o(i._ZN7monitor19rx_get_man_id_checkEv) refers to common.o(i._Z16Serial_PutStringPKc) for Serial_PutString(const char*)
    monitor.o(i._ZN7monitor19rx_get_man_id_checkEv) refers to main.o(.bss) for BUFFER_RX
    monitor.o(i._ZN7monitor6rx_adcEv) refers to adc_controller.o(i._ZN14adc_controller4readEv) for adc_controller::read()
    monitor.o(i._ZN7monitor6rx_adcEv) refers to adc_controller.o(i._ZN14adc_controller15convert_to_voltEv) for adc_controller::convert_to_volt()
    monitor.o(i._ZN7monitor6rx_adcEv) refers to screen_controller.o(i._ZN11Screen_ctrl14update_batteryEjj) for Screen_ctrl::update_battery(unsigned, unsigned)
    monitor.o(i._ZN7monitor6rx_adcEv) refers to screen_controller.o(i._ZN11Screen_ctrl15update_pressureEj) for Screen_ctrl::update_pressure(unsigned)
    monitor.o(i._ZN7monitor6rx_adcEv) refers to screen_controller.o(i._ZN11Screen_ctrl12update_piazoEb) for Screen_ctrl::update_piazo(bool)
    monitor.o(i._ZN7monitor7rx_helpEv) refers to common.o(i._Z16Serial_PutStringPKc) for Serial_PutString(const char*)
    monitor.o(i._ZN7monitor7rx_helpEv) refers to monitor.o(.constdata) for .constdata
    monitor.o(i._ZN7monitor7rx_nukeEv) refers to mem_controller.o(i._ZN8Mem_ctrl5eraseEh) for Mem_ctrl::erase(unsigned char)
    monitor.o(i._ZN7monitor7rx_passEv) refers to screen_controller.o(i._ZN11Screen_ctrl11pass_to_ardEPh) for Screen_ctrl::pass_to_ard(unsigned char*)
    monitor.o(i._ZN7monitor7rx_readEv) refers to _printf_pad.o(.text) for _printf_pre_padding
    monitor.o(i._ZN7monitor7rx_readEv) refers to _printf_percent.o(.ARM.Collect$$_printf_percent$$00000000) for _printf_percent
    monitor.o(i._ZN7monitor7rx_readEv) refers to _printf_x.o(.ARM.Collect$$_printf_percent$$0000000C) for _printf_x
    monitor.o(i._ZN7monitor7rx_readEv) refers to _printf_hex_int.o(.text) for _printf_longlong_hex
    monitor.o(i._ZN7monitor7rx_readEv) refers to strtoul.o(.text) for strtoul
    monitor.o(i._ZN7monitor7rx_readEv) refers to mem_controller.o(i._ZN8Mem_ctrl4readEhj) for Mem_ctrl::read(unsigned char, unsigned)
    monitor.o(i._ZN7monitor7rx_readEv) refers to noretval__2sprintf.o(.text) for __2sprintf
    monitor.o(i._ZN7monitor7rx_readEv) refers to common.o(i._Z16Serial_PutStringPKc) for Serial_PutString(const char*)
    monitor.o(i._ZN7monitor7rx_readEv) refers to main.o(.bss) for BUFFER_RX
    monitor.o(i._ZN7monitor7rx_scanEhj) refers to mem_controller.o(i._ZN8Mem_ctrl7read256Ehj) for Mem_ctrl::read256(unsigned char, unsigned)
    monitor.o(i._ZN7monitor7rx_scanEv) refers to _printf_percent.o(.ARM.Collect$$_printf_percent$$00000000) for _printf_percent
    monitor.o(i._ZN7monitor7rx_scanEv) refers to _printf_d.o(.ARM.Collect$$_printf_percent$$00000009) for _printf_d
    monitor.o(i._ZN7monitor7rx_scanEv) refers to _printf_dec.o(.text) for _printf_int_dec
    monitor.o(i._ZN7monitor7rx_scanEv) refers to strtoul.o(.text) for strtoul
    monitor.o(i._ZN7monitor7rx_scanEv) refers to noretval__2sprintf.o(.text) for __2sprintf
    monitor.o(i._ZN7monitor7rx_scanEv) refers to common.o(i._Z16Serial_PutStringPKc) for Serial_PutString(const char*)
    monitor.o(i._ZN7monitor7rx_scanEv) refers to mem_controller.o(i._ZN8Mem_ctrl7read256Ehj) for Mem_ctrl::read256(unsigned char, unsigned)
    monitor.o(i._ZN7monitor8rx_blinkEv) refers to _printf_percent.o(.ARM.Collect$$_printf_percent$$00000000) for _printf_percent
    monitor.o(i._ZN7monitor8rx_blinkEv) refers to _printf_d.o(.ARM.Collect$$_printf_percent$$00000009) for _printf_d
    monitor.o(i._ZN7monitor8rx_blinkEv) refers to _printf_dec.o(.text) for _printf_int_dec
    monitor.o(i._ZN7monitor8rx_blinkEv) refers to strtoul.o(.text) for strtoul
    monitor.o(i._ZN7monitor8rx_blinkEv) refers to noretval__2sprintf.o(.text) for __2sprintf
    monitor.o(i._ZN7monitor8rx_blinkEv) refers to common.o(i._Z16Serial_PutStringPKc) for Serial_PutString(const char*)
    monitor.o(i._ZN7monitor8rx_blinkEv) refers to debug_facilities.o(i._ZN11DebugHelper6updateEj) for DebugHelper::update(unsigned)
    monitor.o(i._ZN7monitor8rx_blinkEv) refers to main.o(.bss) for BUFFER_RX
    monitor.o(i._ZN7monitor8rx_eraseEv) refers to _printf_pad.o(.text) for _printf_pre_padding
    monitor.o(i._ZN7monitor8rx_eraseEv) refers to _printf_percent.o(.ARM.Collect$$_printf_percent$$00000000) for _printf_percent
    monitor.o(i._ZN7monitor8rx_eraseEv) refers to _printf_d.o(.ARM.Collect$$_printf_percent$$00000009) for _printf_d
    monitor.o(i._ZN7monitor8rx_eraseEv) refers to _printf_x.o(.ARM.Collect$$_printf_percent$$0000000C) for _printf_x
    monitor.o(i._ZN7monitor8rx_eraseEv) refers to _printf_dec.o(.text) for _printf_int_dec
    monitor.o(i._ZN7monitor8rx_eraseEv) refers to _printf_hex_int.o(.text) for _printf_longlong_hex
    monitor.o(i._ZN7monitor8rx_eraseEv) refers to strtoul.o(.text) for strtoul
    monitor.o(i._ZN7monitor8rx_eraseEv) refers to noretval__2sprintf.o(.text) for __2sprintf
    monitor.o(i._ZN7monitor8rx_eraseEv) refers to common.o(i._Z16Serial_PutStringPKc) for Serial_PutString(const char*)
    monitor.o(i._ZN7monitor8rx_eraseEv) refers to mem_controller.o(i._ZN8Mem_ctrl5eraseEhj) for Mem_ctrl::erase(unsigned char, unsigned)
    monitor.o(i._ZN7monitor8rx_writeEv) refers to _printf_pad.o(.text) for _printf_pre_padding
    monitor.o(i._ZN7monitor8rx_writeEv) refers to _printf_percent.o(.ARM.Collect$$_printf_percent$$00000000) for _printf_percent
    monitor.o(i._ZN7monitor8rx_writeEv) refers to _printf_x.o(.ARM.Collect$$_printf_percent$$0000000C) for _printf_x
    monitor.o(i._ZN7monitor8rx_writeEv) refers to _printf_hex_int.o(.text) for _printf_longlong_hex
    monitor.o(i._ZN7monitor8rx_writeEv) refers to strtoul.o(.text) for strtoul
    monitor.o(i._ZN7monitor8rx_writeEv) refers to mem_controller.o(i._ZN8Mem_ctrl5writeEhjj) for Mem_ctrl::write(unsigned char, unsigned, unsigned)
    monitor.o(i._ZN7monitor8rx_writeEv) refers to noretval__2sprintf.o(.text) for __2sprintf
    monitor.o(i._ZN7monitor8rx_writeEv) refers to common.o(i._Z16Serial_PutStringPKc) for Serial_PutString(const char*)
    monitor.o(i._ZN7monitor8rx_writeEv) refers to common.o(i.delay) for delay
    monitor.o(i._ZN7monitor8rx_writeEv) refers to mem_controller.o(i._ZN8Mem_ctrl4readEhj) for Mem_ctrl::read(unsigned char, unsigned)
    monitor.o(i._ZN7monitor8rx_writeEv) refers to main.o(.bss) for BUFFER_RX
    monitor.o(i._ZN7monitor9rx_uploadEv) refers to menu.o(i._Z9Main_Menuv) for Main_Menu()
    monitor.o(i._ZN7monitorC1EP15main_controller) refers to rt_memclr.o(.text) for __aeabi_memclr
    monitor.o(i._ZN7monitorC1EP15main_controller) refers to main.o(.bss) for BUFFER_RX
    monitor.o(.ARM.exidx) refers to monitor.o(i._ZN7monitorC1EP15main_controller) for i._ZN7monitorC1EP15main_controller
    monitor.o(.ARM.exidx) refers to monitor.o(i._ZN7monitorD1Ev) for i._ZN7monitorD1Ev
    monitor.o(.ARM.exidx) refers to monitor.o(i._ZN7monitor16rx_reverse_motorEv) for i._ZN7monitor16rx_reverse_motorEv
    monitor.o(.ARM.exidx) refers to monitor.o(i._ZN7monitor8rx_blinkEv) for i._ZN7monitor8rx_blinkEv
    monitor.o(.ARM.exidx) refers to monitor.o(i._ZN7monitor7rx_passEv) for i._ZN7monitor7rx_passEv
    monitor.o(.ARM.exidx) refers to monitor.o(i._ZN7monitor7rx_helpEv) for i._ZN7monitor7rx_helpEv
    monitor.o(.ARM.exidx) refers to monitor.o(i._ZN7monitor12rx_read_backEv) for i._ZN7monitor12rx_read_backEv
    monitor.o(.ARM.exidx) refers to monitor.o(i._ZN7monitor18rx_status_reg_readEv) for i._ZN7monitor18rx_status_reg_readEv
    monitor.o(.ARM.exidx) refers to monitor.o(i._ZN7monitor6rx_adcEv) for i._ZN7monitor6rx_adcEv
    monitor.o(.ARM.exidx) refers to monitor.o(i._ZN7monitor7rx_exitEv) for i._ZN7monitor7rx_exitEv
    monitor.o(.ARM.exidx) refers to monitor.o(i._ZN7monitor8rx_debugEv) for i._ZN7monitor8rx_debugEv
    monitor.o(.ARM.exidx) refers to monitor.o(i._ZN7monitor9rx_uploadEv) for i._ZN7monitor9rx_uploadEv
    monitor.o(.ARM.exidx) refers to monitor.o(i._ZN7monitor14rx_find_pulsesEv) for i._ZN7monitor14rx_find_pulsesEv
    monitor.o(.ARM.exidx) refers to monitor.o(i._ZN7monitor19rx_get_man_id_checkEv) for i._ZN7monitor19rx_get_man_id_checkEv
    monitor.o(.ARM.exidx) refers to monitor.o(i._ZN7monitor13rx_get_man_idEv) for i._ZN7monitor13rx_get_man_idEv
    monitor.o(.ARM.exidx) refers to monitor.o(i._ZN7monitor7rx_scanEhj) for i._ZN7monitor7rx_scanEhj
    monitor.o(.ARM.exidx) refers to monitor.o(i._ZN7monitor10rx_patternEv) for i._ZN7monitor10rx_patternEv
    monitor.o(.ARM.exidx) refers to monitor.o(i._ZN7monitor7rx_scanEv) for i._ZN7monitor7rx_scanEv
    monitor.o(.ARM.exidx) refers to monitor.o(i._ZN7monitor11rx_set_dateEv) for i._ZN7monitor11rx_set_dateEv
    monitor.o(.ARM.exidx) refers to monitor.o(i._ZN7monitor11rx_set_maxiEv) for i._ZN7monitor11rx_set_maxiEv
    monitor.o(.ARM.exidx) refers to monitor.o(i._ZN7monitor13rx_set_serialEv) for i._ZN7monitor13rx_set_serialEv
    monitor.o(.ARM.exidx) refers to monitor.o(i._ZN7monitor12rx_test_readEv) for i._ZN7monitor12rx_test_readEv
    monitor.o(.ARM.exidx) refers to monitor.o(i._ZN7monitor12rx_go_activeEv) for i._ZN7monitor12rx_go_activeEv
    monitor.o(.ARM.exidx) refers to monitor.o(i._ZN7monitor13rx_stop_motorEv) for i._ZN7monitor13rx_stop_motorEv
    monitor.o(.ARM.exidx) refers to monitor.o(i._ZN7monitor14rx_start_motorEv) for i._ZN7monitor14rx_start_motorEv
    monitor.o(.ARM.exidx) refers to monitor.o(i._ZN7monitor7rx_nukeEv) for i._ZN7monitor7rx_nukeEv
    monitor.o(.ARM.exidx) refers to monitor.o(i._ZN7monitor8rx_eraseEv) for i._ZN7monitor8rx_eraseEv
    monitor.o(.ARM.exidx) refers to monitor.o(i._ZN7monitor7rx_readEv) for i._ZN7monitor7rx_readEv
    monitor.o(.ARM.exidx) refers to monitor.o(i._ZN7monitor15rx_status_writeEv) for i._ZN7monitor15rx_status_writeEv
    monitor.o(.ARM.exidx) refers to monitor.o(i._ZN7monitor14rx_status_readEv) for i._ZN7monitor14rx_status_readEv
    monitor.o(.ARM.exidx) refers to monitor.o(i._ZN7monitor8rx_writeEv) for i._ZN7monitor8rx_writeEv
    monitor.o(.ARM.exidx) refers to monitor.o(i._ZN7monitor16parse_input_uartEv) for i._ZN7monitor16parse_input_uartEv
    monitor.o(.ARM.exidx) refers to monitor.o(i._ZN7monitor14serial_consumeEv) for i._ZN7monitor14serial_consumeEv
    gpio.o(i.MX_GPIO_Init) refers to rt_memclr.o(.text) for __aeabi_memclr4
    gpio.o(i.MX_GPIO_Init) refers to stm32f0xx_hal_gpio.o(i.HAL_GPIO_WritePin) for HAL_GPIO_WritePin
    gpio.o(i.MX_GPIO_Init) refers to stm32f0xx_hal_gpio.o(i.HAL_GPIO_Init) for HAL_GPIO_Init
    gpio.o(i.MX_GPIO_Init) refers to stm32f0xx_hal_cortex.o(i.HAL_NVIC_SetPriority) for HAL_NVIC_SetPriority
    gpio.o(i.MX_GPIO_Init) refers to stm32f0xx_hal_cortex.o(i.HAL_NVIC_EnableIRQ) for HAL_NVIC_EnableIRQ
    adc.o(i.HAL_ADC_MspDeInit) refers to stm32f0xx_hal_gpio.o(i.HAL_GPIO_DeInit) for HAL_GPIO_DeInit
    adc.o(i.HAL_ADC_MspDeInit) refers to stm32f0xx_hal_dma.o(i.HAL_DMA_DeInit) for HAL_DMA_DeInit
    adc.o(i.HAL_ADC_MspInit) refers to rt_memclr.o(.text) for __aeabi_memclr4
    adc.o(i.HAL_ADC_MspInit) refers to stm32f0xx_hal_gpio.o(i.HAL_GPIO_Init) for HAL_GPIO_Init
    adc.o(i.HAL_ADC_MspInit) refers to stm32f0xx_hal_dma.o(i.HAL_DMA_Init) for HAL_DMA_Init
    adc.o(i.HAL_ADC_MspInit) refers to main.o(i.Error_Handler) for Error_Handler
    adc.o(i.HAL_ADC_MspInit) refers to adc.o(.bss) for .bss
    adc.o(i.MX_ADC_Init) refers to stm32f0xx_hal_adc.o(i.HAL_ADC_Init) for HAL_ADC_Init
    adc.o(i.MX_ADC_Init) refers to main.o(i.Error_Handler) for Error_Handler
    adc.o(i.MX_ADC_Init) refers to stm32f0xx_hal_adc.o(i.HAL_ADC_ConfigChannel) for HAL_ADC_ConfigChannel
    adc.o(i.MX_ADC_Init) refers to adc.o(.bss) for .bss
    crc.o(i.MX_CRC_Init) refers to stm32f0xx_hal_crc.o(i.HAL_CRC_Init) for HAL_CRC_Init
    crc.o(i.MX_CRC_Init) refers to main.o(i.Error_Handler) for Error_Handler
    crc.o(i.MX_CRC_Init) refers to crc.o(.bss) for .bss
    dma.o(i.MX_DMA_Init) refers to stm32f0xx_hal_cortex.o(i.HAL_NVIC_SetPriority) for HAL_NVIC_SetPriority
    dma.o(i.MX_DMA_Init) refers to stm32f0xx_hal_cortex.o(i.HAL_NVIC_EnableIRQ) for HAL_NVIC_EnableIRQ
    rtc.o(i.MX_RTC_Init) refers to rt_memclr.o(.text) for __aeabi_memclr4
    rtc.o(i.MX_RTC_Init) refers to stm32f0xx_hal_rtc.o(i.HAL_RTC_Init) for HAL_RTC_Init
    rtc.o(i.MX_RTC_Init) refers to main.o(i.Error_Handler) for Error_Handler
    rtc.o(i.MX_RTC_Init) refers to stm32f0xx_hal_rtc.o(i.HAL_RTC_SetTime) for HAL_RTC_SetTime
    rtc.o(i.MX_RTC_Init) refers to stm32f0xx_hal_rtc.o(i.HAL_RTC_SetDate) for HAL_RTC_SetDate
    rtc.o(i.MX_RTC_Init) refers to stm32f0xx_hal_rtc_ex.o(i.HAL_RTCEx_SetTimeStamp) for HAL_RTCEx_SetTimeStamp
    rtc.o(i.MX_RTC_Init) refers to rtc.o(.bss) for .bss
    spi.o(i.HAL_SPI_MspDeInit) refers to stm32f0xx_hal_gpio.o(i.HAL_GPIO_DeInit) for HAL_GPIO_DeInit
    spi.o(i.HAL_SPI_MspInit) refers to rt_memclr.o(.text) for __aeabi_memclr4
    spi.o(i.HAL_SPI_MspInit) refers to stm32f0xx_hal_gpio.o(i.HAL_GPIO_Init) for HAL_GPIO_Init
    spi.o(i.MX_SPI1_Init) refers to stm32f0xx_hal_spi.o(i.HAL_SPI_Init) for HAL_SPI_Init
    spi.o(i.MX_SPI1_Init) refers to main.o(i.Error_Handler) for Error_Handler
    spi.o(i.MX_SPI1_Init) refers to spi.o(.bss) for .bss
    tim.o(i.HAL_TIM_Base_MspDeInit) refers to stm32f0xx_hal_cortex.o(i.HAL_NVIC_DisableIRQ) for HAL_NVIC_DisableIRQ
    tim.o(i.HAL_TIM_Base_MspInit) refers to stm32f0xx_hal_cortex.o(i.HAL_NVIC_SetPriority) for HAL_NVIC_SetPriority
    tim.o(i.HAL_TIM_Base_MspInit) refers to stm32f0xx_hal_cortex.o(i.HAL_NVIC_EnableIRQ) for HAL_NVIC_EnableIRQ
    tim.o(i.MX_TIM16_Init) refers to rt_memclr.o(.text) for __aeabi_memclr4
    tim.o(i.MX_TIM16_Init) refers to stm32f0xx_hal_tim.o(i.HAL_TIM_Base_Init) for HAL_TIM_Base_Init
    tim.o(i.MX_TIM16_Init) refers to main.o(i.Error_Handler) for Error_Handler
    tim.o(i.MX_TIM16_Init) refers to stm32f0xx_hal_tim.o(i.HAL_TIM_OC_Init) for HAL_TIM_OC_Init
    tim.o(i.MX_TIM16_Init) refers to stm32f0xx_hal_tim.o(i.HAL_TIM_OC_ConfigChannel) for HAL_TIM_OC_ConfigChannel
    tim.o(i.MX_TIM16_Init) refers to stm32f0xx_hal_tim_ex.o(i.HAL_TIMEx_ConfigBreakDeadTime) for HAL_TIMEx_ConfigBreakDeadTime
    tim.o(i.MX_TIM16_Init) refers to tim.o(.bss) for .bss
    tim.o(i.MX_TIM2_Init) refers to stm32f0xx_hal_tim.o(i.HAL_TIM_Base_Init) for HAL_TIM_Base_Init
    tim.o(i.MX_TIM2_Init) refers to main.o(i.Error_Handler) for Error_Handler
    tim.o(i.MX_TIM2_Init) refers to stm32f0xx_hal_tim.o(i.HAL_TIM_ConfigClockSource) for HAL_TIM_ConfigClockSource
    tim.o(i.MX_TIM2_Init) refers to stm32f0xx_hal_tim_ex.o(i.HAL_TIMEx_MasterConfigSynchronization) for HAL_TIMEx_MasterConfigSynchronization
    tim.o(i.MX_TIM2_Init) refers to tim.o(.bss) for .bss
    tim.o(i.MX_TIM3_Init) refers to stm32f0xx_hal_tim.o(i.HAL_TIM_Base_Init) for HAL_TIM_Base_Init
    tim.o(i.MX_TIM3_Init) refers to main.o(i.Error_Handler) for Error_Handler
    tim.o(i.MX_TIM3_Init) refers to stm32f0xx_hal_tim.o(i.HAL_TIM_ConfigClockSource) for HAL_TIM_ConfigClockSource
    tim.o(i.MX_TIM3_Init) refers to stm32f0xx_hal_tim_ex.o(i.HAL_TIMEx_MasterConfigSynchronization) for HAL_TIMEx_MasterConfigSynchronization
    tim.o(i.MX_TIM3_Init) refers to tim.o(.bss) for .bss
    usart.o(i.HAL_UART_MspDeInit) refers to stm32f0xx_hal_gpio.o(i.HAL_GPIO_DeInit) for HAL_GPIO_DeInit
    usart.o(i.HAL_UART_MspDeInit) refers to stm32f0xx_hal_cortex.o(i.HAL_NVIC_DisableIRQ) for HAL_NVIC_DisableIRQ
    usart.o(i.HAL_UART_MspInit) refers to rt_memclr.o(.text) for __aeabi_memclr4
    usart.o(i.HAL_UART_MspInit) refers to stm32f0xx_hal_gpio.o(i.HAL_GPIO_Init) for HAL_GPIO_Init
    usart.o(i.HAL_UART_MspInit) refers to stm32f0xx_hal_cortex.o(i.HAL_NVIC_SetPriority) for HAL_NVIC_SetPriority
    usart.o(i.HAL_UART_MspInit) refers to stm32f0xx_hal_cortex.o(i.HAL_NVIC_EnableIRQ) for HAL_NVIC_EnableIRQ
    usart.o(i.MX_USART1_UART_Init) refers to stm32f0xx_hal_uart.o(i.HAL_UART_Init) for HAL_UART_Init
    usart.o(i.MX_USART1_UART_Init) refers to main.o(i.Error_Handler) for Error_Handler
    usart.o(i.MX_USART1_UART_Init) refers to usart.o(.bss) for .bss
    usart.o(i.MX_USART2_UART_Init) refers to stm32f0xx_hal_uart.o(i.HAL_UART_Init) for HAL_UART_Init
    usart.o(i.MX_USART2_UART_Init) refers to main.o(i.Error_Handler) for Error_Handler
    usart.o(i.MX_USART2_UART_Init) refers to usart.o(.bss) for .bss
    stm32f0xx_it.o(i.DMA1_Channel1_IRQHandler) refers to stm32f0xx_hal_dma.o(i.HAL_DMA_IRQHandler) for HAL_DMA_IRQHandler
    stm32f0xx_it.o(i.DMA1_Channel1_IRQHandler) refers to adc.o(.bss) for hdma_adc
    stm32f0xx_it.o(i.EXTI2_3_IRQHandler) refers to stm32f0xx_it.o(i.cs3) for cs3
    stm32f0xx_it.o(i.EXTI2_3_IRQHandler) refers to common.o(i.delay) for delay
    stm32f0xx_it.o(i.EXTI2_3_IRQHandler) refers to stm32f0xx_it.o(i.write_once) for write_once
    stm32f0xx_it.o(i.EXTI2_3_IRQHandler) refers to stm32f0xx_hal_gpio.o(i.HAL_GPIO_WritePin) for HAL_GPIO_WritePin
    stm32f0xx_it.o(i.EXTI2_3_IRQHandler) refers to stm32f0xx_hal_gpio.o(i.HAL_GPIO_EXTI_IRQHandler) for HAL_GPIO_EXTI_IRQHandler
    stm32f0xx_it.o(i.EXTI2_3_IRQHandler) refers to stm32f0xx_it.o(.data) for .data
    stm32f0xx_it.o(i.EXTI2_3_IRQHandler) refers to main.o(.bss) for pf_memory
    stm32f0xx_it.o(i.TIM16_IRQHandler) refers to stm32f0xx_it.o(i.test_for_reset_press) for test_for_reset_press
    stm32f0xx_it.o(i.TIM16_IRQHandler) refers to stm32f0xx_hal_tim.o(i.HAL_TIM_IRQHandler) for HAL_TIM_IRQHandler
    stm32f0xx_it.o(i.TIM16_IRQHandler) refers to main.o(.data) for RESET_PRESSED
    stm32f0xx_it.o(i.TIM16_IRQHandler) refers to tim.o(.bss) for htim16
    stm32f0xx_it.o(i.TIM1_BRK_UP_TRG_COM_IRQHandler) refers to stm32f0xx_hal_tim.o(i.HAL_TIM_IRQHandler) for HAL_TIM_IRQHandler
    stm32f0xx_it.o(i.TIM1_BRK_UP_TRG_COM_IRQHandler) refers to stm32f0xx_hal_timebase_tim.o(.bss) for htim1
    stm32f0xx_it.o(i.USART1_IRQHandler) refers to stm32f0xx_hal_uart.o(i.HAL_UART_IRQHandler) for HAL_UART_IRQHandler
    stm32f0xx_it.o(i.USART1_IRQHandler) refers to usart.o(.bss) for huart1
    stm32f0xx_it.o(i.cs3) refers to stm32f0xx_it.o(i.cs_generic) for cs_generic
    stm32f0xx_it.o(i.cs_generic) refers to stm32f0xx_hal_spi.o(i.HAL_SPI_Transmit) for HAL_SPI_Transmit
    stm32f0xx_it.o(i.cs_generic) refers to stm32f0xx_it.o(i.pull_chipselet_line) for pull_chipselet_line
    stm32f0xx_it.o(i.cs_generic) refers to spi.o(.bss) for hspi1
    stm32f0xx_it.o(i.pull_chipselet_line) refers to stm32f0xx_hal_gpio.o(i.HAL_GPIO_WritePin) for HAL_GPIO_WritePin
    stm32f0xx_it.o(i.read) refers to stm32f0xx_hal_spi.o(i.HAL_SPI_Transmit) for HAL_SPI_Transmit
    stm32f0xx_it.o(i.read) refers to common.o(i.translate_int_to_address) for translate_int_to_address
    stm32f0xx_it.o(i.read) refers to stm32f0xx_hal_spi.o(i.HAL_SPI_Receive) for HAL_SPI_Receive
    stm32f0xx_it.o(i.read) refers to common.o(i.translate_address_to_int) for translate_address_to_int
    stm32f0xx_it.o(i.read) refers to spi.o(.bss) for hspi1
    stm32f0xx_it.o(i.read_reset_button) refers to stm32f0xx_hal_gpio.o(i.HAL_GPIO_ReadPin) for HAL_GPIO_ReadPin
    stm32f0xx_it.o(i.test_for_reset_press) refers to stm32f0xx_it.o(i.read_reset_button) for read_reset_button
    stm32f0xx_it.o(i.test_for_reset_press) refers to stm32f0xx_it.o(.data) for .data
    stm32f0xx_it.o(i.write) refers to common.o(i.translate_int_to_address) for translate_int_to_address
    stm32f0xx_it.o(i.write) refers to common.o(i.translate_int_to_arr) for translate_int_to_arr
    stm32f0xx_it.o(i.write) refers to stm32f0xx_hal_spi.o(i.HAL_SPI_Transmit) for HAL_SPI_Transmit
    stm32f0xx_it.o(i.write) refers to spi.o(.bss) for hspi1
    stm32f0xx_it.o(i.write_disable) refers to stm32f0xx_hal_spi.o(i.HAL_SPI_Transmit) for HAL_SPI_Transmit
    stm32f0xx_it.o(i.write_disable) refers to spi.o(.bss) for hspi1
    stm32f0xx_it.o(i.write_enable) refers to stm32f0xx_hal_spi.o(i.HAL_SPI_Transmit) for HAL_SPI_Transmit
    stm32f0xx_it.o(i.write_enable) refers to spi.o(.bss) for hspi1
    stm32f0xx_it.o(i.write_once) refers to stm32f0xx_it.o(i.cs3) for cs3
    stm32f0xx_it.o(i.write_once) refers to stm32f0xx_it.o(i.write_enable) for write_enable
    stm32f0xx_it.o(i.write_once) refers to common.o(i.delay) for delay
    stm32f0xx_it.o(i.write_once) refers to stm32f0xx_it.o(i.write) for write
    stm32f0xx_it.o(i.write_once) refers to stm32f0xx_hal.o(i.HAL_Delay) for HAL_Delay
    stm32f0xx_it.o(i.write_once) refers to stm32f0xx_it.o(i.write_disable) for write_disable
    stm32f0xx_it.o(i.write_once) refers to stm32f0xx_it.o(i.read) for read
    stm32f0xx_it.o(i.write_once) refers to stm32f0xx_it.o(.data) for .data
    stm32f0xx_hal_timebase_tim.o(i.HAL_InitTick) refers to stm32f0xx_hal_cortex.o(i.HAL_NVIC_SetPriority) for HAL_NVIC_SetPriority
    stm32f0xx_hal_timebase_tim.o(i.HAL_InitTick) refers to stm32f0xx_hal_cortex.o(i.HAL_NVIC_EnableIRQ) for HAL_NVIC_EnableIRQ
    stm32f0xx_hal_timebase_tim.o(i.HAL_InitTick) refers to stm32f0xx_hal_rcc.o(i.HAL_RCC_GetClockConfig) for HAL_RCC_GetClockConfig
    stm32f0xx_hal_timebase_tim.o(i.HAL_InitTick) refers to stm32f0xx_hal_rcc.o(i.HAL_RCC_GetPCLK1Freq) for HAL_RCC_GetPCLK1Freq
    stm32f0xx_hal_timebase_tim.o(i.HAL_InitTick) refers to aeabi_sdiv.o(.text) for __aeabi_uidivmod
    stm32f0xx_hal_timebase_tim.o(i.HAL_InitTick) refers to stm32f0xx_hal_tim.o(i.HAL_TIM_Base_Init) for HAL_TIM_Base_Init
    stm32f0xx_hal_timebase_tim.o(i.HAL_InitTick) refers to stm32f0xx_hal_tim.o(i.HAL_TIM_Base_Start_IT) for HAL_TIM_Base_Start_IT
    stm32f0xx_hal_timebase_tim.o(i.HAL_InitTick) refers to stm32f0xx_hal_timebase_tim.o(.bss) for .bss
    stm32f0xx_hal_timebase_tim.o(i.HAL_ResumeTick) refers to stm32f0xx_hal_timebase_tim.o(.bss) for .bss
    stm32f0xx_hal_timebase_tim.o(i.HAL_SuspendTick) refers to stm32f0xx_hal_timebase_tim.o(.bss) for .bss
    stm32f0xx_hal_adc.o(i.ADC_ConversionStop) refers to stm32f0xx_hal.o(i.HAL_GetTick) for HAL_GetTick
    stm32f0xx_hal_adc.o(i.ADC_DMAConvCplt) refers to main.o(i.HAL_ADC_ConvCpltCallback) for HAL_ADC_ConvCpltCallback
    stm32f0xx_hal_adc.o(i.ADC_DMAError) refers to stm32f0xx_hal_adc.o(i.HAL_ADC_ErrorCallback) for HAL_ADC_ErrorCallback
    stm32f0xx_hal_adc.o(i.ADC_DMAHalfConvCplt) refers to stm32f0xx_hal_adc.o(i.HAL_ADC_ConvHalfCpltCallback) for HAL_ADC_ConvHalfCpltCallback
    stm32f0xx_hal_adc.o(i.ADC_Disable) refers to stm32f0xx_hal.o(i.HAL_GetTick) for HAL_GetTick
    stm32f0xx_hal_adc.o(i.ADC_Enable) refers to aeabi_sdiv.o(.text) for __aeabi_uidivmod
    stm32f0xx_hal_adc.o(i.ADC_Enable) refers to stm32f0xx_hal.o(i.HAL_GetTick) for HAL_GetTick
    stm32f0xx_hal_adc.o(i.ADC_Enable) refers to system_stm32f0xx.o(.data) for SystemCoreClock
    stm32f0xx_hal_adc.o(i.HAL_ADC_ConfigChannel) refers to aeabi_sdiv.o(.text) for __aeabi_uidivmod
    stm32f0xx_hal_adc.o(i.HAL_ADC_ConfigChannel) refers to system_stm32f0xx.o(.data) for SystemCoreClock
    stm32f0xx_hal_adc.o(i.HAL_ADC_DeInit) refers to stm32f0xx_hal_adc.o(i.ADC_ConversionStop) for ADC_ConversionStop
    stm32f0xx_hal_adc.o(i.HAL_ADC_DeInit) refers to adc.o(i.HAL_ADC_MspDeInit) for HAL_ADC_MspDeInit
    stm32f0xx_hal_adc.o(i.HAL_ADC_DeInit) refers to stm32f0xx_hal_adc.o(i.ADC_Disable) for ADC_Disable
    stm32f0xx_hal_adc.o(i.HAL_ADC_IRQHandler) refers to main.o(i.HAL_ADC_ConvCpltCallback) for HAL_ADC_ConvCpltCallback
    stm32f0xx_hal_adc.o(i.HAL_ADC_IRQHandler) refers to stm32f0xx_hal_adc.o(i.HAL_ADC_LevelOutOfWindowCallback) for HAL_ADC_LevelOutOfWindowCallback
    stm32f0xx_hal_adc.o(i.HAL_ADC_IRQHandler) refers to stm32f0xx_hal_adc.o(i.HAL_ADC_ErrorCallback) for HAL_ADC_ErrorCallback
    stm32f0xx_hal_adc.o(i.HAL_ADC_Init) refers to adc.o(i.HAL_ADC_MspInit) for HAL_ADC_MspInit
    stm32f0xx_hal_adc.o(i.HAL_ADC_PollForConversion) refers to stm32f0xx_hal.o(i.HAL_GetTick) for HAL_GetTick
    stm32f0xx_hal_adc.o(i.HAL_ADC_PollForEvent) refers to stm32f0xx_hal.o(i.HAL_GetTick) for HAL_GetTick
    stm32f0xx_hal_adc.o(i.HAL_ADC_Start) refers to stm32f0xx_hal_adc.o(i.ADC_Enable) for ADC_Enable
    stm32f0xx_hal_adc.o(i.HAL_ADC_Start_DMA) refers to stm32f0xx_hal_adc.o(i.ADC_Enable) for ADC_Enable
    stm32f0xx_hal_adc.o(i.HAL_ADC_Start_DMA) refers to stm32f0xx_hal_dma.o(i.HAL_DMA_Start_IT) for HAL_DMA_Start_IT
    stm32f0xx_hal_adc.o(i.HAL_ADC_Start_DMA) refers to stm32f0xx_hal_adc.o(i.ADC_DMAConvCplt) for ADC_DMAConvCplt
    stm32f0xx_hal_adc.o(i.HAL_ADC_Start_DMA) refers to stm32f0xx_hal_adc.o(i.ADC_DMAHalfConvCplt) for ADC_DMAHalfConvCplt
    stm32f0xx_hal_adc.o(i.HAL_ADC_Start_DMA) refers to stm32f0xx_hal_adc.o(i.ADC_DMAError) for ADC_DMAError
    stm32f0xx_hal_adc.o(i.HAL_ADC_Start_IT) refers to stm32f0xx_hal_adc.o(i.ADC_Enable) for ADC_Enable
    stm32f0xx_hal_adc.o(i.HAL_ADC_Stop) refers to stm32f0xx_hal_adc.o(i.ADC_ConversionStop) for ADC_ConversionStop
    stm32f0xx_hal_adc.o(i.HAL_ADC_Stop) refers to stm32f0xx_hal_adc.o(i.ADC_Disable) for ADC_Disable
    stm32f0xx_hal_adc.o(i.HAL_ADC_Stop_DMA) refers to stm32f0xx_hal_adc.o(i.ADC_ConversionStop) for ADC_ConversionStop
    stm32f0xx_hal_adc.o(i.HAL_ADC_Stop_DMA) refers to stm32f0xx_hal_dma.o(i.HAL_DMA_Abort) for HAL_DMA_Abort
    stm32f0xx_hal_adc.o(i.HAL_ADC_Stop_DMA) refers to stm32f0xx_hal_adc.o(i.ADC_Disable) for ADC_Disable
    stm32f0xx_hal_adc.o(i.HAL_ADC_Stop_IT) refers to stm32f0xx_hal_adc.o(i.ADC_ConversionStop) for ADC_ConversionStop
    stm32f0xx_hal_adc.o(i.HAL_ADC_Stop_IT) refers to stm32f0xx_hal_adc.o(i.ADC_Disable) for ADC_Disable
    stm32f0xx_hal_adc_ex.o(i.HAL_ADCEx_Calibration_Start) refers to stm32f0xx_hal.o(i.HAL_GetTick) for HAL_GetTick
    stm32f0xx_hal_crc.o(i.CRC_Handle_16) refers to uread4.o(.text) for __aeabi_uread4
    stm32f0xx_hal_crc.o(i.CRC_Handle_8) refers to uread4.o(.text) for __aeabi_uread4
    stm32f0xx_hal_crc.o(i.HAL_CRC_Accumulate) refers to stm32f0xx_hal_crc.o(i.CRC_Handle_8) for CRC_Handle_8
    stm32f0xx_hal_crc.o(i.HAL_CRC_Accumulate) refers to stm32f0xx_hal_crc.o(i.CRC_Handle_16) for CRC_Handle_16
    stm32f0xx_hal_crc.o(i.HAL_CRC_Calculate) refers to stm32f0xx_hal_crc.o(i.CRC_Handle_8) for CRC_Handle_8
    stm32f0xx_hal_crc.o(i.HAL_CRC_Calculate) refers to stm32f0xx_hal_crc.o(i.CRC_Handle_16) for CRC_Handle_16
    stm32f0xx_hal_crc.o(i.HAL_CRC_DeInit) refers to crc.o(i.HAL_CRC_MspDeInit) for HAL_CRC_MspDeInit
    stm32f0xx_hal_crc.o(i.HAL_CRC_Init) refers to crc.o(i.HAL_CRC_MspInit) for HAL_CRC_MspInit
    stm32f0xx_hal_crc.o(i.HAL_CRC_Init) refers to stm32f0xx_hal_crc_ex.o(i.HAL_CRCEx_Init) for HAL_CRCEx_Init
    stm32f0xx_hal_crc_ex.o(i.HAL_CRCEx_Init) refers to stm32f0xx_hal_crc_ex.o(i.HAL_CRCEx_Polynomial_Set) for HAL_CRCEx_Polynomial_Set
    stm32f0xx_hal_rtc.o(i.HAL_RTC_AlarmIRQHandler) refers to stm32f0xx_hal_rtc.o(i.HAL_RTC_AlarmAEventCallback) for HAL_RTC_AlarmAEventCallback
    stm32f0xx_hal_rtc.o(i.HAL_RTC_DeInit) refers to stm32f0xx_hal_rtc.o(i.RTC_EnterInitMode) for RTC_EnterInitMode
    stm32f0xx_hal_rtc.o(i.HAL_RTC_DeInit) refers to stm32f0xx_hal.o(i.HAL_GetTick) for HAL_GetTick
    stm32f0xx_hal_rtc.o(i.HAL_RTC_DeInit) refers to stm32f0xx_hal_rtc.o(i.HAL_RTC_WaitForSynchro) for HAL_RTC_WaitForSynchro
    stm32f0xx_hal_rtc.o(i.HAL_RTC_DeInit) refers to rtc.o(i.HAL_RTC_MspDeInit) for HAL_RTC_MspDeInit
    stm32f0xx_hal_rtc.o(i.HAL_RTC_DeactivateAlarm) refers to stm32f0xx_hal.o(i.HAL_GetTick) for HAL_GetTick
    stm32f0xx_hal_rtc.o(i.HAL_RTC_GetAlarm) refers to stm32f0xx_hal_rtc.o(i.RTC_Bcd2ToByte) for RTC_Bcd2ToByte
    stm32f0xx_hal_rtc.o(i.HAL_RTC_GetDate) refers to stm32f0xx_hal_rtc.o(i.RTC_Bcd2ToByte) for RTC_Bcd2ToByte
    stm32f0xx_hal_rtc.o(i.HAL_RTC_GetTime) refers to stm32f0xx_hal_rtc.o(i.RTC_Bcd2ToByte) for RTC_Bcd2ToByte
    stm32f0xx_hal_rtc.o(i.HAL_RTC_Init) refers to rtc.o(i.HAL_RTC_MspInit) for HAL_RTC_MspInit
    stm32f0xx_hal_rtc.o(i.HAL_RTC_Init) refers to stm32f0xx_hal_rtc.o(i.RTC_EnterInitMode) for RTC_EnterInitMode
    stm32f0xx_hal_rtc.o(i.HAL_RTC_Init) refers to stm32f0xx_hal_rtc.o(i.HAL_RTC_WaitForSynchro) for HAL_RTC_WaitForSynchro
    stm32f0xx_hal_rtc.o(i.HAL_RTC_PollForAlarmAEvent) refers to stm32f0xx_hal.o(i.HAL_GetTick) for HAL_GetTick
    stm32f0xx_hal_rtc.o(i.HAL_RTC_SetAlarm) refers to stm32f0xx_hal_rtc.o(i.RTC_Bcd2ToByte) for RTC_Bcd2ToByte
    stm32f0xx_hal_rtc.o(i.HAL_RTC_SetAlarm) refers to stm32f0xx_hal.o(i.HAL_GetTick) for HAL_GetTick
    stm32f0xx_hal_rtc.o(i.HAL_RTC_SetAlarm) refers to stm32f0xx_hal_rtc.o(i.RTC_ByteToBcd2) for RTC_ByteToBcd2
    stm32f0xx_hal_rtc.o(i.HAL_RTC_SetAlarm_IT) refers to stm32f0xx_hal_rtc.o(i.RTC_Bcd2ToByte) for RTC_Bcd2ToByte
    stm32f0xx_hal_rtc.o(i.HAL_RTC_SetAlarm_IT) refers to stm32f0xx_hal.o(i.HAL_GetTick) for HAL_GetTick
    stm32f0xx_hal_rtc.o(i.HAL_RTC_SetAlarm_IT) refers to stm32f0xx_hal_rtc.o(i.RTC_ByteToBcd2) for RTC_ByteToBcd2
    stm32f0xx_hal_rtc.o(i.HAL_RTC_SetDate) refers to stm32f0xx_hal_rtc.o(i.RTC_Bcd2ToByte) for RTC_Bcd2ToByte
    stm32f0xx_hal_rtc.o(i.HAL_RTC_SetDate) refers to stm32f0xx_hal_rtc.o(i.RTC_ByteToBcd2) for RTC_ByteToBcd2
    stm32f0xx_hal_rtc.o(i.HAL_RTC_SetDate) refers to stm32f0xx_hal_rtc.o(i.RTC_EnterInitMode) for RTC_EnterInitMode
    stm32f0xx_hal_rtc.o(i.HAL_RTC_SetDate) refers to stm32f0xx_hal_rtc.o(i.HAL_RTC_WaitForSynchro) for HAL_RTC_WaitForSynchro
    stm32f0xx_hal_rtc.o(i.HAL_RTC_SetTime) refers to stm32f0xx_hal_rtc.o(i.RTC_Bcd2ToByte) for RTC_Bcd2ToByte
    stm32f0xx_hal_rtc.o(i.HAL_RTC_SetTime) refers to stm32f0xx_hal_rtc.o(i.RTC_ByteToBcd2) for RTC_ByteToBcd2
    stm32f0xx_hal_rtc.o(i.HAL_RTC_SetTime) refers to stm32f0xx_hal_rtc.o(i.RTC_EnterInitMode) for RTC_EnterInitMode
    stm32f0xx_hal_rtc.o(i.HAL_RTC_SetTime) refers to stm32f0xx_hal_rtc.o(i.HAL_RTC_WaitForSynchro) for HAL_RTC_WaitForSynchro
    stm32f0xx_hal_rtc.o(i.HAL_RTC_WaitForSynchro) refers to stm32f0xx_hal.o(i.HAL_GetTick) for HAL_GetTick
    stm32f0xx_hal_rtc.o(i.RTC_EnterInitMode) refers to stm32f0xx_hal.o(i.HAL_GetTick) for HAL_GetTick
    stm32f0xx_hal_rtc_ex.o(i.HAL_RTCEx_DeactivateRefClock) refers to stm32f0xx_hal_rtc.o(i.RTC_EnterInitMode) for RTC_EnterInitMode
    stm32f0xx_hal_rtc_ex.o(i.HAL_RTCEx_DeactivateWakeUpTimer) refers to stm32f0xx_hal.o(i.HAL_GetTick) for HAL_GetTick
    stm32f0xx_hal_rtc_ex.o(i.HAL_RTCEx_GetTimeStamp) refers to stm32f0xx_hal_rtc.o(i.RTC_Bcd2ToByte) for RTC_Bcd2ToByte
    stm32f0xx_hal_rtc_ex.o(i.HAL_RTCEx_PollForTamper1Event) refers to stm32f0xx_hal.o(i.HAL_GetTick) for HAL_GetTick
    stm32f0xx_hal_rtc_ex.o(i.HAL_RTCEx_PollForTamper2Event) refers to stm32f0xx_hal.o(i.HAL_GetTick) for HAL_GetTick
    stm32f0xx_hal_rtc_ex.o(i.HAL_RTCEx_PollForTamper3Event) refers to stm32f0xx_hal.o(i.HAL_GetTick) for HAL_GetTick
    stm32f0xx_hal_rtc_ex.o(i.HAL_RTCEx_PollForTimeStampEvent) refers to stm32f0xx_hal.o(i.HAL_GetTick) for HAL_GetTick
    stm32f0xx_hal_rtc_ex.o(i.HAL_RTCEx_PollForWakeUpTimerEvent) refers to stm32f0xx_hal.o(i.HAL_GetTick) for HAL_GetTick
    stm32f0xx_hal_rtc_ex.o(i.HAL_RTCEx_SetRefClock) refers to stm32f0xx_hal_rtc.o(i.RTC_EnterInitMode) for RTC_EnterInitMode
    stm32f0xx_hal_rtc_ex.o(i.HAL_RTCEx_SetSmoothCalib) refers to stm32f0xx_hal.o(i.HAL_GetTick) for HAL_GetTick
    stm32f0xx_hal_rtc_ex.o(i.HAL_RTCEx_SetSynchroShift) refers to stm32f0xx_hal.o(i.HAL_GetTick) for HAL_GetTick
    stm32f0xx_hal_rtc_ex.o(i.HAL_RTCEx_SetSynchroShift) refers to stm32f0xx_hal_rtc.o(i.HAL_RTC_WaitForSynchro) for HAL_RTC_WaitForSynchro
    stm32f0xx_hal_rtc_ex.o(i.HAL_RTCEx_SetWakeUpTimer) refers to stm32f0xx_hal.o(i.HAL_GetTick) for HAL_GetTick
    stm32f0xx_hal_rtc_ex.o(i.HAL_RTCEx_SetWakeUpTimer_IT) refers to stm32f0xx_hal.o(i.HAL_GetTick) for HAL_GetTick
    stm32f0xx_hal_rtc_ex.o(i.HAL_RTCEx_TamperTimeStampIRQHandler) refers to stm32f0xx_hal_rtc_ex.o(i.HAL_RTCEx_TimeStampEventCallback) for HAL_RTCEx_TimeStampEventCallback
    stm32f0xx_hal_rtc_ex.o(i.HAL_RTCEx_TamperTimeStampIRQHandler) refers to stm32f0xx_hal_rtc_ex.o(i.HAL_RTCEx_Tamper1EventCallback) for HAL_RTCEx_Tamper1EventCallback
    stm32f0xx_hal_rtc_ex.o(i.HAL_RTCEx_TamperTimeStampIRQHandler) refers to stm32f0xx_hal_rtc_ex.o(i.HAL_RTCEx_Tamper2EventCallback) for HAL_RTCEx_Tamper2EventCallback
    stm32f0xx_hal_rtc_ex.o(i.HAL_RTCEx_TamperTimeStampIRQHandler) refers to stm32f0xx_hal_rtc_ex.o(i.HAL_RTCEx_Tamper3EventCallback) for HAL_RTCEx_Tamper3EventCallback
    stm32f0xx_hal_rtc_ex.o(i.HAL_RTCEx_WakeUpTimerIRQHandler) refers to stm32f0xx_hal_rtc_ex.o(i.HAL_RTCEx_WakeUpTimerEventCallback) for HAL_RTCEx_WakeUpTimerEventCallback
    stm32f0xx_hal_spi.o(i.HAL_SPI_Abort) refers to aeabi_sdiv.o(.text) for __aeabi_uidivmod
    stm32f0xx_hal_spi.o(i.HAL_SPI_Abort) refers to stm32f0xx_hal_dma.o(i.HAL_DMA_Abort) for HAL_DMA_Abort
    stm32f0xx_hal_spi.o(i.HAL_SPI_Abort) refers to stm32f0xx_hal.o(i.HAL_GetTick) for HAL_GetTick
    stm32f0xx_hal_spi.o(i.HAL_SPI_Abort) refers to stm32f0xx_hal_spi.o(i.SPI_EndRxTxTransaction) for SPI_EndRxTxTransaction
    stm32f0xx_hal_spi.o(i.HAL_SPI_Abort) refers to stm32f0xx_hal_spi.o(i.SPI_WaitFifoStateUntilTimeout) for SPI_WaitFifoStateUntilTimeout
    stm32f0xx_hal_spi.o(i.HAL_SPI_Abort) refers to stm32f0xx_hal_spi.o(i.SPI_WaitFlagStateUntilTimeout) for SPI_WaitFlagStateUntilTimeout
    stm32f0xx_hal_spi.o(i.HAL_SPI_Abort) refers to system_stm32f0xx.o(.data) for SystemCoreClock
    stm32f0xx_hal_spi.o(i.HAL_SPI_Abort) refers to stm32f0xx_hal_spi.o(i.SPI_AbortTx_ISR) for SPI_AbortTx_ISR
    stm32f0xx_hal_spi.o(i.HAL_SPI_Abort) refers to stm32f0xx_hal_spi.o(i.SPI_AbortRx_ISR) for SPI_AbortRx_ISR
    stm32f0xx_hal_spi.o(i.HAL_SPI_Abort_IT) refers to aeabi_sdiv.o(.text) for __aeabi_uidivmod
    stm32f0xx_hal_spi.o(i.HAL_SPI_Abort_IT) refers to stm32f0xx_hal_dma.o(i.HAL_DMA_Abort_IT) for HAL_DMA_Abort_IT
    stm32f0xx_hal_spi.o(i.HAL_SPI_Abort_IT) refers to stm32f0xx_hal_spi.o(i.HAL_SPI_AbortCpltCallback) for HAL_SPI_AbortCpltCallback
    stm32f0xx_hal_spi.o(i.HAL_SPI_Abort_IT) refers to system_stm32f0xx.o(.data) for SystemCoreClock
    stm32f0xx_hal_spi.o(i.HAL_SPI_Abort_IT) refers to stm32f0xx_hal_spi.o(i.SPI_AbortTx_ISR) for SPI_AbortTx_ISR
    stm32f0xx_hal_spi.o(i.HAL_SPI_Abort_IT) refers to stm32f0xx_hal_spi.o(i.SPI_AbortRx_ISR) for SPI_AbortRx_ISR
    stm32f0xx_hal_spi.o(i.HAL_SPI_Abort_IT) refers to stm32f0xx_hal_spi.o(i.SPI_DMATxAbortCallback) for SPI_DMATxAbortCallback
    stm32f0xx_hal_spi.o(i.HAL_SPI_Abort_IT) refers to stm32f0xx_hal_spi.o(i.SPI_DMARxAbortCallback) for SPI_DMARxAbortCallback
    stm32f0xx_hal_spi.o(i.HAL_SPI_DMAStop) refers to stm32f0xx_hal_dma.o(i.HAL_DMA_Abort) for HAL_DMA_Abort
    stm32f0xx_hal_spi.o(i.HAL_SPI_DeInit) refers to spi.o(i.HAL_SPI_MspDeInit) for HAL_SPI_MspDeInit
    stm32f0xx_hal_spi.o(i.HAL_SPI_IRQHandler) refers to stm32f0xx_hal_dma.o(i.HAL_DMA_Abort_IT) for HAL_DMA_Abort_IT
    stm32f0xx_hal_spi.o(i.HAL_SPI_IRQHandler) refers to stm32f0xx_hal_spi.o(i.HAL_SPI_ErrorCallback) for HAL_SPI_ErrorCallback
    stm32f0xx_hal_spi.o(i.HAL_SPI_IRQHandler) refers to stm32f0xx_hal_spi.o(i.SPI_DMAAbortOnError) for SPI_DMAAbortOnError
    stm32f0xx_hal_spi.o(i.HAL_SPI_Init) refers to spi.o(i.HAL_SPI_MspInit) for HAL_SPI_MspInit
    stm32f0xx_hal_spi.o(i.HAL_SPI_Receive) refers to stm32f0xx_hal.o(i.HAL_GetTick) for HAL_GetTick
    stm32f0xx_hal_spi.o(i.HAL_SPI_Receive) refers to stm32f0xx_hal_spi.o(i.HAL_SPI_TransmitReceive) for HAL_SPI_TransmitReceive
    stm32f0xx_hal_spi.o(i.HAL_SPI_Receive) refers to stm32f0xx_hal_spi.o(i.SPI_EndRxTransaction) for SPI_EndRxTransaction
    stm32f0xx_hal_spi.o(i.HAL_SPI_Receive_DMA) refers to stm32f0xx_hal_spi.o(i.HAL_SPI_TransmitReceive_DMA) for HAL_SPI_TransmitReceive_DMA
    stm32f0xx_hal_spi.o(i.HAL_SPI_Receive_DMA) refers to stm32f0xx_hal_dma.o(i.HAL_DMA_Start_IT) for HAL_DMA_Start_IT
    stm32f0xx_hal_spi.o(i.HAL_SPI_Receive_DMA) refers to stm32f0xx_hal_spi.o(i.SPI_DMAHalfReceiveCplt) for SPI_DMAHalfReceiveCplt
    stm32f0xx_hal_spi.o(i.HAL_SPI_Receive_DMA) refers to stm32f0xx_hal_spi.o(i.SPI_DMAReceiveCplt) for SPI_DMAReceiveCplt
    stm32f0xx_hal_spi.o(i.HAL_SPI_Receive_DMA) refers to stm32f0xx_hal_spi.o(i.SPI_DMAError) for SPI_DMAError
    stm32f0xx_hal_spi.o(i.HAL_SPI_Receive_IT) refers to stm32f0xx_hal_spi.o(i.HAL_SPI_TransmitReceive_IT) for HAL_SPI_TransmitReceive_IT
    stm32f0xx_hal_spi.o(i.HAL_SPI_Receive_IT) refers to stm32f0xx_hal_spi.o(i.SPI_RxISR_16BIT) for SPI_RxISR_16BIT
    stm32f0xx_hal_spi.o(i.HAL_SPI_Receive_IT) refers to stm32f0xx_hal_spi.o(i.SPI_RxISR_8BIT) for SPI_RxISR_8BIT
    stm32f0xx_hal_spi.o(i.HAL_SPI_Transmit) refers to stm32f0xx_hal.o(i.HAL_GetTick) for HAL_GetTick
    stm32f0xx_hal_spi.o(i.HAL_SPI_Transmit) refers to stm32f0xx_hal_spi.o(i.SPI_EndRxTxTransaction) for SPI_EndRxTxTransaction
    stm32f0xx_hal_spi.o(i.HAL_SPI_TransmitReceive) refers to stm32f0xx_hal.o(i.HAL_GetTick) for HAL_GetTick
    stm32f0xx_hal_spi.o(i.HAL_SPI_TransmitReceive) refers to stm32f0xx_hal_spi.o(i.SPI_EndRxTxTransaction) for SPI_EndRxTxTransaction
    stm32f0xx_hal_spi.o(i.HAL_SPI_TransmitReceive_DMA) refers to stm32f0xx_hal_dma.o(i.HAL_DMA_Start_IT) for HAL_DMA_Start_IT
    stm32f0xx_hal_spi.o(i.HAL_SPI_TransmitReceive_DMA) refers to stm32f0xx_hal_spi.o(i.SPI_DMAHalfTransmitReceiveCplt) for SPI_DMAHalfTransmitReceiveCplt
    stm32f0xx_hal_spi.o(i.HAL_SPI_TransmitReceive_DMA) refers to stm32f0xx_hal_spi.o(i.SPI_DMATransmitReceiveCplt) for SPI_DMATransmitReceiveCplt
    stm32f0xx_hal_spi.o(i.HAL_SPI_TransmitReceive_DMA) refers to stm32f0xx_hal_spi.o(i.SPI_DMAError) for SPI_DMAError
    stm32f0xx_hal_spi.o(i.HAL_SPI_TransmitReceive_DMA) refers to stm32f0xx_hal_spi.o(i.SPI_DMAHalfReceiveCplt) for SPI_DMAHalfReceiveCplt
    stm32f0xx_hal_spi.o(i.HAL_SPI_TransmitReceive_DMA) refers to stm32f0xx_hal_spi.o(i.SPI_DMAReceiveCplt) for SPI_DMAReceiveCplt
    stm32f0xx_hal_spi.o(i.HAL_SPI_TransmitReceive_IT) refers to stm32f0xx_hal_spi.o(i.SPI_2linesRxISR_16BIT) for SPI_2linesRxISR_16BIT
    stm32f0xx_hal_spi.o(i.HAL_SPI_TransmitReceive_IT) refers to stm32f0xx_hal_spi.o(i.SPI_2linesTxISR_16BIT) for SPI_2linesTxISR_16BIT
    stm32f0xx_hal_spi.o(i.HAL_SPI_TransmitReceive_IT) refers to stm32f0xx_hal_spi.o(i.SPI_2linesRxISR_8BIT) for SPI_2linesRxISR_8BIT
    stm32f0xx_hal_spi.o(i.HAL_SPI_TransmitReceive_IT) refers to stm32f0xx_hal_spi.o(i.SPI_2linesTxISR_8BIT) for SPI_2linesTxISR_8BIT
    stm32f0xx_hal_spi.o(i.HAL_SPI_Transmit_DMA) refers to stm32f0xx_hal_dma.o(i.HAL_DMA_Start_IT) for HAL_DMA_Start_IT
    stm32f0xx_hal_spi.o(i.HAL_SPI_Transmit_DMA) refers to stm32f0xx_hal_spi.o(i.SPI_DMAHalfTransmitCplt) for SPI_DMAHalfTransmitCplt
    stm32f0xx_hal_spi.o(i.HAL_SPI_Transmit_DMA) refers to stm32f0xx_hal_spi.o(i.SPI_DMATransmitCplt) for SPI_DMATransmitCplt
    stm32f0xx_hal_spi.o(i.HAL_SPI_Transmit_DMA) refers to stm32f0xx_hal_spi.o(i.SPI_DMAError) for SPI_DMAError
    stm32f0xx_hal_spi.o(i.HAL_SPI_Transmit_IT) refers to stm32f0xx_hal_spi.o(i.SPI_TxISR_16BIT) for SPI_TxISR_16BIT
    stm32f0xx_hal_spi.o(i.HAL_SPI_Transmit_IT) refers to stm32f0xx_hal_spi.o(i.SPI_TxISR_8BIT) for SPI_TxISR_8BIT
    stm32f0xx_hal_spi.o(i.SPI_2linesRxISR_16BIT) refers to stm32f0xx_hal_spi.o(i.SPI_CloseRxTx_ISR) for SPI_CloseRxTx_ISR
    stm32f0xx_hal_spi.o(i.SPI_2linesRxISR_8BIT) refers to stm32f0xx_hal_spi.o(i.SPI_CloseRxTx_ISR) for SPI_CloseRxTx_ISR
    stm32f0xx_hal_spi.o(i.SPI_2linesTxISR_16BIT) refers to stm32f0xx_hal_spi.o(i.SPI_CloseRxTx_ISR) for SPI_CloseRxTx_ISR
    stm32f0xx_hal_spi.o(i.SPI_2linesTxISR_8BIT) refers to stm32f0xx_hal_spi.o(i.SPI_CloseRxTx_ISR) for SPI_CloseRxTx_ISR
    stm32f0xx_hal_spi.o(i.SPI_AbortRx_ISR) refers to aeabi_sdiv.o(.text) for __aeabi_uidivmod
    stm32f0xx_hal_spi.o(i.SPI_AbortRx_ISR) refers to stm32f0xx_hal.o(i.HAL_GetTick) for HAL_GetTick
    stm32f0xx_hal_spi.o(i.SPI_AbortRx_ISR) refers to stm32f0xx_hal_spi.o(i.SPI_WaitFlagStateUntilTimeout) for SPI_WaitFlagStateUntilTimeout
    stm32f0xx_hal_spi.o(i.SPI_AbortRx_ISR) refers to stm32f0xx_hal_spi.o(i.SPI_WaitFifoStateUntilTimeout) for SPI_WaitFifoStateUntilTimeout
    stm32f0xx_hal_spi.o(i.SPI_AbortRx_ISR) refers to system_stm32f0xx.o(.data) for SystemCoreClock
    stm32f0xx_hal_spi.o(i.SPI_AbortTx_ISR) refers to aeabi_sdiv.o(.text) for __aeabi_uidivmod
    stm32f0xx_hal_spi.o(i.SPI_AbortTx_ISR) refers to stm32f0xx_hal.o(i.HAL_GetTick) for HAL_GetTick
    stm32f0xx_hal_spi.o(i.SPI_AbortTx_ISR) refers to stm32f0xx_hal_spi.o(i.SPI_EndRxTxTransaction) for SPI_EndRxTxTransaction
    stm32f0xx_hal_spi.o(i.SPI_AbortTx_ISR) refers to stm32f0xx_hal_spi.o(i.SPI_WaitFifoStateUntilTimeout) for SPI_WaitFifoStateUntilTimeout
    stm32f0xx_hal_spi.o(i.SPI_AbortTx_ISR) refers to system_stm32f0xx.o(.data) for SystemCoreClock
    stm32f0xx_hal_spi.o(i.SPI_CloseRxTx_ISR) refers to stm32f0xx_hal.o(i.HAL_GetTick) for HAL_GetTick
    stm32f0xx_hal_spi.o(i.SPI_CloseRxTx_ISR) refers to stm32f0xx_hal_spi.o(i.SPI_EndRxTxTransaction) for SPI_EndRxTxTransaction
    stm32f0xx_hal_spi.o(i.SPI_CloseRxTx_ISR) refers to stm32f0xx_hal_spi.o(i.HAL_SPI_ErrorCallback) for HAL_SPI_ErrorCallback
    stm32f0xx_hal_spi.o(i.SPI_CloseRxTx_ISR) refers to stm32f0xx_hal_spi.o(i.HAL_SPI_TxRxCpltCallback) for HAL_SPI_TxRxCpltCallback
    stm32f0xx_hal_spi.o(i.SPI_CloseRxTx_ISR) refers to stm32f0xx_hal_spi.o(i.HAL_SPI_RxCpltCallback) for HAL_SPI_RxCpltCallback
    stm32f0xx_hal_spi.o(i.SPI_CloseRx_ISR) refers to stm32f0xx_hal.o(i.HAL_GetTick) for HAL_GetTick
    stm32f0xx_hal_spi.o(i.SPI_CloseRx_ISR) refers to stm32f0xx_hal_spi.o(i.SPI_EndRxTransaction) for SPI_EndRxTransaction
    stm32f0xx_hal_spi.o(i.SPI_CloseRx_ISR) refers to stm32f0xx_hal_spi.o(i.HAL_SPI_ErrorCallback) for HAL_SPI_ErrorCallback
    stm32f0xx_hal_spi.o(i.SPI_CloseRx_ISR) refers to stm32f0xx_hal_spi.o(i.HAL_SPI_RxCpltCallback) for HAL_SPI_RxCpltCallback
    stm32f0xx_hal_spi.o(i.SPI_CloseTx_ISR) refers to stm32f0xx_hal.o(i.HAL_GetTick) for HAL_GetTick
    stm32f0xx_hal_spi.o(i.SPI_CloseTx_ISR) refers to stm32f0xx_hal_spi.o(i.SPI_EndRxTxTransaction) for SPI_EndRxTxTransaction
    stm32f0xx_hal_spi.o(i.SPI_CloseTx_ISR) refers to stm32f0xx_hal_spi.o(i.HAL_SPI_ErrorCallback) for HAL_SPI_ErrorCallback
    stm32f0xx_hal_spi.o(i.SPI_CloseTx_ISR) refers to stm32f0xx_hal_spi.o(i.HAL_SPI_TxCpltCallback) for HAL_SPI_TxCpltCallback
    stm32f0xx_hal_spi.o(i.SPI_DMAAbortOnError) refers to stm32f0xx_hal_spi.o(i.HAL_SPI_ErrorCallback) for HAL_SPI_ErrorCallback
    stm32f0xx_hal_spi.o(i.SPI_DMAError) refers to stm32f0xx_hal_spi.o(i.HAL_SPI_ErrorCallback) for HAL_SPI_ErrorCallback
    stm32f0xx_hal_spi.o(i.SPI_DMAHalfReceiveCplt) refers to stm32f0xx_hal_spi.o(i.HAL_SPI_RxHalfCpltCallback) for HAL_SPI_RxHalfCpltCallback
    stm32f0xx_hal_spi.o(i.SPI_DMAHalfTransmitCplt) refers to stm32f0xx_hal_spi.o(i.HAL_SPI_TxHalfCpltCallback) for HAL_SPI_TxHalfCpltCallback
    stm32f0xx_hal_spi.o(i.SPI_DMAHalfTransmitReceiveCplt) refers to stm32f0xx_hal_spi.o(i.HAL_SPI_TxRxHalfCpltCallback) for HAL_SPI_TxRxHalfCpltCallback
    stm32f0xx_hal_spi.o(i.SPI_DMAReceiveCplt) refers to stm32f0xx_hal.o(i.HAL_GetTick) for HAL_GetTick
    stm32f0xx_hal_spi.o(i.SPI_DMAReceiveCplt) refers to stm32f0xx_hal_spi.o(i.SPI_EndRxTransaction) for SPI_EndRxTransaction
    stm32f0xx_hal_spi.o(i.SPI_DMAReceiveCplt) refers to stm32f0xx_hal_spi.o(i.HAL_SPI_ErrorCallback) for HAL_SPI_ErrorCallback
    stm32f0xx_hal_spi.o(i.SPI_DMAReceiveCplt) refers to stm32f0xx_hal_spi.o(i.HAL_SPI_RxCpltCallback) for HAL_SPI_RxCpltCallback
    stm32f0xx_hal_spi.o(i.SPI_DMARxAbortCallback) refers to stm32f0xx_hal.o(i.HAL_GetTick) for HAL_GetTick
    stm32f0xx_hal_spi.o(i.SPI_DMARxAbortCallback) refers to stm32f0xx_hal_spi.o(i.SPI_WaitFlagStateUntilTimeout) for SPI_WaitFlagStateUntilTimeout
    stm32f0xx_hal_spi.o(i.SPI_DMARxAbortCallback) refers to stm32f0xx_hal_spi.o(i.SPI_WaitFifoStateUntilTimeout) for SPI_WaitFifoStateUntilTimeout
    stm32f0xx_hal_spi.o(i.SPI_DMARxAbortCallback) refers to stm32f0xx_hal_spi.o(i.HAL_SPI_AbortCpltCallback) for HAL_SPI_AbortCpltCallback
    stm32f0xx_hal_spi.o(i.SPI_DMATransmitCplt) refers to stm32f0xx_hal.o(i.HAL_GetTick) for HAL_GetTick
    stm32f0xx_hal_spi.o(i.SPI_DMATransmitCplt) refers to stm32f0xx_hal_spi.o(i.SPI_EndRxTxTransaction) for SPI_EndRxTxTransaction
    stm32f0xx_hal_spi.o(i.SPI_DMATransmitCplt) refers to stm32f0xx_hal_spi.o(i.HAL_SPI_ErrorCallback) for HAL_SPI_ErrorCallback
    stm32f0xx_hal_spi.o(i.SPI_DMATransmitCplt) refers to stm32f0xx_hal_spi.o(i.HAL_SPI_TxCpltCallback) for HAL_SPI_TxCpltCallback
    stm32f0xx_hal_spi.o(i.SPI_DMATransmitReceiveCplt) refers to stm32f0xx_hal.o(i.HAL_GetTick) for HAL_GetTick
    stm32f0xx_hal_spi.o(i.SPI_DMATransmitReceiveCplt) refers to stm32f0xx_hal_spi.o(i.SPI_EndRxTxTransaction) for SPI_EndRxTxTransaction
    stm32f0xx_hal_spi.o(i.SPI_DMATransmitReceiveCplt) refers to stm32f0xx_hal_spi.o(i.HAL_SPI_ErrorCallback) for HAL_SPI_ErrorCallback
    stm32f0xx_hal_spi.o(i.SPI_DMATransmitReceiveCplt) refers to stm32f0xx_hal_spi.o(i.HAL_SPI_TxRxCpltCallback) for HAL_SPI_TxRxCpltCallback
    stm32f0xx_hal_spi.o(i.SPI_DMATxAbortCallback) refers to stm32f0xx_hal.o(i.HAL_GetTick) for HAL_GetTick
    stm32f0xx_hal_spi.o(i.SPI_DMATxAbortCallback) refers to stm32f0xx_hal_spi.o(i.SPI_EndRxTxTransaction) for SPI_EndRxTxTransaction
    stm32f0xx_hal_spi.o(i.SPI_DMATxAbortCallback) refers to stm32f0xx_hal_spi.o(i.SPI_WaitFifoStateUntilTimeout) for SPI_WaitFifoStateUntilTimeout
    stm32f0xx_hal_spi.o(i.SPI_DMATxAbortCallback) refers to stm32f0xx_hal_spi.o(i.HAL_SPI_AbortCpltCallback) for HAL_SPI_AbortCpltCallback
    stm32f0xx_hal_spi.o(i.SPI_EndRxTransaction) refers to stm32f0xx_hal_spi.o(i.SPI_WaitFlagStateUntilTimeout) for SPI_WaitFlagStateUntilTimeout
    stm32f0xx_hal_spi.o(i.SPI_EndRxTransaction) refers to stm32f0xx_hal_spi.o(i.SPI_WaitFifoStateUntilTimeout) for SPI_WaitFifoStateUntilTimeout
    stm32f0xx_hal_spi.o(i.SPI_EndRxTxTransaction) refers to stm32f0xx_hal_spi.o(i.SPI_WaitFifoStateUntilTimeout) for SPI_WaitFifoStateUntilTimeout
    stm32f0xx_hal_spi.o(i.SPI_EndRxTxTransaction) refers to stm32f0xx_hal_spi.o(i.SPI_WaitFlagStateUntilTimeout) for SPI_WaitFlagStateUntilTimeout
    stm32f0xx_hal_spi.o(i.SPI_RxISR_16BIT) refers to stm32f0xx_hal_spi.o(i.SPI_CloseRx_ISR) for SPI_CloseRx_ISR
    stm32f0xx_hal_spi.o(i.SPI_RxISR_8BIT) refers to stm32f0xx_hal_spi.o(i.SPI_CloseRx_ISR) for SPI_CloseRx_ISR
    stm32f0xx_hal_spi.o(i.SPI_TxISR_16BIT) refers to stm32f0xx_hal_spi.o(i.SPI_CloseTx_ISR) for SPI_CloseTx_ISR
    stm32f0xx_hal_spi.o(i.SPI_TxISR_8BIT) refers to stm32f0xx_hal_spi.o(i.SPI_CloseTx_ISR) for SPI_CloseTx_ISR
    stm32f0xx_hal_spi.o(i.SPI_WaitFifoStateUntilTimeout) refers to stm32f0xx_hal.o(i.HAL_GetTick) for HAL_GetTick
    stm32f0xx_hal_spi.o(i.SPI_WaitFlagStateUntilTimeout) refers to stm32f0xx_hal.o(i.HAL_GetTick) for HAL_GetTick
    stm32f0xx_hal_tim.o(i.HAL_TIM_Base_DeInit) refers to tim.o(i.HAL_TIM_Base_MspDeInit) for HAL_TIM_Base_MspDeInit
    stm32f0xx_hal_tim.o(i.HAL_TIM_Base_Init) refers to tim.o(i.HAL_TIM_Base_MspInit) for HAL_TIM_Base_MspInit
    stm32f0xx_hal_tim.o(i.HAL_TIM_Base_Init) refers to stm32f0xx_hal_tim.o(i.TIM_Base_SetConfig) for TIM_Base_SetConfig
    stm32f0xx_hal_tim.o(i.HAL_TIM_Base_Start_DMA) refers to stm32f0xx_hal_dma.o(i.HAL_DMA_Start_IT) for HAL_DMA_Start_IT
    stm32f0xx_hal_tim.o(i.HAL_TIM_Base_Start_DMA) refers to stm32f0xx_hal_tim.o(i.TIM_DMAPeriodElapsedCplt) for TIM_DMAPeriodElapsedCplt
    stm32f0xx_hal_tim.o(i.HAL_TIM_Base_Start_DMA) refers to stm32f0xx_hal_tim.o(i.TIM_DMAError) for TIM_DMAError
    stm32f0xx_hal_tim.o(i.HAL_TIM_ConfigClockSource) refers to stm32f0xx_hal_tim.o(i.TIM_ETR_SetConfig) for TIM_ETR_SetConfig
    stm32f0xx_hal_tim.o(i.HAL_TIM_ConfigClockSource) refers to stm32f0xx_hal_tim.o(i.TIM_TI1_ConfigInputStage) for TIM_TI1_ConfigInputStage
    stm32f0xx_hal_tim.o(i.HAL_TIM_ConfigClockSource) refers to stm32f0xx_hal_tim.o(i.TIM_TI2_ConfigInputStage) for TIM_TI2_ConfigInputStage
    stm32f0xx_hal_tim.o(i.HAL_TIM_ConfigClockSource) refers to stm32f0xx_hal_tim.o(i.TIM_ITRx_SetConfig) for TIM_ITRx_SetConfig
    stm32f0xx_hal_tim.o(i.HAL_TIM_ConfigOCrefClear) refers to stm32f0xx_hal_tim.o(i.TIM_ETR_SetConfig) for TIM_ETR_SetConfig
    stm32f0xx_hal_tim.o(i.HAL_TIM_DMABurst_MultiReadStart) refers to stm32f0xx_hal_dma.o(i.HAL_DMA_Start_IT) for HAL_DMA_Start_IT
    stm32f0xx_hal_tim.o(i.HAL_TIM_DMABurst_MultiReadStart) refers to stm32f0xx_hal_tim.o(i.TIM_DMAError) for TIM_DMAError
    stm32f0xx_hal_tim.o(i.HAL_TIM_DMABurst_MultiReadStart) refers to stm32f0xx_hal_tim.o(i.TIM_DMACaptureCplt) for TIM_DMACaptureCplt
    stm32f0xx_hal_tim.o(i.HAL_TIM_DMABurst_MultiReadStart) refers to stm32f0xx_hal_tim.o(i.TIM_DMATriggerCplt) for TIM_DMATriggerCplt
    stm32f0xx_hal_tim.o(i.HAL_TIM_DMABurst_MultiReadStart) refers to stm32f0xx_hal_tim.o(i.TIM_DMAPeriodElapsedCplt) for TIM_DMAPeriodElapsedCplt
    stm32f0xx_hal_tim.o(i.HAL_TIM_DMABurst_MultiReadStart) refers to stm32f0xx_hal_tim_ex.o(i.TIMEx_DMACommutationCplt) for TIMEx_DMACommutationCplt
    stm32f0xx_hal_tim.o(i.HAL_TIM_DMABurst_MultiWriteStart) refers to stm32f0xx_hal_dma.o(i.HAL_DMA_Start_IT) for HAL_DMA_Start_IT
    stm32f0xx_hal_tim.o(i.HAL_TIM_DMABurst_MultiWriteStart) refers to stm32f0xx_hal_tim.o(i.TIM_DMAError) for TIM_DMAError
    stm32f0xx_hal_tim.o(i.HAL_TIM_DMABurst_MultiWriteStart) refers to stm32f0xx_hal_tim.o(i.TIM_DMADelayPulseCplt) for TIM_DMADelayPulseCplt
    stm32f0xx_hal_tim.o(i.HAL_TIM_DMABurst_MultiWriteStart) refers to stm32f0xx_hal_tim.o(i.TIM_DMATriggerCplt) for TIM_DMATriggerCplt
    stm32f0xx_hal_tim.o(i.HAL_TIM_DMABurst_MultiWriteStart) refers to stm32f0xx_hal_tim.o(i.TIM_DMAPeriodElapsedCplt) for TIM_DMAPeriodElapsedCplt
    stm32f0xx_hal_tim.o(i.HAL_TIM_DMABurst_MultiWriteStart) refers to stm32f0xx_hal_tim_ex.o(i.TIMEx_DMACommutationCplt) for TIMEx_DMACommutationCplt
    stm32f0xx_hal_tim.o(i.HAL_TIM_DMABurst_ReadStart) refers to stm32f0xx_hal_tim.o(i.HAL_TIM_DMABurst_MultiReadStart) for HAL_TIM_DMABurst_MultiReadStart
    stm32f0xx_hal_tim.o(i.HAL_TIM_DMABurst_ReadStop) refers to stm32f0xx_hal_dma.o(i.HAL_DMA_Abort) for HAL_DMA_Abort
    stm32f0xx_hal_tim.o(i.HAL_TIM_DMABurst_WriteStart) refers to stm32f0xx_hal_tim.o(i.HAL_TIM_DMABurst_MultiWriteStart) for HAL_TIM_DMABurst_MultiWriteStart
    stm32f0xx_hal_tim.o(i.HAL_TIM_DMABurst_WriteStop) refers to stm32f0xx_hal_dma.o(i.HAL_DMA_Abort) for HAL_DMA_Abort
    stm32f0xx_hal_tim.o(i.HAL_TIM_Encoder_DeInit) refers to stm32f0xx_hal_tim.o(i.HAL_TIM_Encoder_MspDeInit) for HAL_TIM_Encoder_MspDeInit
    stm32f0xx_hal_tim.o(i.HAL_TIM_Encoder_Init) refers to stm32f0xx_hal_tim.o(i.HAL_TIM_Encoder_MspInit) for HAL_TIM_Encoder_MspInit
    stm32f0xx_hal_tim.o(i.HAL_TIM_Encoder_Init) refers to stm32f0xx_hal_tim.o(i.TIM_Base_SetConfig) for TIM_Base_SetConfig
    stm32f0xx_hal_tim.o(i.HAL_TIM_Encoder_Start) refers to stm32f0xx_hal_tim.o(i.TIM_CCxChannelCmd) for TIM_CCxChannelCmd
    stm32f0xx_hal_tim.o(i.HAL_TIM_Encoder_Start_DMA) refers to stm32f0xx_hal_dma.o(i.HAL_DMA_Start_IT) for HAL_DMA_Start_IT
    stm32f0xx_hal_tim.o(i.HAL_TIM_Encoder_Start_DMA) refers to stm32f0xx_hal_tim.o(i.TIM_CCxChannelCmd) for TIM_CCxChannelCmd
    stm32f0xx_hal_tim.o(i.HAL_TIM_Encoder_Start_DMA) refers to stm32f0xx_hal_tim.o(i.TIM_DMACaptureCplt) for TIM_DMACaptureCplt
    stm32f0xx_hal_tim.o(i.HAL_TIM_Encoder_Start_DMA) refers to stm32f0xx_hal_tim.o(i.TIM_DMAError) for TIM_DMAError
    stm32f0xx_hal_tim.o(i.HAL_TIM_Encoder_Start_IT) refers to stm32f0xx_hal_tim.o(i.TIM_CCxChannelCmd) for TIM_CCxChannelCmd
    stm32f0xx_hal_tim.o(i.HAL_TIM_Encoder_Stop) refers to stm32f0xx_hal_tim.o(i.TIM_CCxChannelCmd) for TIM_CCxChannelCmd
    stm32f0xx_hal_tim.o(i.HAL_TIM_Encoder_Stop_DMA) refers to stm32f0xx_hal_tim.o(i.TIM_CCxChannelCmd) for TIM_CCxChannelCmd
    stm32f0xx_hal_tim.o(i.HAL_TIM_Encoder_Stop_IT) refers to stm32f0xx_hal_tim.o(i.TIM_CCxChannelCmd) for TIM_CCxChannelCmd
    stm32f0xx_hal_tim.o(i.HAL_TIM_IC_ConfigChannel) refers to stm32f0xx_hal_tim.o(i.TIM_TI1_SetConfig) for TIM_TI1_SetConfig
    stm32f0xx_hal_tim.o(i.HAL_TIM_IC_ConfigChannel) refers to stm32f0xx_hal_tim.o(i.TIM_TI2_SetConfig) for TIM_TI2_SetConfig
    stm32f0xx_hal_tim.o(i.HAL_TIM_IC_DeInit) refers to stm32f0xx_hal_tim.o(i.HAL_TIM_IC_MspDeInit) for HAL_TIM_IC_MspDeInit
    stm32f0xx_hal_tim.o(i.HAL_TIM_IC_Init) refers to stm32f0xx_hal_tim.o(i.HAL_TIM_IC_MspInit) for HAL_TIM_IC_MspInit
    stm32f0xx_hal_tim.o(i.HAL_TIM_IC_Init) refers to stm32f0xx_hal_tim.o(i.TIM_Base_SetConfig) for TIM_Base_SetConfig
    stm32f0xx_hal_tim.o(i.HAL_TIM_IC_Start) refers to stm32f0xx_hal_tim.o(i.TIM_CCxChannelCmd) for TIM_CCxChannelCmd
    stm32f0xx_hal_tim.o(i.HAL_TIM_IC_Start_DMA) refers to stm32f0xx_hal_dma.o(i.HAL_DMA_Start_IT) for HAL_DMA_Start_IT
    stm32f0xx_hal_tim.o(i.HAL_TIM_IC_Start_DMA) refers to stm32f0xx_hal_tim.o(i.TIM_CCxChannelCmd) for TIM_CCxChannelCmd
    stm32f0xx_hal_tim.o(i.HAL_TIM_IC_Start_DMA) refers to stm32f0xx_hal_tim.o(i.TIM_DMACaptureCplt) for TIM_DMACaptureCplt
    stm32f0xx_hal_tim.o(i.HAL_TIM_IC_Start_DMA) refers to stm32f0xx_hal_tim.o(i.TIM_DMAError) for TIM_DMAError
    stm32f0xx_hal_tim.o(i.HAL_TIM_IC_Start_IT) refers to stm32f0xx_hal_tim.o(i.TIM_CCxChannelCmd) for TIM_CCxChannelCmd
    stm32f0xx_hal_tim.o(i.HAL_TIM_IC_Stop) refers to stm32f0xx_hal_tim.o(i.TIM_CCxChannelCmd) for TIM_CCxChannelCmd
    stm32f0xx_hal_tim.o(i.HAL_TIM_IC_Stop_DMA) refers to stm32f0xx_hal_tim.o(i.TIM_CCxChannelCmd) for TIM_CCxChannelCmd
    stm32f0xx_hal_tim.o(i.HAL_TIM_IC_Stop_IT) refers to stm32f0xx_hal_tim.o(i.TIM_CCxChannelCmd) for TIM_CCxChannelCmd
    stm32f0xx_hal_tim.o(i.HAL_TIM_IRQHandler) refers to stm32f0xx_hal_tim.o(i.HAL_TIM_IC_CaptureCallback) for HAL_TIM_IC_CaptureCallback
    stm32f0xx_hal_tim.o(i.HAL_TIM_IRQHandler) refers to stm32f0xx_hal_tim.o(i.HAL_TIM_OC_DelayElapsedCallback) for HAL_TIM_OC_DelayElapsedCallback
    stm32f0xx_hal_tim.o(i.HAL_TIM_IRQHandler) refers to stm32f0xx_hal_tim.o(i.HAL_TIM_PWM_PulseFinishedCallback) for HAL_TIM_PWM_PulseFinishedCallback
    stm32f0xx_hal_tim.o(i.HAL_TIM_IRQHandler) refers to main.o(i.HAL_TIM_PeriodElapsedCallback) for HAL_TIM_PeriodElapsedCallback
    stm32f0xx_hal_tim.o(i.HAL_TIM_IRQHandler) refers to stm32f0xx_hal_tim_ex.o(i.HAL_TIMEx_BreakCallback) for HAL_TIMEx_BreakCallback
    stm32f0xx_hal_tim.o(i.HAL_TIM_IRQHandler) refers to stm32f0xx_hal_tim.o(i.HAL_TIM_TriggerCallback) for HAL_TIM_TriggerCallback
    stm32f0xx_hal_tim.o(i.HAL_TIM_IRQHandler) refers to stm32f0xx_hal_tim_ex.o(i.HAL_TIMEx_CommutationCallback) for HAL_TIMEx_CommutationCallback
    stm32f0xx_hal_tim.o(i.HAL_TIM_OC_ConfigChannel) refers to stm32f0xx_hal_tim.o(i.TIM_OC1_SetConfig) for TIM_OC1_SetConfig
    stm32f0xx_hal_tim.o(i.HAL_TIM_OC_ConfigChannel) refers to stm32f0xx_hal_tim.o(i.TIM_OC2_SetConfig) for TIM_OC2_SetConfig
    stm32f0xx_hal_tim.o(i.HAL_TIM_OC_ConfigChannel) refers to stm32f0xx_hal_tim.o(i.TIM_OC3_SetConfig) for TIM_OC3_SetConfig
    stm32f0xx_hal_tim.o(i.HAL_TIM_OC_ConfigChannel) refers to stm32f0xx_hal_tim.o(i.TIM_OC4_SetConfig) for TIM_OC4_SetConfig
    stm32f0xx_hal_tim.o(i.HAL_TIM_OC_DeInit) refers to stm32f0xx_hal_tim.o(i.HAL_TIM_OC_MspDeInit) for HAL_TIM_OC_MspDeInit
    stm32f0xx_hal_tim.o(i.HAL_TIM_OC_Init) refers to stm32f0xx_hal_tim.o(i.HAL_TIM_OC_MspInit) for HAL_TIM_OC_MspInit
    stm32f0xx_hal_tim.o(i.HAL_TIM_OC_Init) refers to stm32f0xx_hal_tim.o(i.TIM_Base_SetConfig) for TIM_Base_SetConfig
    stm32f0xx_hal_tim.o(i.HAL_TIM_OC_Start) refers to stm32f0xx_hal_tim.o(i.TIM_CCxChannelCmd) for TIM_CCxChannelCmd
    stm32f0xx_hal_tim.o(i.HAL_TIM_OC_Start_DMA) refers to stm32f0xx_hal_dma.o(i.HAL_DMA_Start_IT) for HAL_DMA_Start_IT
    stm32f0xx_hal_tim.o(i.HAL_TIM_OC_Start_DMA) refers to stm32f0xx_hal_tim.o(i.TIM_CCxChannelCmd) for TIM_CCxChannelCmd
    stm32f0xx_hal_tim.o(i.HAL_TIM_OC_Start_DMA) refers to stm32f0xx_hal_tim.o(i.TIM_DMADelayPulseCplt) for TIM_DMADelayPulseCplt
    stm32f0xx_hal_tim.o(i.HAL_TIM_OC_Start_DMA) refers to stm32f0xx_hal_tim.o(i.TIM_DMAError) for TIM_DMAError
    stm32f0xx_hal_tim.o(i.HAL_TIM_OC_Start_IT) refers to stm32f0xx_hal_tim.o(i.TIM_CCxChannelCmd) for TIM_CCxChannelCmd
    stm32f0xx_hal_tim.o(i.HAL_TIM_OC_Stop) refers to stm32f0xx_hal_tim.o(i.TIM_CCxChannelCmd) for TIM_CCxChannelCmd
    stm32f0xx_hal_tim.o(i.HAL_TIM_OC_Stop_DMA) refers to stm32f0xx_hal_tim.o(i.TIM_CCxChannelCmd) for TIM_CCxChannelCmd
    stm32f0xx_hal_tim.o(i.HAL_TIM_OC_Stop_IT) refers to stm32f0xx_hal_tim.o(i.TIM_CCxChannelCmd) for TIM_CCxChannelCmd
    stm32f0xx_hal_tim.o(i.HAL_TIM_OnePulse_ConfigChannel) refers to stm32f0xx_hal_tim.o(i.TIM_OC1_SetConfig) for TIM_OC1_SetConfig
    stm32f0xx_hal_tim.o(i.HAL_TIM_OnePulse_ConfigChannel) refers to stm32f0xx_hal_tim.o(i.TIM_OC2_SetConfig) for TIM_OC2_SetConfig
    stm32f0xx_hal_tim.o(i.HAL_TIM_OnePulse_ConfigChannel) refers to stm32f0xx_hal_tim.o(i.TIM_TI1_SetConfig) for TIM_TI1_SetConfig
    stm32f0xx_hal_tim.o(i.HAL_TIM_OnePulse_ConfigChannel) refers to stm32f0xx_hal_tim.o(i.TIM_TI2_SetConfig) for TIM_TI2_SetConfig
    stm32f0xx_hal_tim.o(i.HAL_TIM_OnePulse_DeInit) refers to stm32f0xx_hal_tim.o(i.HAL_TIM_OnePulse_MspDeInit) for HAL_TIM_OnePulse_MspDeInit
    stm32f0xx_hal_tim.o(i.HAL_TIM_OnePulse_Init) refers to stm32f0xx_hal_tim.o(i.HAL_TIM_OnePulse_MspInit) for HAL_TIM_OnePulse_MspInit
    stm32f0xx_hal_tim.o(i.HAL_TIM_OnePulse_Init) refers to stm32f0xx_hal_tim.o(i.TIM_Base_SetConfig) for TIM_Base_SetConfig
    stm32f0xx_hal_tim.o(i.HAL_TIM_OnePulse_Start) refers to stm32f0xx_hal_tim.o(i.TIM_CCxChannelCmd) for TIM_CCxChannelCmd
    stm32f0xx_hal_tim.o(i.HAL_TIM_OnePulse_Start_IT) refers to stm32f0xx_hal_tim.o(i.TIM_CCxChannelCmd) for TIM_CCxChannelCmd
    stm32f0xx_hal_tim.o(i.HAL_TIM_OnePulse_Stop) refers to stm32f0xx_hal_tim.o(i.TIM_CCxChannelCmd) for TIM_CCxChannelCmd
    stm32f0xx_hal_tim.o(i.HAL_TIM_OnePulse_Stop_IT) refers to stm32f0xx_hal_tim.o(i.TIM_CCxChannelCmd) for TIM_CCxChannelCmd
    stm32f0xx_hal_tim.o(i.HAL_TIM_PWM_ConfigChannel) refers to stm32f0xx_hal_tim.o(i.TIM_OC1_SetConfig) for TIM_OC1_SetConfig
    stm32f0xx_hal_tim.o(i.HAL_TIM_PWM_ConfigChannel) refers to stm32f0xx_hal_tim.o(i.TIM_OC2_SetConfig) for TIM_OC2_SetConfig
    stm32f0xx_hal_tim.o(i.HAL_TIM_PWM_ConfigChannel) refers to stm32f0xx_hal_tim.o(i.TIM_OC3_SetConfig) for TIM_OC3_SetConfig
    stm32f0xx_hal_tim.o(i.HAL_TIM_PWM_ConfigChannel) refers to stm32f0xx_hal_tim.o(i.TIM_OC4_SetConfig) for TIM_OC4_SetConfig
    stm32f0xx_hal_tim.o(i.HAL_TIM_PWM_DeInit) refers to stm32f0xx_hal_tim.o(i.HAL_TIM_PWM_MspDeInit) for HAL_TIM_PWM_MspDeInit
    stm32f0xx_hal_tim.o(i.HAL_TIM_PWM_Init) refers to stm32f0xx_hal_tim.o(i.HAL_TIM_PWM_MspInit) for HAL_TIM_PWM_MspInit
    stm32f0xx_hal_tim.o(i.HAL_TIM_PWM_Init) refers to stm32f0xx_hal_tim.o(i.TIM_Base_SetConfig) for TIM_Base_SetConfig
    stm32f0xx_hal_tim.o(i.HAL_TIM_PWM_Start) refers to stm32f0xx_hal_tim.o(i.TIM_CCxChannelCmd) for TIM_CCxChannelCmd
    stm32f0xx_hal_tim.o(i.HAL_TIM_PWM_Start_DMA) refers to stm32f0xx_hal_dma.o(i.HAL_DMA_Start_IT) for HAL_DMA_Start_IT
    stm32f0xx_hal_tim.o(i.HAL_TIM_PWM_Start_DMA) refers to stm32f0xx_hal_tim.o(i.TIM_CCxChannelCmd) for TIM_CCxChannelCmd
    stm32f0xx_hal_tim.o(i.HAL_TIM_PWM_Start_DMA) refers to stm32f0xx_hal_tim.o(i.TIM_DMADelayPulseCplt) for TIM_DMADelayPulseCplt
    stm32f0xx_hal_tim.o(i.HAL_TIM_PWM_Start_DMA) refers to stm32f0xx_hal_tim.o(i.TIM_DMAError) for TIM_DMAError
    stm32f0xx_hal_tim.o(i.HAL_TIM_PWM_Start_IT) refers to stm32f0xx_hal_tim.o(i.TIM_CCxChannelCmd) for TIM_CCxChannelCmd
    stm32f0xx_hal_tim.o(i.HAL_TIM_PWM_Stop) refers to stm32f0xx_hal_tim.o(i.TIM_CCxChannelCmd) for TIM_CCxChannelCmd
    stm32f0xx_hal_tim.o(i.HAL_TIM_PWM_Stop_DMA) refers to stm32f0xx_hal_tim.o(i.TIM_CCxChannelCmd) for TIM_CCxChannelCmd
    stm32f0xx_hal_tim.o(i.HAL_TIM_PWM_Stop_IT) refers to stm32f0xx_hal_tim.o(i.TIM_CCxChannelCmd) for TIM_CCxChannelCmd
    stm32f0xx_hal_tim.o(i.HAL_TIM_SlaveConfigSynchronization) refers to stm32f0xx_hal_tim.o(i.TIM_SlaveTimer_SetConfig) for TIM_SlaveTimer_SetConfig
    stm32f0xx_hal_tim.o(i.HAL_TIM_SlaveConfigSynchronization_IT) refers to stm32f0xx_hal_tim.o(i.TIM_SlaveTimer_SetConfig) for TIM_SlaveTimer_SetConfig
    stm32f0xx_hal_tim.o(i.TIM_DMACaptureCplt) refers to stm32f0xx_hal_tim.o(i.HAL_TIM_IC_CaptureCallback) for HAL_TIM_IC_CaptureCallback
    stm32f0xx_hal_tim.o(i.TIM_DMADelayPulseCplt) refers to stm32f0xx_hal_tim.o(i.HAL_TIM_PWM_PulseFinishedCallback) for HAL_TIM_PWM_PulseFinishedCallback
    stm32f0xx_hal_tim.o(i.TIM_DMAError) refers to stm32f0xx_hal_tim.o(i.HAL_TIM_ErrorCallback) for HAL_TIM_ErrorCallback
    stm32f0xx_hal_tim.o(i.TIM_DMAPeriodElapsedCplt) refers to main.o(i.HAL_TIM_PeriodElapsedCallback) for HAL_TIM_PeriodElapsedCallback
    stm32f0xx_hal_tim.o(i.TIM_DMATriggerCplt) refers to stm32f0xx_hal_tim.o(i.HAL_TIM_TriggerCallback) for HAL_TIM_TriggerCallback
    stm32f0xx_hal_tim.o(i.TIM_SlaveTimer_SetConfig) refers to main.o(i.__ARM_common_switch8) for __ARM_common_switch8
    stm32f0xx_hal_tim.o(i.TIM_SlaveTimer_SetConfig) refers to stm32f0xx_hal_tim.o(i.TIM_ETR_SetConfig) for TIM_ETR_SetConfig
    stm32f0xx_hal_tim.o(i.TIM_SlaveTimer_SetConfig) refers to stm32f0xx_hal_tim.o(i.TIM_TI1_ConfigInputStage) for TIM_TI1_ConfigInputStage
    stm32f0xx_hal_tim.o(i.TIM_SlaveTimer_SetConfig) refers to stm32f0xx_hal_tim.o(i.TIM_TI2_ConfigInputStage) for TIM_TI2_ConfigInputStage
    stm32f0xx_hal_tim_ex.o(i.HAL_TIMEx_ConfigCommutationEvent_DMA) refers to stm32f0xx_hal_tim_ex.o(i.TIMEx_DMACommutationCplt) for TIMEx_DMACommutationCplt
    stm32f0xx_hal_tim_ex.o(i.HAL_TIMEx_ConfigCommutationEvent_DMA) refers to stm32f0xx_hal_tim.o(i.TIM_DMAError) for TIM_DMAError
    stm32f0xx_hal_tim_ex.o(i.HAL_TIMEx_HallSensor_DeInit) refers to stm32f0xx_hal_tim_ex.o(i.HAL_TIMEx_HallSensor_MspDeInit) for HAL_TIMEx_HallSensor_MspDeInit
    stm32f0xx_hal_tim_ex.o(i.HAL_TIMEx_HallSensor_Init) refers to stm32f0xx_hal_tim_ex.o(i.HAL_TIMEx_HallSensor_MspInit) for HAL_TIMEx_HallSensor_MspInit
    stm32f0xx_hal_tim_ex.o(i.HAL_TIMEx_HallSensor_Init) refers to stm32f0xx_hal_tim.o(i.TIM_Base_SetConfig) for TIM_Base_SetConfig
    stm32f0xx_hal_tim_ex.o(i.HAL_TIMEx_HallSensor_Init) refers to stm32f0xx_hal_tim.o(i.TIM_TI1_SetConfig) for TIM_TI1_SetConfig
    stm32f0xx_hal_tim_ex.o(i.HAL_TIMEx_HallSensor_Init) refers to stm32f0xx_hal_tim.o(i.TIM_OC2_SetConfig) for TIM_OC2_SetConfig
    stm32f0xx_hal_tim_ex.o(i.HAL_TIMEx_HallSensor_Start) refers to stm32f0xx_hal_tim.o(i.TIM_CCxChannelCmd) for TIM_CCxChannelCmd
    stm32f0xx_hal_tim_ex.o(i.HAL_TIMEx_HallSensor_Start_DMA) refers to stm32f0xx_hal_tim.o(i.TIM_CCxChannelCmd) for TIM_CCxChannelCmd
    stm32f0xx_hal_tim_ex.o(i.HAL_TIMEx_HallSensor_Start_DMA) refers to stm32f0xx_hal_dma.o(i.HAL_DMA_Start_IT) for HAL_DMA_Start_IT
    stm32f0xx_hal_tim_ex.o(i.HAL_TIMEx_HallSensor_Start_DMA) refers to stm32f0xx_hal_tim.o(i.TIM_DMACaptureCplt) for TIM_DMACaptureCplt
    stm32f0xx_hal_tim_ex.o(i.HAL_TIMEx_HallSensor_Start_DMA) refers to stm32f0xx_hal_tim.o(i.TIM_DMAError) for TIM_DMAError
    stm32f0xx_hal_tim_ex.o(i.HAL_TIMEx_HallSensor_Start_IT) refers to stm32f0xx_hal_tim.o(i.TIM_CCxChannelCmd) for TIM_CCxChannelCmd
    stm32f0xx_hal_tim_ex.o(i.HAL_TIMEx_HallSensor_Stop) refers to stm32f0xx_hal_tim.o(i.TIM_CCxChannelCmd) for TIM_CCxChannelCmd
    stm32f0xx_hal_tim_ex.o(i.HAL_TIMEx_HallSensor_Stop_DMA) refers to stm32f0xx_hal_tim.o(i.TIM_CCxChannelCmd) for TIM_CCxChannelCmd
    stm32f0xx_hal_tim_ex.o(i.HAL_TIMEx_HallSensor_Stop_IT) refers to stm32f0xx_hal_tim.o(i.TIM_CCxChannelCmd) for TIM_CCxChannelCmd
    stm32f0xx_hal_tim_ex.o(i.HAL_TIMEx_OCN_Start) refers to stm32f0xx_hal_tim_ex.o(i.TIM_CCxNChannelCmd) for TIM_CCxNChannelCmd
    stm32f0xx_hal_tim_ex.o(i.HAL_TIMEx_OCN_Start_DMA) refers to stm32f0xx_hal_dma.o(i.HAL_DMA_Start_IT) for HAL_DMA_Start_IT
    stm32f0xx_hal_tim_ex.o(i.HAL_TIMEx_OCN_Start_DMA) refers to stm32f0xx_hal_tim_ex.o(i.TIM_CCxNChannelCmd) for TIM_CCxNChannelCmd
    stm32f0xx_hal_tim_ex.o(i.HAL_TIMEx_OCN_Start_DMA) refers to stm32f0xx_hal_tim.o(i.TIM_DMADelayPulseCplt) for TIM_DMADelayPulseCplt
    stm32f0xx_hal_tim_ex.o(i.HAL_TIMEx_OCN_Start_DMA) refers to stm32f0xx_hal_tim.o(i.TIM_DMAError) for TIM_DMAError
    stm32f0xx_hal_tim_ex.o(i.HAL_TIMEx_OCN_Start_IT) refers to stm32f0xx_hal_tim_ex.o(i.TIM_CCxNChannelCmd) for TIM_CCxNChannelCmd
    stm32f0xx_hal_tim_ex.o(i.HAL_TIMEx_OCN_Stop) refers to stm32f0xx_hal_tim_ex.o(i.TIM_CCxNChannelCmd) for TIM_CCxNChannelCmd
    stm32f0xx_hal_tim_ex.o(i.HAL_TIMEx_OCN_Stop_DMA) refers to stm32f0xx_hal_tim_ex.o(i.TIM_CCxNChannelCmd) for TIM_CCxNChannelCmd
    stm32f0xx_hal_tim_ex.o(i.HAL_TIMEx_OCN_Stop_IT) refers to stm32f0xx_hal_tim_ex.o(i.TIM_CCxNChannelCmd) for TIM_CCxNChannelCmd
    stm32f0xx_hal_tim_ex.o(i.HAL_TIMEx_OnePulseN_Start) refers to stm32f0xx_hal_tim_ex.o(i.TIM_CCxNChannelCmd) for TIM_CCxNChannelCmd
    stm32f0xx_hal_tim_ex.o(i.HAL_TIMEx_OnePulseN_Start_IT) refers to stm32f0xx_hal_tim_ex.o(i.TIM_CCxNChannelCmd) for TIM_CCxNChannelCmd
    stm32f0xx_hal_tim_ex.o(i.HAL_TIMEx_OnePulseN_Stop) refers to stm32f0xx_hal_tim_ex.o(i.TIM_CCxNChannelCmd) for TIM_CCxNChannelCmd
    stm32f0xx_hal_tim_ex.o(i.HAL_TIMEx_OnePulseN_Stop_IT) refers to stm32f0xx_hal_tim_ex.o(i.TIM_CCxNChannelCmd) for TIM_CCxNChannelCmd
    stm32f0xx_hal_tim_ex.o(i.HAL_TIMEx_PWMN_Start) refers to stm32f0xx_hal_tim_ex.o(i.TIM_CCxNChannelCmd) for TIM_CCxNChannelCmd
    stm32f0xx_hal_tim_ex.o(i.HAL_TIMEx_PWMN_Start_DMA) refers to stm32f0xx_hal_dma.o(i.HAL_DMA_Start_IT) for HAL_DMA_Start_IT
    stm32f0xx_hal_tim_ex.o(i.HAL_TIMEx_PWMN_Start_DMA) refers to stm32f0xx_hal_tim_ex.o(i.TIM_CCxNChannelCmd) for TIM_CCxNChannelCmd
    stm32f0xx_hal_tim_ex.o(i.HAL_TIMEx_PWMN_Start_DMA) refers to stm32f0xx_hal_tim.o(i.TIM_DMADelayPulseCplt) for TIM_DMADelayPulseCplt
    stm32f0xx_hal_tim_ex.o(i.HAL_TIMEx_PWMN_Start_DMA) refers to stm32f0xx_hal_tim.o(i.TIM_DMAError) for TIM_DMAError
    stm32f0xx_hal_tim_ex.o(i.HAL_TIMEx_PWMN_Start_IT) refers to stm32f0xx_hal_tim_ex.o(i.TIM_CCxNChannelCmd) for TIM_CCxNChannelCmd
    stm32f0xx_hal_tim_ex.o(i.HAL_TIMEx_PWMN_Stop) refers to stm32f0xx_hal_tim_ex.o(i.TIM_CCxNChannelCmd) for TIM_CCxNChannelCmd
    stm32f0xx_hal_tim_ex.o(i.HAL_TIMEx_PWMN_Stop_DMA) refers to stm32f0xx_hal_tim_ex.o(i.TIM_CCxNChannelCmd) for TIM_CCxNChannelCmd
    stm32f0xx_hal_tim_ex.o(i.HAL_TIMEx_PWMN_Stop_IT) refers to stm32f0xx_hal_tim_ex.o(i.TIM_CCxNChannelCmd) for TIM_CCxNChannelCmd
    stm32f0xx_hal_tim_ex.o(i.HAL_TIM_ConfigOCrefClear) refers to stm32f0xx_hal_tim.o(i.TIM_ETR_SetConfig) for TIM_ETR_SetConfig
    stm32f0xx_hal_tim_ex.o(i.TIMEx_DMACommutationCplt) refers to stm32f0xx_hal_tim_ex.o(i.HAL_TIMEx_CommutationCallback) for HAL_TIMEx_CommutationCallback
    stm32f0xx_hal_uart.o(i.HAL_HalfDuplex_Init) refers to usart.o(i.HAL_UART_MspInit) for HAL_UART_MspInit
    stm32f0xx_hal_uart.o(i.HAL_HalfDuplex_Init) refers to stm32f0xx_hal_uart.o(i.UART_SetConfig) for UART_SetConfig
    stm32f0xx_hal_uart.o(i.HAL_HalfDuplex_Init) refers to stm32f0xx_hal_uart.o(i.UART_AdvFeatureConfig) for UART_AdvFeatureConfig
    stm32f0xx_hal_uart.o(i.HAL_HalfDuplex_Init) refers to stm32f0xx_hal_uart.o(i.UART_CheckIdleState) for UART_CheckIdleState
    stm32f0xx_hal_uart.o(i.HAL_MultiProcessor_DisableMuteMode) refers to stm32f0xx_hal_uart.o(i.UART_CheckIdleState) for UART_CheckIdleState
    stm32f0xx_hal_uart.o(i.HAL_MultiProcessor_EnableMuteMode) refers to stm32f0xx_hal_uart.o(i.UART_CheckIdleState) for UART_CheckIdleState
    stm32f0xx_hal_uart.o(i.HAL_MultiProcessor_Init) refers to usart.o(i.HAL_UART_MspInit) for HAL_UART_MspInit
    stm32f0xx_hal_uart.o(i.HAL_MultiProcessor_Init) refers to stm32f0xx_hal_uart.o(i.UART_SetConfig) for UART_SetConfig
    stm32f0xx_hal_uart.o(i.HAL_MultiProcessor_Init) refers to stm32f0xx_hal_uart.o(i.UART_AdvFeatureConfig) for UART_AdvFeatureConfig
    stm32f0xx_hal_uart.o(i.HAL_MultiProcessor_Init) refers to stm32f0xx_hal_uart.o(i.UART_CheckIdleState) for UART_CheckIdleState
    stm32f0xx_hal_uart.o(i.HAL_UART_Abort) refers to stm32f0xx_hal_dma.o(i.HAL_DMA_Abort) for HAL_DMA_Abort
    stm32f0xx_hal_uart.o(i.HAL_UART_AbortReceive) refers to stm32f0xx_hal_dma.o(i.HAL_DMA_Abort) for HAL_DMA_Abort
    stm32f0xx_hal_uart.o(i.HAL_UART_AbortReceive_IT) refers to stm32f0xx_hal_dma.o(i.HAL_DMA_Abort_IT) for HAL_DMA_Abort_IT
    stm32f0xx_hal_uart.o(i.HAL_UART_AbortReceive_IT) refers to stm32f0xx_hal_uart.o(i.HAL_UART_AbortReceiveCpltCallback) for HAL_UART_AbortReceiveCpltCallback
    stm32f0xx_hal_uart.o(i.HAL_UART_AbortReceive_IT) refers to stm32f0xx_hal_uart.o(i.UART_DMARxOnlyAbortCallback) for UART_DMARxOnlyAbortCallback
    stm32f0xx_hal_uart.o(i.HAL_UART_AbortTransmit) refers to stm32f0xx_hal_dma.o(i.HAL_DMA_Abort) for HAL_DMA_Abort
    stm32f0xx_hal_uart.o(i.HAL_UART_AbortTransmit_IT) refers to stm32f0xx_hal_dma.o(i.HAL_DMA_Abort_IT) for HAL_DMA_Abort_IT
    stm32f0xx_hal_uart.o(i.HAL_UART_AbortTransmit_IT) refers to stm32f0xx_hal_uart.o(i.HAL_UART_AbortTransmitCpltCallback) for HAL_UART_AbortTransmitCpltCallback
    stm32f0xx_hal_uart.o(i.HAL_UART_AbortTransmit_IT) refers to stm32f0xx_hal_uart.o(i.UART_DMATxOnlyAbortCallback) for UART_DMATxOnlyAbortCallback
    stm32f0xx_hal_uart.o(i.HAL_UART_Abort_IT) refers to stm32f0xx_hal_dma.o(i.HAL_DMA_Abort_IT) for HAL_DMA_Abort_IT
    stm32f0xx_hal_uart.o(i.HAL_UART_Abort_IT) refers to stm32f0xx_hal_uart.o(i.HAL_UART_AbortCpltCallback) for HAL_UART_AbortCpltCallback
    stm32f0xx_hal_uart.o(i.HAL_UART_Abort_IT) refers to stm32f0xx_hal_uart.o(i.UART_DMATxAbortCallback) for UART_DMATxAbortCallback
    stm32f0xx_hal_uart.o(i.HAL_UART_Abort_IT) refers to stm32f0xx_hal_uart.o(i.UART_DMARxAbortCallback) for UART_DMARxAbortCallback
    stm32f0xx_hal_uart.o(i.HAL_UART_DMAStop) refers to stm32f0xx_hal_dma.o(i.HAL_DMA_Abort) for HAL_DMA_Abort
    stm32f0xx_hal_uart.o(i.HAL_UART_DMAStop) refers to stm32f0xx_hal_uart.o(i.UART_EndTxTransfer) for UART_EndTxTransfer
    stm32f0xx_hal_uart.o(i.HAL_UART_DMAStop) refers to stm32f0xx_hal_uart.o(i.UART_EndRxTransfer) for UART_EndRxTransfer
    stm32f0xx_hal_uart.o(i.HAL_UART_DeInit) refers to usart.o(i.HAL_UART_MspDeInit) for HAL_UART_MspDeInit
    stm32f0xx_hal_uart.o(i.HAL_UART_IRQHandler) refers to stm32f0xx_hal_uart.o(i.UART_Receive_IT) for UART_Receive_IT
    stm32f0xx_hal_uart.o(i.HAL_UART_IRQHandler) refers to stm32f0xx_hal_uart.o(i.UART_EndRxTransfer) for UART_EndRxTransfer
    stm32f0xx_hal_uart.o(i.HAL_UART_IRQHandler) refers to stm32f0xx_hal_dma.o(i.HAL_DMA_Abort_IT) for HAL_DMA_Abort_IT
    stm32f0xx_hal_uart.o(i.HAL_UART_IRQHandler) refers to stm32f0xx_hal_uart.o(i.HAL_UART_ErrorCallback) for HAL_UART_ErrorCallback
    stm32f0xx_hal_uart.o(i.HAL_UART_IRQHandler) refers to stm32f0xx_hal_uart_ex.o(i.HAL_UARTEx_WakeupCallback) for HAL_UARTEx_WakeupCallback
    stm32f0xx_hal_uart.o(i.HAL_UART_IRQHandler) refers to stm32f0xx_hal_uart.o(i.UART_Transmit_IT) for UART_Transmit_IT
    stm32f0xx_hal_uart.o(i.HAL_UART_IRQHandler) refers to stm32f0xx_hal_uart.o(i.UART_EndTransmit_IT) for UART_EndTransmit_IT
    stm32f0xx_hal_uart.o(i.HAL_UART_IRQHandler) refers to stm32f0xx_hal_uart.o(i.UART_DMAAbortOnError) for UART_DMAAbortOnError
    stm32f0xx_hal_uart.o(i.HAL_UART_Init) refers to usart.o(i.HAL_UART_MspInit) for HAL_UART_MspInit
    stm32f0xx_hal_uart.o(i.HAL_UART_Init) refers to stm32f0xx_hal_uart.o(i.UART_SetConfig) for UART_SetConfig
    stm32f0xx_hal_uart.o(i.HAL_UART_Init) refers to stm32f0xx_hal_uart.o(i.UART_AdvFeatureConfig) for UART_AdvFeatureConfig
    stm32f0xx_hal_uart.o(i.HAL_UART_Init) refers to stm32f0xx_hal_uart.o(i.UART_CheckIdleState) for UART_CheckIdleState
    stm32f0xx_hal_uart.o(i.HAL_UART_Receive) refers to stm32f0xx_hal.o(i.HAL_GetTick) for HAL_GetTick
    stm32f0xx_hal_uart.o(i.HAL_UART_Receive) refers to stm32f0xx_hal_uart.o(i.UART_WaitOnFlagUntilTimeout) for UART_WaitOnFlagUntilTimeout
    stm32f0xx_hal_uart.o(i.HAL_UART_Receive_DMA) refers to stm32f0xx_hal_dma.o(i.HAL_DMA_Start_IT) for HAL_DMA_Start_IT
    stm32f0xx_hal_uart.o(i.HAL_UART_Receive_DMA) refers to stm32f0xx_hal_uart.o(i.UART_DMAReceiveCplt) for UART_DMAReceiveCplt
    stm32f0xx_hal_uart.o(i.HAL_UART_Receive_DMA) refers to stm32f0xx_hal_uart.o(i.UART_DMARxHalfCplt) for UART_DMARxHalfCplt
    stm32f0xx_hal_uart.o(i.HAL_UART_Receive_DMA) refers to stm32f0xx_hal_uart.o(i.UART_DMAError) for UART_DMAError
    stm32f0xx_hal_uart.o(i.HAL_UART_Transmit) refers to stm32f0xx_hal.o(i.HAL_GetTick) for HAL_GetTick
    stm32f0xx_hal_uart.o(i.HAL_UART_Transmit) refers to stm32f0xx_hal_uart.o(i.UART_WaitOnFlagUntilTimeout) for UART_WaitOnFlagUntilTimeout
    stm32f0xx_hal_uart.o(i.HAL_UART_Transmit_DMA) refers to stm32f0xx_hal_dma.o(i.HAL_DMA_Start_IT) for HAL_DMA_Start_IT
    stm32f0xx_hal_uart.o(i.HAL_UART_Transmit_DMA) refers to stm32f0xx_hal_uart.o(i.UART_DMATransmitCplt) for UART_DMATransmitCplt
    stm32f0xx_hal_uart.o(i.HAL_UART_Transmit_DMA) refers to stm32f0xx_hal_uart.o(i.UART_DMATxHalfCplt) for UART_DMATxHalfCplt
    stm32f0xx_hal_uart.o(i.HAL_UART_Transmit_DMA) refers to stm32f0xx_hal_uart.o(i.UART_DMAError) for UART_DMAError
    stm32f0xx_hal_uart.o(i.UART_CheckIdleState) refers to stm32f0xx_hal.o(i.HAL_GetTick) for HAL_GetTick
    stm32f0xx_hal_uart.o(i.UART_CheckIdleState) refers to stm32f0xx_hal_uart.o(i.UART_WaitOnFlagUntilTimeout) for UART_WaitOnFlagUntilTimeout
    stm32f0xx_hal_uart.o(i.UART_DMAAbortOnError) refers to stm32f0xx_hal_uart.o(i.HAL_UART_ErrorCallback) for HAL_UART_ErrorCallback
    stm32f0xx_hal_uart.o(i.UART_DMAError) refers to stm32f0xx_hal_uart.o(i.UART_EndTxTransfer) for UART_EndTxTransfer
    stm32f0xx_hal_uart.o(i.UART_DMAError) refers to stm32f0xx_hal_uart.o(i.UART_EndRxTransfer) for UART_EndRxTransfer
    stm32f0xx_hal_uart.o(i.UART_DMAError) refers to stm32f0xx_hal_uart.o(i.HAL_UART_ErrorCallback) for HAL_UART_ErrorCallback
    stm32f0xx_hal_uart.o(i.UART_DMAReceiveCplt) refers to stm32f0xx_hal_uart.o(i.HAL_UART_RxCpltCallback) for HAL_UART_RxCpltCallback
    stm32f0xx_hal_uart.o(i.UART_DMARxAbortCallback) refers to stm32f0xx_hal_uart.o(i.HAL_UART_AbortCpltCallback) for HAL_UART_AbortCpltCallback
    stm32f0xx_hal_uart.o(i.UART_DMARxHalfCplt) refers to stm32f0xx_hal_uart.o(i.HAL_UART_RxHalfCpltCallback) for HAL_UART_RxHalfCpltCallback
    stm32f0xx_hal_uart.o(i.UART_DMARxOnlyAbortCallback) refers to stm32f0xx_hal_uart.o(i.HAL_UART_AbortReceiveCpltCallback) for HAL_UART_AbortReceiveCpltCallback
    stm32f0xx_hal_uart.o(i.UART_DMATransmitCplt) refers to stm32f0xx_hal_uart.o(i.HAL_UART_TxCpltCallback) for HAL_UART_TxCpltCallback
    stm32f0xx_hal_uart.o(i.UART_DMATxAbortCallback) refers to stm32f0xx_hal_uart.o(i.HAL_UART_AbortCpltCallback) for HAL_UART_AbortCpltCallback
    stm32f0xx_hal_uart.o(i.UART_DMATxHalfCplt) refers to stm32f0xx_hal_uart.o(i.HAL_UART_TxHalfCpltCallback) for HAL_UART_TxHalfCpltCallback
    stm32f0xx_hal_uart.o(i.UART_DMATxOnlyAbortCallback) refers to stm32f0xx_hal_uart.o(i.HAL_UART_AbortTransmitCpltCallback) for HAL_UART_AbortTransmitCpltCallback
    stm32f0xx_hal_uart.o(i.UART_EndTransmit_IT) refers to stm32f0xx_hal_uart.o(i.HAL_UART_TxCpltCallback) for HAL_UART_TxCpltCallback
    stm32f0xx_hal_uart.o(i.UART_Receive_IT) refers to stm32f0xx_hal_uart.o(i.HAL_UART_RxCpltCallback) for HAL_UART_RxCpltCallback
    stm32f0xx_hal_uart.o(i.UART_SetConfig) refers to stm32f0xx_hal_rcc.o(i.HAL_RCC_GetPCLK1Freq) for HAL_RCC_GetPCLK1Freq
    stm32f0xx_hal_uart.o(i.UART_SetConfig) refers to aeabi_sdiv.o(.text) for __aeabi_uidivmod
    stm32f0xx_hal_uart.o(i.UART_SetConfig) refers to stm32f0xx_hal_rcc.o(i.HAL_RCC_GetSysClockFreq) for HAL_RCC_GetSysClockFreq
    stm32f0xx_hal_uart.o(i.UART_WaitOnFlagUntilTimeout) refers to stm32f0xx_hal.o(i.HAL_GetTick) for HAL_GetTick
    stm32f0xx_hal_uart_ex.o(i.HAL_LIN_Init) refers to usart.o(i.HAL_UART_MspInit) for HAL_UART_MspInit
    stm32f0xx_hal_uart_ex.o(i.HAL_LIN_Init) refers to stm32f0xx_hal_uart.o(i.UART_SetConfig) for UART_SetConfig
    stm32f0xx_hal_uart_ex.o(i.HAL_LIN_Init) refers to stm32f0xx_hal_uart.o(i.UART_AdvFeatureConfig) for UART_AdvFeatureConfig
    stm32f0xx_hal_uart_ex.o(i.HAL_LIN_Init) refers to stm32f0xx_hal_uart.o(i.UART_CheckIdleState) for UART_CheckIdleState
    stm32f0xx_hal_uart_ex.o(i.HAL_MultiProcessorEx_AddressLength_Set) refers to stm32f0xx_hal_uart.o(i.UART_CheckIdleState) for UART_CheckIdleState
    stm32f0xx_hal_uart_ex.o(i.HAL_RS485Ex_Init) refers to usart.o(i.HAL_UART_MspInit) for HAL_UART_MspInit
    stm32f0xx_hal_uart_ex.o(i.HAL_RS485Ex_Init) refers to stm32f0xx_hal_uart.o(i.UART_SetConfig) for UART_SetConfig
    stm32f0xx_hal_uart_ex.o(i.HAL_RS485Ex_Init) refers to stm32f0xx_hal_uart.o(i.UART_AdvFeatureConfig) for UART_AdvFeatureConfig
    stm32f0xx_hal_uart_ex.o(i.HAL_RS485Ex_Init) refers to stm32f0xx_hal_uart.o(i.UART_CheckIdleState) for UART_CheckIdleState
    stm32f0xx_hal_uart_ex.o(i.HAL_UARTEx_StopModeWakeUpSourceConfig) refers to stm32f0xx_hal.o(i.HAL_GetTick) for HAL_GetTick
    stm32f0xx_hal_uart_ex.o(i.HAL_UARTEx_StopModeWakeUpSourceConfig) refers to stm32f0xx_hal_uart.o(i.UART_WaitOnFlagUntilTimeout) for UART_WaitOnFlagUntilTimeout
    stm32f0xx_hal_rcc.o(i.HAL_RCC_ClockConfig) refers to stm32f0xx_hal.o(i.HAL_GetTick) for HAL_GetTick
    stm32f0xx_hal_rcc.o(i.HAL_RCC_ClockConfig) refers to stm32f0xx_hal_rcc.o(i.HAL_RCC_GetSysClockFreq) for HAL_RCC_GetSysClockFreq
    stm32f0xx_hal_rcc.o(i.HAL_RCC_ClockConfig) refers to stm32f0xx_hal_timebase_tim.o(i.HAL_InitTick) for HAL_InitTick
    stm32f0xx_hal_rcc.o(i.HAL_RCC_ClockConfig) refers to system_stm32f0xx.o(.constdata) for AHBPrescTable
    stm32f0xx_hal_rcc.o(i.HAL_RCC_ClockConfig) refers to system_stm32f0xx.o(.data) for SystemCoreClock
    stm32f0xx_hal_rcc.o(i.HAL_RCC_DeInit) refers to system_stm32f0xx.o(.data) for SystemCoreClock
    stm32f0xx_hal_rcc.o(i.HAL_RCC_GetHCLKFreq) refers to system_stm32f0xx.o(.data) for SystemCoreClock
    stm32f0xx_hal_rcc.o(i.HAL_RCC_GetPCLK1Freq) refers to system_stm32f0xx.o(.data) for SystemCoreClock
    stm32f0xx_hal_rcc.o(i.HAL_RCC_GetPCLK1Freq) refers to system_stm32f0xx.o(.constdata) for APBPrescTable
    stm32f0xx_hal_rcc.o(i.HAL_RCC_GetSysClockFreq) refers to aeabi_sdiv.o(.text) for __aeabi_uidivmod
    stm32f0xx_hal_rcc.o(i.HAL_RCC_MCOConfig) refers to stm32f0xx_hal_gpio.o(i.HAL_GPIO_Init) for HAL_GPIO_Init
    stm32f0xx_hal_rcc.o(i.HAL_RCC_NMI_IRQHandler) refers to stm32f0xx_hal_rcc.o(i.HAL_RCC_CSSCallback) for HAL_RCC_CSSCallback
    stm32f0xx_hal_rcc.o(i.HAL_RCC_OscConfig) refers to stm32f0xx_hal.o(i.HAL_GetTick) for HAL_GetTick
    stm32f0xx_hal_rcc_ex.o(i.HAL_RCCEx_CRSWaitSynchronization) refers to stm32f0xx_hal.o(i.HAL_GetTick) for HAL_GetTick
    stm32f0xx_hal_rcc_ex.o(i.HAL_RCCEx_CRS_IRQHandler) refers to stm32f0xx_hal_rcc_ex.o(i.HAL_RCCEx_CRS_SyncOkCallback) for HAL_RCCEx_CRS_SyncOkCallback
    stm32f0xx_hal_rcc_ex.o(i.HAL_RCCEx_CRS_IRQHandler) refers to stm32f0xx_hal_rcc_ex.o(i.HAL_RCCEx_CRS_SyncWarnCallback) for HAL_RCCEx_CRS_SyncWarnCallback
    stm32f0xx_hal_rcc_ex.o(i.HAL_RCCEx_CRS_IRQHandler) refers to stm32f0xx_hal_rcc_ex.o(i.HAL_RCCEx_CRS_ExpectedSyncCallback) for HAL_RCCEx_CRS_ExpectedSyncCallback
    stm32f0xx_hal_rcc_ex.o(i.HAL_RCCEx_CRS_IRQHandler) refers to stm32f0xx_hal_rcc_ex.o(i.HAL_RCCEx_CRS_ErrorCallback) for HAL_RCCEx_CRS_ErrorCallback
    stm32f0xx_hal_rcc_ex.o(i.HAL_RCCEx_GetPeriphCLKFreq) refers to stm32f0xx_hal_rcc.o(i.HAL_RCC_GetPCLK1Freq) for HAL_RCC_GetPCLK1Freq
    stm32f0xx_hal_rcc_ex.o(i.HAL_RCCEx_GetPeriphCLKFreq) refers to stm32f0xx_hal_rcc.o(i.HAL_RCC_GetSysClockFreq) for HAL_RCC_GetSysClockFreq
    stm32f0xx_hal_rcc_ex.o(i.HAL_RCCEx_GetPeriphCLKFreq) refers to aeabi_sdiv.o(.text) for __aeabi_uidivmod
    stm32f0xx_hal_rcc_ex.o(i.HAL_RCCEx_PeriphCLKConfig) refers to stm32f0xx_hal.o(i.HAL_GetTick) for HAL_GetTick
    stm32f0xx_hal.o(i.HAL_DeInit) refers to stm32f0xx_hal.o(i.HAL_MspDeInit) for HAL_MspDeInit
    stm32f0xx_hal.o(i.HAL_Delay) refers to stm32f0xx_hal.o(i.HAL_GetTick) for HAL_GetTick
    stm32f0xx_hal.o(i.HAL_GetTick) refers to stm32f0xx_hal.o(.data) for .data
    stm32f0xx_hal.o(i.HAL_IncTick) refers to stm32f0xx_hal.o(.data) for .data
    stm32f0xx_hal.o(i.HAL_Init) refers to stm32f0xx_hal_timebase_tim.o(i.HAL_InitTick) for HAL_InitTick
    stm32f0xx_hal.o(i.HAL_Init) refers to stm32f0xx_hal_msp.o(i.HAL_MspInit) for HAL_MspInit
    stm32f0xx_hal.o(i.HAL_InitTick) refers to stm32f0xx_hal_rcc.o(i.HAL_RCC_GetHCLKFreq) for HAL_RCC_GetHCLKFreq
    stm32f0xx_hal.o(i.HAL_InitTick) refers to aeabi_sdiv.o(.text) for __aeabi_uidivmod
    stm32f0xx_hal.o(i.HAL_InitTick) refers to stm32f0xx_hal_cortex.o(i.HAL_SYSTICK_Config) for HAL_SYSTICK_Config
    stm32f0xx_hal.o(i.HAL_InitTick) refers to stm32f0xx_hal_cortex.o(i.HAL_NVIC_SetPriority) for HAL_NVIC_SetPriority
    stm32f0xx_hal_i2c.o(i.HAL_I2C_DeInit) refers to stm32f0xx_hal_i2c.o(i.HAL_I2C_MspDeInit) for HAL_I2C_MspDeInit
    stm32f0xx_hal_i2c.o(i.HAL_I2C_DisableListen_IT) refers to stm32f0xx_hal_i2c.o(i.I2C_Disable_IRQ) for I2C_Disable_IRQ
    stm32f0xx_hal_i2c.o(i.HAL_I2C_ER_IRQHandler) refers to stm32f0xx_hal_i2c.o(i.I2C_ITError) for I2C_ITError
    stm32f0xx_hal_i2c.o(i.HAL_I2C_EnableListen_IT) refers to stm32f0xx_hal_i2c.o(i.I2C_Enable_IRQ) for I2C_Enable_IRQ
    stm32f0xx_hal_i2c.o(i.HAL_I2C_EnableListen_IT) refers to stm32f0xx_hal_i2c.o(i.I2C_Slave_ISR_IT) for I2C_Slave_ISR_IT
    stm32f0xx_hal_i2c.o(i.HAL_I2C_Init) refers to stm32f0xx_hal_i2c.o(i.HAL_I2C_MspInit) for HAL_I2C_MspInit
    stm32f0xx_hal_i2c.o(i.HAL_I2C_IsDeviceReady) refers to stm32f0xx_hal.o(i.HAL_GetTick) for HAL_GetTick
    stm32f0xx_hal_i2c.o(i.HAL_I2C_IsDeviceReady) refers to stm32f0xx_hal_i2c.o(i.I2C_WaitOnFlagUntilTimeout) for I2C_WaitOnFlagUntilTimeout
    stm32f0xx_hal_i2c.o(i.HAL_I2C_Master_Abort_IT) refers to stm32f0xx_hal_i2c.o(i.I2C_Disable_IRQ) for I2C_Disable_IRQ
    stm32f0xx_hal_i2c.o(i.HAL_I2C_Master_Abort_IT) refers to stm32f0xx_hal_i2c.o(i.I2C_TransferConfig) for I2C_TransferConfig
    stm32f0xx_hal_i2c.o(i.HAL_I2C_Master_Abort_IT) refers to stm32f0xx_hal_i2c.o(i.I2C_Enable_IRQ) for I2C_Enable_IRQ
    stm32f0xx_hal_i2c.o(i.HAL_I2C_Master_Receive) refers to stm32f0xx_hal.o(i.HAL_GetTick) for HAL_GetTick
    stm32f0xx_hal_i2c.o(i.HAL_I2C_Master_Receive) refers to stm32f0xx_hal_i2c.o(i.I2C_WaitOnFlagUntilTimeout) for I2C_WaitOnFlagUntilTimeout
    stm32f0xx_hal_i2c.o(i.HAL_I2C_Master_Receive) refers to stm32f0xx_hal_i2c.o(i.I2C_TransferConfig) for I2C_TransferConfig
    stm32f0xx_hal_i2c.o(i.HAL_I2C_Master_Receive) refers to stm32f0xx_hal_i2c.o(i.I2C_WaitOnRXNEFlagUntilTimeout) for I2C_WaitOnRXNEFlagUntilTimeout
    stm32f0xx_hal_i2c.o(i.HAL_I2C_Master_Receive) refers to stm32f0xx_hal_i2c.o(i.I2C_WaitOnSTOPFlagUntilTimeout) for I2C_WaitOnSTOPFlagUntilTimeout
    stm32f0xx_hal_i2c.o(i.HAL_I2C_Master_Receive_DMA) refers to stm32f0xx_hal_dma.o(i.HAL_DMA_Start_IT) for HAL_DMA_Start_IT
    stm32f0xx_hal_i2c.o(i.HAL_I2C_Master_Receive_DMA) refers to stm32f0xx_hal_i2c.o(i.I2C_TransferConfig) for I2C_TransferConfig
    stm32f0xx_hal_i2c.o(i.HAL_I2C_Master_Receive_DMA) refers to stm32f0xx_hal_i2c.o(i.I2C_Enable_IRQ) for I2C_Enable_IRQ
    stm32f0xx_hal_i2c.o(i.HAL_I2C_Master_Receive_DMA) refers to stm32f0xx_hal_i2c.o(i.I2C_Master_ISR_DMA) for I2C_Master_ISR_DMA
    stm32f0xx_hal_i2c.o(i.HAL_I2C_Master_Receive_DMA) refers to stm32f0xx_hal_i2c.o(i.I2C_DMAMasterReceiveCplt) for I2C_DMAMasterReceiveCplt
    stm32f0xx_hal_i2c.o(i.HAL_I2C_Master_Receive_DMA) refers to stm32f0xx_hal_i2c.o(i.I2C_DMAError) for I2C_DMAError
    stm32f0xx_hal_i2c.o(i.HAL_I2C_Master_Receive_DMA) refers to stm32f0xx_hal_i2c.o(i.I2C_Master_ISR_IT) for I2C_Master_ISR_IT
    stm32f0xx_hal_i2c.o(i.HAL_I2C_Master_Receive_IT) refers to stm32f0xx_hal_i2c.o(i.I2C_TransferConfig) for I2C_TransferConfig
    stm32f0xx_hal_i2c.o(i.HAL_I2C_Master_Receive_IT) refers to stm32f0xx_hal_i2c.o(i.I2C_Enable_IRQ) for I2C_Enable_IRQ
    stm32f0xx_hal_i2c.o(i.HAL_I2C_Master_Receive_IT) refers to stm32f0xx_hal_i2c.o(i.I2C_Master_ISR_IT) for I2C_Master_ISR_IT
    stm32f0xx_hal_i2c.o(i.HAL_I2C_Master_Sequential_Receive_IT) refers to stm32f0xx_hal_i2c.o(i.I2C_TransferConfig) for I2C_TransferConfig
    stm32f0xx_hal_i2c.o(i.HAL_I2C_Master_Sequential_Receive_IT) refers to stm32f0xx_hal_i2c.o(i.I2C_Enable_IRQ) for I2C_Enable_IRQ
    stm32f0xx_hal_i2c.o(i.HAL_I2C_Master_Sequential_Receive_IT) refers to stm32f0xx_hal_i2c.o(i.I2C_Master_ISR_IT) for I2C_Master_ISR_IT
    stm32f0xx_hal_i2c.o(i.HAL_I2C_Master_Sequential_Transmit_IT) refers to stm32f0xx_hal_i2c.o(i.I2C_TransferConfig) for I2C_TransferConfig
    stm32f0xx_hal_i2c.o(i.HAL_I2C_Master_Sequential_Transmit_IT) refers to stm32f0xx_hal_i2c.o(i.I2C_Enable_IRQ) for I2C_Enable_IRQ
    stm32f0xx_hal_i2c.o(i.HAL_I2C_Master_Sequential_Transmit_IT) refers to stm32f0xx_hal_i2c.o(i.I2C_Master_ISR_IT) for I2C_Master_ISR_IT
    stm32f0xx_hal_i2c.o(i.HAL_I2C_Master_Transmit) refers to stm32f0xx_hal.o(i.HAL_GetTick) for HAL_GetTick
    stm32f0xx_hal_i2c.o(i.HAL_I2C_Master_Transmit) refers to stm32f0xx_hal_i2c.o(i.I2C_WaitOnFlagUntilTimeout) for I2C_WaitOnFlagUntilTimeout
    stm32f0xx_hal_i2c.o(i.HAL_I2C_Master_Transmit) refers to stm32f0xx_hal_i2c.o(i.I2C_TransferConfig) for I2C_TransferConfig
    stm32f0xx_hal_i2c.o(i.HAL_I2C_Master_Transmit) refers to stm32f0xx_hal_i2c.o(i.I2C_WaitOnTXISFlagUntilTimeout) for I2C_WaitOnTXISFlagUntilTimeout
    stm32f0xx_hal_i2c.o(i.HAL_I2C_Master_Transmit) refers to stm32f0xx_hal_i2c.o(i.I2C_WaitOnSTOPFlagUntilTimeout) for I2C_WaitOnSTOPFlagUntilTimeout
    stm32f0xx_hal_i2c.o(i.HAL_I2C_Master_Transmit_DMA) refers to stm32f0xx_hal_dma.o(i.HAL_DMA_Start_IT) for HAL_DMA_Start_IT
    stm32f0xx_hal_i2c.o(i.HAL_I2C_Master_Transmit_DMA) refers to stm32f0xx_hal_i2c.o(i.I2C_TransferConfig) for I2C_TransferConfig
    stm32f0xx_hal_i2c.o(i.HAL_I2C_Master_Transmit_DMA) refers to stm32f0xx_hal_i2c.o(i.I2C_Enable_IRQ) for I2C_Enable_IRQ
    stm32f0xx_hal_i2c.o(i.HAL_I2C_Master_Transmit_DMA) refers to stm32f0xx_hal_i2c.o(i.I2C_Master_ISR_DMA) for I2C_Master_ISR_DMA
    stm32f0xx_hal_i2c.o(i.HAL_I2C_Master_Transmit_DMA) refers to stm32f0xx_hal_i2c.o(i.I2C_DMAMasterTransmitCplt) for I2C_DMAMasterTransmitCplt
    stm32f0xx_hal_i2c.o(i.HAL_I2C_Master_Transmit_DMA) refers to stm32f0xx_hal_i2c.o(i.I2C_DMAError) for I2C_DMAError
    stm32f0xx_hal_i2c.o(i.HAL_I2C_Master_Transmit_DMA) refers to stm32f0xx_hal_i2c.o(i.I2C_Master_ISR_IT) for I2C_Master_ISR_IT
    stm32f0xx_hal_i2c.o(i.HAL_I2C_Master_Transmit_IT) refers to stm32f0xx_hal_i2c.o(i.I2C_TransferConfig) for I2C_TransferConfig
    stm32f0xx_hal_i2c.o(i.HAL_I2C_Master_Transmit_IT) refers to stm32f0xx_hal_i2c.o(i.I2C_Enable_IRQ) for I2C_Enable_IRQ
    stm32f0xx_hal_i2c.o(i.HAL_I2C_Master_Transmit_IT) refers to stm32f0xx_hal_i2c.o(i.I2C_Master_ISR_IT) for I2C_Master_ISR_IT
    stm32f0xx_hal_i2c.o(i.HAL_I2C_Mem_Read) refers to stm32f0xx_hal.o(i.HAL_GetTick) for HAL_GetTick
    stm32f0xx_hal_i2c.o(i.HAL_I2C_Mem_Read) refers to stm32f0xx_hal_i2c.o(i.I2C_WaitOnFlagUntilTimeout) for I2C_WaitOnFlagUntilTimeout
    stm32f0xx_hal_i2c.o(i.HAL_I2C_Mem_Read) refers to stm32f0xx_hal_i2c.o(i.I2C_RequestMemoryRead) for I2C_RequestMemoryRead
    stm32f0xx_hal_i2c.o(i.HAL_I2C_Mem_Read) refers to stm32f0xx_hal_i2c.o(i.I2C_TransferConfig) for I2C_TransferConfig
    stm32f0xx_hal_i2c.o(i.HAL_I2C_Mem_Read) refers to stm32f0xx_hal_i2c.o(i.I2C_WaitOnSTOPFlagUntilTimeout) for I2C_WaitOnSTOPFlagUntilTimeout
    stm32f0xx_hal_i2c.o(i.HAL_I2C_Mem_Read_DMA) refers to stm32f0xx_hal.o(i.HAL_GetTick) for HAL_GetTick
    stm32f0xx_hal_i2c.o(i.HAL_I2C_Mem_Read_DMA) refers to stm32f0xx_hal_i2c.o(i.I2C_RequestMemoryRead) for I2C_RequestMemoryRead
    stm32f0xx_hal_i2c.o(i.HAL_I2C_Mem_Read_DMA) refers to stm32f0xx_hal_dma.o(i.HAL_DMA_Start_IT) for HAL_DMA_Start_IT
    stm32f0xx_hal_i2c.o(i.HAL_I2C_Mem_Read_DMA) refers to stm32f0xx_hal_i2c.o(i.I2C_TransferConfig) for I2C_TransferConfig
    stm32f0xx_hal_i2c.o(i.HAL_I2C_Mem_Read_DMA) refers to stm32f0xx_hal_i2c.o(i.I2C_Enable_IRQ) for I2C_Enable_IRQ
    stm32f0xx_hal_i2c.o(i.HAL_I2C_Mem_Read_DMA) refers to stm32f0xx_hal_i2c.o(i.I2C_Master_ISR_DMA) for I2C_Master_ISR_DMA
    stm32f0xx_hal_i2c.o(i.HAL_I2C_Mem_Read_DMA) refers to stm32f0xx_hal_i2c.o(i.I2C_DMAMasterReceiveCplt) for I2C_DMAMasterReceiveCplt
    stm32f0xx_hal_i2c.o(i.HAL_I2C_Mem_Read_DMA) refers to stm32f0xx_hal_i2c.o(i.I2C_DMAError) for I2C_DMAError
    stm32f0xx_hal_i2c.o(i.HAL_I2C_Mem_Read_IT) refers to stm32f0xx_hal.o(i.HAL_GetTick) for HAL_GetTick
    stm32f0xx_hal_i2c.o(i.HAL_I2C_Mem_Read_IT) refers to stm32f0xx_hal_i2c.o(i.I2C_RequestMemoryRead) for I2C_RequestMemoryRead
    stm32f0xx_hal_i2c.o(i.HAL_I2C_Mem_Read_IT) refers to stm32f0xx_hal_i2c.o(i.I2C_TransferConfig) for I2C_TransferConfig
    stm32f0xx_hal_i2c.o(i.HAL_I2C_Mem_Read_IT) refers to stm32f0xx_hal_i2c.o(i.I2C_Enable_IRQ) for I2C_Enable_IRQ
    stm32f0xx_hal_i2c.o(i.HAL_I2C_Mem_Read_IT) refers to stm32f0xx_hal_i2c.o(i.I2C_Master_ISR_IT) for I2C_Master_ISR_IT
    stm32f0xx_hal_i2c.o(i.HAL_I2C_Mem_Write) refers to stm32f0xx_hal.o(i.HAL_GetTick) for HAL_GetTick
    stm32f0xx_hal_i2c.o(i.HAL_I2C_Mem_Write) refers to stm32f0xx_hal_i2c.o(i.I2C_WaitOnFlagUntilTimeout) for I2C_WaitOnFlagUntilTimeout
    stm32f0xx_hal_i2c.o(i.HAL_I2C_Mem_Write) refers to stm32f0xx_hal_i2c.o(i.I2C_RequestMemoryWrite) for I2C_RequestMemoryWrite
    stm32f0xx_hal_i2c.o(i.HAL_I2C_Mem_Write) refers to stm32f0xx_hal_i2c.o(i.I2C_TransferConfig) for I2C_TransferConfig
    stm32f0xx_hal_i2c.o(i.HAL_I2C_Mem_Write) refers to stm32f0xx_hal_i2c.o(i.I2C_WaitOnTXISFlagUntilTimeout) for I2C_WaitOnTXISFlagUntilTimeout
    stm32f0xx_hal_i2c.o(i.HAL_I2C_Mem_Write) refers to stm32f0xx_hal_i2c.o(i.I2C_WaitOnSTOPFlagUntilTimeout) for I2C_WaitOnSTOPFlagUntilTimeout
    stm32f0xx_hal_i2c.o(i.HAL_I2C_Mem_Write_DMA) refers to stm32f0xx_hal.o(i.HAL_GetTick) for HAL_GetTick
    stm32f0xx_hal_i2c.o(i.HAL_I2C_Mem_Write_DMA) refers to stm32f0xx_hal_i2c.o(i.I2C_RequestMemoryWrite) for I2C_RequestMemoryWrite
    stm32f0xx_hal_i2c.o(i.HAL_I2C_Mem_Write_DMA) refers to stm32f0xx_hal_dma.o(i.HAL_DMA_Start_IT) for HAL_DMA_Start_IT
    stm32f0xx_hal_i2c.o(i.HAL_I2C_Mem_Write_DMA) refers to stm32f0xx_hal_i2c.o(i.I2C_TransferConfig) for I2C_TransferConfig
    stm32f0xx_hal_i2c.o(i.HAL_I2C_Mem_Write_DMA) refers to stm32f0xx_hal_i2c.o(i.I2C_Enable_IRQ) for I2C_Enable_IRQ
    stm32f0xx_hal_i2c.o(i.HAL_I2C_Mem_Write_DMA) refers to stm32f0xx_hal_i2c.o(i.I2C_Master_ISR_DMA) for I2C_Master_ISR_DMA
    stm32f0xx_hal_i2c.o(i.HAL_I2C_Mem_Write_DMA) refers to stm32f0xx_hal_i2c.o(i.I2C_DMAMasterTransmitCplt) for I2C_DMAMasterTransmitCplt
    stm32f0xx_hal_i2c.o(i.HAL_I2C_Mem_Write_DMA) refers to stm32f0xx_hal_i2c.o(i.I2C_DMAError) for I2C_DMAError
    stm32f0xx_hal_i2c.o(i.HAL_I2C_Mem_Write_IT) refers to stm32f0xx_hal.o(i.HAL_GetTick) for HAL_GetTick
    stm32f0xx_hal_i2c.o(i.HAL_I2C_Mem_Write_IT) refers to stm32f0xx_hal_i2c.o(i.I2C_RequestMemoryWrite) for I2C_RequestMemoryWrite
    stm32f0xx_hal_i2c.o(i.HAL_I2C_Mem_Write_IT) refers to stm32f0xx_hal_i2c.o(i.I2C_TransferConfig) for I2C_TransferConfig
    stm32f0xx_hal_i2c.o(i.HAL_I2C_Mem_Write_IT) refers to stm32f0xx_hal_i2c.o(i.I2C_Enable_IRQ) for I2C_Enable_IRQ
    stm32f0xx_hal_i2c.o(i.HAL_I2C_Mem_Write_IT) refers to stm32f0xx_hal_i2c.o(i.I2C_Master_ISR_IT) for I2C_Master_ISR_IT
    stm32f0xx_hal_i2c.o(i.HAL_I2C_Slave_Receive) refers to stm32f0xx_hal.o(i.HAL_GetTick) for HAL_GetTick
    stm32f0xx_hal_i2c.o(i.HAL_I2C_Slave_Receive) refers to stm32f0xx_hal_i2c.o(i.I2C_WaitOnFlagUntilTimeout) for I2C_WaitOnFlagUntilTimeout
    stm32f0xx_hal_i2c.o(i.HAL_I2C_Slave_Receive) refers to stm32f0xx_hal_i2c.o(i.I2C_WaitOnRXNEFlagUntilTimeout) for I2C_WaitOnRXNEFlagUntilTimeout
    stm32f0xx_hal_i2c.o(i.HAL_I2C_Slave_Receive) refers to stm32f0xx_hal_i2c.o(i.I2C_WaitOnSTOPFlagUntilTimeout) for I2C_WaitOnSTOPFlagUntilTimeout
    stm32f0xx_hal_i2c.o(i.HAL_I2C_Slave_Receive_DMA) refers to stm32f0xx_hal_dma.o(i.HAL_DMA_Start_IT) for HAL_DMA_Start_IT
    stm32f0xx_hal_i2c.o(i.HAL_I2C_Slave_Receive_DMA) refers to stm32f0xx_hal_i2c.o(i.I2C_Enable_IRQ) for I2C_Enable_IRQ
    stm32f0xx_hal_i2c.o(i.HAL_I2C_Slave_Receive_DMA) refers to stm32f0xx_hal_i2c.o(i.I2C_Slave_ISR_DMA) for I2C_Slave_ISR_DMA
    stm32f0xx_hal_i2c.o(i.HAL_I2C_Slave_Receive_DMA) refers to stm32f0xx_hal_i2c.o(i.I2C_DMASlaveReceiveCplt) for I2C_DMASlaveReceiveCplt
    stm32f0xx_hal_i2c.o(i.HAL_I2C_Slave_Receive_DMA) refers to stm32f0xx_hal_i2c.o(i.I2C_DMAError) for I2C_DMAError
    stm32f0xx_hal_i2c.o(i.HAL_I2C_Slave_Receive_IT) refers to stm32f0xx_hal_i2c.o(i.I2C_Enable_IRQ) for I2C_Enable_IRQ
    stm32f0xx_hal_i2c.o(i.HAL_I2C_Slave_Receive_IT) refers to stm32f0xx_hal_i2c.o(i.I2C_Slave_ISR_IT) for I2C_Slave_ISR_IT
    stm32f0xx_hal_i2c.o(i.HAL_I2C_Slave_Sequential_Receive_IT) refers to stm32f0xx_hal_i2c.o(i.I2C_Disable_IRQ) for I2C_Disable_IRQ
    stm32f0xx_hal_i2c.o(i.HAL_I2C_Slave_Sequential_Receive_IT) refers to stm32f0xx_hal_i2c.o(i.I2C_Enable_IRQ) for I2C_Enable_IRQ
    stm32f0xx_hal_i2c.o(i.HAL_I2C_Slave_Sequential_Receive_IT) refers to stm32f0xx_hal_i2c.o(i.I2C_Slave_ISR_IT) for I2C_Slave_ISR_IT
    stm32f0xx_hal_i2c.o(i.HAL_I2C_Slave_Sequential_Transmit_IT) refers to stm32f0xx_hal_i2c.o(i.I2C_Disable_IRQ) for I2C_Disable_IRQ
    stm32f0xx_hal_i2c.o(i.HAL_I2C_Slave_Sequential_Transmit_IT) refers to stm32f0xx_hal_i2c.o(i.I2C_Enable_IRQ) for I2C_Enable_IRQ
    stm32f0xx_hal_i2c.o(i.HAL_I2C_Slave_Sequential_Transmit_IT) refers to stm32f0xx_hal_i2c.o(i.I2C_Slave_ISR_IT) for I2C_Slave_ISR_IT
    stm32f0xx_hal_i2c.o(i.HAL_I2C_Slave_Transmit) refers to stm32f0xx_hal.o(i.HAL_GetTick) for HAL_GetTick
    stm32f0xx_hal_i2c.o(i.HAL_I2C_Slave_Transmit) refers to stm32f0xx_hal_i2c.o(i.I2C_WaitOnFlagUntilTimeout) for I2C_WaitOnFlagUntilTimeout
    stm32f0xx_hal_i2c.o(i.HAL_I2C_Slave_Transmit) refers to stm32f0xx_hal_i2c.o(i.I2C_WaitOnTXISFlagUntilTimeout) for I2C_WaitOnTXISFlagUntilTimeout
    stm32f0xx_hal_i2c.o(i.HAL_I2C_Slave_Transmit) refers to stm32f0xx_hal_i2c.o(i.I2C_WaitOnSTOPFlagUntilTimeout) for I2C_WaitOnSTOPFlagUntilTimeout
    stm32f0xx_hal_i2c.o(i.HAL_I2C_Slave_Transmit_DMA) refers to stm32f0xx_hal_dma.o(i.HAL_DMA_Start_IT) for HAL_DMA_Start_IT
    stm32f0xx_hal_i2c.o(i.HAL_I2C_Slave_Transmit_DMA) refers to stm32f0xx_hal_i2c.o(i.I2C_Enable_IRQ) for I2C_Enable_IRQ
    stm32f0xx_hal_i2c.o(i.HAL_I2C_Slave_Transmit_DMA) refers to stm32f0xx_hal_i2c.o(i.I2C_Slave_ISR_DMA) for I2C_Slave_ISR_DMA
    stm32f0xx_hal_i2c.o(i.HAL_I2C_Slave_Transmit_DMA) refers to stm32f0xx_hal_i2c.o(i.I2C_DMASlaveTransmitCplt) for I2C_DMASlaveTransmitCplt
    stm32f0xx_hal_i2c.o(i.HAL_I2C_Slave_Transmit_DMA) refers to stm32f0xx_hal_i2c.o(i.I2C_DMAError) for I2C_DMAError
    stm32f0xx_hal_i2c.o(i.HAL_I2C_Slave_Transmit_IT) refers to stm32f0xx_hal_i2c.o(i.I2C_Enable_IRQ) for I2C_Enable_IRQ
    stm32f0xx_hal_i2c.o(i.HAL_I2C_Slave_Transmit_IT) refers to stm32f0xx_hal_i2c.o(i.I2C_Slave_ISR_IT) for I2C_Slave_ISR_IT
    stm32f0xx_hal_i2c.o(i.I2C_DMAAbort) refers to stm32f0xx_hal_i2c.o(i.HAL_I2C_ErrorCallback) for HAL_I2C_ErrorCallback
    stm32f0xx_hal_i2c.o(i.I2C_DMAAbort) refers to stm32f0xx_hal_i2c.o(i.HAL_I2C_AbortCpltCallback) for HAL_I2C_AbortCpltCallback
    stm32f0xx_hal_i2c.o(i.I2C_DMAError) refers to stm32f0xx_hal_i2c.o(i.I2C_ITError) for I2C_ITError
    stm32f0xx_hal_i2c.o(i.I2C_DMAMasterReceiveCplt) refers to stm32f0xx_hal_i2c.o(i.I2C_Enable_IRQ) for I2C_Enable_IRQ
    stm32f0xx_hal_i2c.o(i.I2C_DMAMasterReceiveCplt) refers to stm32f0xx_hal_dma.o(i.HAL_DMA_Start_IT) for HAL_DMA_Start_IT
    stm32f0xx_hal_i2c.o(i.I2C_DMAMasterTransmitCplt) refers to stm32f0xx_hal_i2c.o(i.I2C_Enable_IRQ) for I2C_Enable_IRQ
    stm32f0xx_hal_i2c.o(i.I2C_DMAMasterTransmitCplt) refers to stm32f0xx_hal_dma.o(i.HAL_DMA_Start_IT) for HAL_DMA_Start_IT
    stm32f0xx_hal_i2c.o(i.I2C_Enable_IRQ) refers to stm32f0xx_hal_i2c.o(i.I2C_Master_ISR_DMA) for I2C_Master_ISR_DMA
    stm32f0xx_hal_i2c.o(i.I2C_Enable_IRQ) refers to stm32f0xx_hal_i2c.o(i.I2C_Slave_ISR_DMA) for I2C_Slave_ISR_DMA
    stm32f0xx_hal_i2c.o(i.I2C_ITAddrCplt) refers to stm32f0xx_hal_i2c.o(i.I2C_Disable_IRQ) for I2C_Disable_IRQ
    stm32f0xx_hal_i2c.o(i.I2C_ITAddrCplt) refers to stm32f0xx_hal_i2c.o(i.HAL_I2C_AddrCallback) for HAL_I2C_AddrCallback
    stm32f0xx_hal_i2c.o(i.I2C_ITError) refers to stm32f0xx_hal_i2c.o(i.I2C_Disable_IRQ) for I2C_Disable_IRQ
    stm32f0xx_hal_i2c.o(i.I2C_ITError) refers to stm32f0xx_hal_dma.o(i.HAL_DMA_Abort_IT) for HAL_DMA_Abort_IT
    stm32f0xx_hal_i2c.o(i.I2C_ITError) refers to stm32f0xx_hal_i2c.o(i.HAL_I2C_ErrorCallback) for HAL_I2C_ErrorCallback
    stm32f0xx_hal_i2c.o(i.I2C_ITError) refers to stm32f0xx_hal_i2c.o(i.HAL_I2C_AbortCpltCallback) for HAL_I2C_AbortCpltCallback
    stm32f0xx_hal_i2c.o(i.I2C_ITError) refers to stm32f0xx_hal_i2c.o(i.I2C_DMAAbort) for I2C_DMAAbort
    stm32f0xx_hal_i2c.o(i.I2C_ITError) refers to stm32f0xx_hal_i2c.o(i.I2C_Slave_ISR_IT) for I2C_Slave_ISR_IT
    stm32f0xx_hal_i2c.o(i.I2C_ITListenCplt) refers to stm32f0xx_hal_i2c.o(i.I2C_Disable_IRQ) for I2C_Disable_IRQ
    stm32f0xx_hal_i2c.o(i.I2C_ITListenCplt) refers to stm32f0xx_hal_i2c.o(i.HAL_I2C_ListenCpltCallback) for HAL_I2C_ListenCpltCallback
    stm32f0xx_hal_i2c.o(i.I2C_ITMasterCplt) refers to stm32f0xx_hal_i2c.o(i.I2C_Flush_TXDR) for I2C_Flush_TXDR
    stm32f0xx_hal_i2c.o(i.I2C_ITMasterCplt) refers to stm32f0xx_hal_i2c.o(i.I2C_Disable_IRQ) for I2C_Disable_IRQ
    stm32f0xx_hal_i2c.o(i.I2C_ITMasterCplt) refers to stm32f0xx_hal_i2c.o(i.HAL_I2C_MasterRxCpltCallback) for HAL_I2C_MasterRxCpltCallback
    stm32f0xx_hal_i2c.o(i.I2C_ITMasterCplt) refers to stm32f0xx_hal_i2c.o(i.I2C_ITError) for I2C_ITError
    stm32f0xx_hal_i2c.o(i.I2C_ITMasterCplt) refers to stm32f0xx_hal_i2c.o(i.HAL_I2C_MasterTxCpltCallback) for HAL_I2C_MasterTxCpltCallback
    stm32f0xx_hal_i2c.o(i.I2C_ITMasterCplt) refers to stm32f0xx_hal_i2c.o(i.HAL_I2C_MemTxCpltCallback) for HAL_I2C_MemTxCpltCallback
    stm32f0xx_hal_i2c.o(i.I2C_ITMasterCplt) refers to stm32f0xx_hal_i2c.o(i.HAL_I2C_MemRxCpltCallback) for HAL_I2C_MemRxCpltCallback
    stm32f0xx_hal_i2c.o(i.I2C_ITMasterSequentialCplt) refers to stm32f0xx_hal_i2c.o(i.I2C_Disable_IRQ) for I2C_Disable_IRQ
    stm32f0xx_hal_i2c.o(i.I2C_ITMasterSequentialCplt) refers to stm32f0xx_hal_i2c.o(i.HAL_I2C_MasterRxCpltCallback) for HAL_I2C_MasterRxCpltCallback
    stm32f0xx_hal_i2c.o(i.I2C_ITMasterSequentialCplt) refers to stm32f0xx_hal_i2c.o(i.HAL_I2C_MasterTxCpltCallback) for HAL_I2C_MasterTxCpltCallback
    stm32f0xx_hal_i2c.o(i.I2C_ITSlaveCplt) refers to stm32f0xx_hal_i2c.o(i.I2C_Disable_IRQ) for I2C_Disable_IRQ
    stm32f0xx_hal_i2c.o(i.I2C_ITSlaveCplt) refers to stm32f0xx_hal_i2c.o(i.I2C_Flush_TXDR) for I2C_Flush_TXDR
    stm32f0xx_hal_i2c.o(i.I2C_ITSlaveCplt) refers to stm32f0xx_hal_i2c.o(i.I2C_ITError) for I2C_ITError
    stm32f0xx_hal_i2c.o(i.I2C_ITSlaveCplt) refers to stm32f0xx_hal_i2c.o(i.I2C_ITListenCplt) for I2C_ITListenCplt
    stm32f0xx_hal_i2c.o(i.I2C_ITSlaveCplt) refers to stm32f0xx_hal_i2c.o(i.HAL_I2C_ListenCpltCallback) for HAL_I2C_ListenCpltCallback
    stm32f0xx_hal_i2c.o(i.I2C_ITSlaveCplt) refers to stm32f0xx_hal_i2c.o(i.HAL_I2C_SlaveTxCpltCallback) for HAL_I2C_SlaveTxCpltCallback
    stm32f0xx_hal_i2c.o(i.I2C_ITSlaveCplt) refers to stm32f0xx_hal_i2c.o(i.HAL_I2C_SlaveRxCpltCallback) for HAL_I2C_SlaveRxCpltCallback
    stm32f0xx_hal_i2c.o(i.I2C_ITSlaveSequentialCplt) refers to stm32f0xx_hal_i2c.o(i.I2C_Disable_IRQ) for I2C_Disable_IRQ
    stm32f0xx_hal_i2c.o(i.I2C_ITSlaveSequentialCplt) refers to stm32f0xx_hal_i2c.o(i.HAL_I2C_SlaveRxCpltCallback) for HAL_I2C_SlaveRxCpltCallback
    stm32f0xx_hal_i2c.o(i.I2C_ITSlaveSequentialCplt) refers to stm32f0xx_hal_i2c.o(i.HAL_I2C_SlaveTxCpltCallback) for HAL_I2C_SlaveTxCpltCallback
    stm32f0xx_hal_i2c.o(i.I2C_IsAcknowledgeFailed) refers to stm32f0xx_hal.o(i.HAL_GetTick) for HAL_GetTick
    stm32f0xx_hal_i2c.o(i.I2C_IsAcknowledgeFailed) refers to stm32f0xx_hal_i2c.o(i.I2C_Flush_TXDR) for I2C_Flush_TXDR
    stm32f0xx_hal_i2c.o(i.I2C_Master_ISR_DMA) refers to stm32f0xx_hal_i2c.o(i.I2C_Enable_IRQ) for I2C_Enable_IRQ
    stm32f0xx_hal_i2c.o(i.I2C_Master_ISR_DMA) refers to stm32f0xx_hal_i2c.o(i.I2C_Flush_TXDR) for I2C_Flush_TXDR
    stm32f0xx_hal_i2c.o(i.I2C_Master_ISR_DMA) refers to stm32f0xx_hal_i2c.o(i.I2C_TransferConfig) for I2C_TransferConfig
    stm32f0xx_hal_i2c.o(i.I2C_Master_ISR_DMA) refers to stm32f0xx_hal_i2c.o(i.I2C_ITError) for I2C_ITError
    stm32f0xx_hal_i2c.o(i.I2C_Master_ISR_DMA) refers to stm32f0xx_hal_i2c.o(i.I2C_ITMasterCplt) for I2C_ITMasterCplt
    stm32f0xx_hal_i2c.o(i.I2C_Master_ISR_IT) refers to stm32f0xx_hal_i2c.o(i.I2C_Flush_TXDR) for I2C_Flush_TXDR
    stm32f0xx_hal_i2c.o(i.I2C_Master_ISR_IT) refers to stm32f0xx_hal_i2c.o(i.I2C_TransferConfig) for I2C_TransferConfig
    stm32f0xx_hal_i2c.o(i.I2C_Master_ISR_IT) refers to stm32f0xx_hal_i2c.o(i.I2C_ITError) for I2C_ITError
    stm32f0xx_hal_i2c.o(i.I2C_Master_ISR_IT) refers to stm32f0xx_hal_i2c.o(i.I2C_ITMasterCplt) for I2C_ITMasterCplt
    stm32f0xx_hal_i2c.o(i.I2C_Master_ISR_IT) refers to stm32f0xx_hal_i2c.o(i.I2C_ITMasterSequentialCplt) for I2C_ITMasterSequentialCplt
    stm32f0xx_hal_i2c.o(i.I2C_RequestMemoryRead) refers to stm32f0xx_hal_i2c.o(i.I2C_TransferConfig) for I2C_TransferConfig
    stm32f0xx_hal_i2c.o(i.I2C_RequestMemoryRead) refers to stm32f0xx_hal_i2c.o(i.I2C_WaitOnTXISFlagUntilTimeout) for I2C_WaitOnTXISFlagUntilTimeout
    stm32f0xx_hal_i2c.o(i.I2C_RequestMemoryRead) refers to stm32f0xx_hal_i2c.o(i.I2C_WaitOnFlagUntilTimeout) for I2C_WaitOnFlagUntilTimeout
    stm32f0xx_hal_i2c.o(i.I2C_RequestMemoryWrite) refers to stm32f0xx_hal_i2c.o(i.I2C_TransferConfig) for I2C_TransferConfig
    stm32f0xx_hal_i2c.o(i.I2C_RequestMemoryWrite) refers to stm32f0xx_hal_i2c.o(i.I2C_WaitOnTXISFlagUntilTimeout) for I2C_WaitOnTXISFlagUntilTimeout
    stm32f0xx_hal_i2c.o(i.I2C_RequestMemoryWrite) refers to stm32f0xx_hal_i2c.o(i.I2C_WaitOnFlagUntilTimeout) for I2C_WaitOnFlagUntilTimeout
    stm32f0xx_hal_i2c.o(i.I2C_Slave_ISR_DMA) refers to stm32f0xx_hal_i2c.o(i.I2C_ITSlaveCplt) for I2C_ITSlaveCplt
    stm32f0xx_hal_i2c.o(i.I2C_Slave_ISR_IT) refers to stm32f0xx_hal_i2c.o(i.I2C_ITListenCplt) for I2C_ITListenCplt
    stm32f0xx_hal_i2c.o(i.I2C_Slave_ISR_IT) refers to stm32f0xx_hal_i2c.o(i.I2C_Flush_TXDR) for I2C_Flush_TXDR
    stm32f0xx_hal_i2c.o(i.I2C_Slave_ISR_IT) refers to stm32f0xx_hal_i2c.o(i.I2C_ITAddrCplt) for I2C_ITAddrCplt
    stm32f0xx_hal_i2c.o(i.I2C_Slave_ISR_IT) refers to stm32f0xx_hal_i2c.o(i.I2C_ITSlaveSequentialCplt) for I2C_ITSlaveSequentialCplt
    stm32f0xx_hal_i2c.o(i.I2C_Slave_ISR_IT) refers to stm32f0xx_hal_i2c.o(i.I2C_ITSlaveCplt) for I2C_ITSlaveCplt
    stm32f0xx_hal_i2c.o(i.I2C_WaitOnFlagUntilTimeout) refers to stm32f0xx_hal.o(i.HAL_GetTick) for HAL_GetTick
    stm32f0xx_hal_i2c.o(i.I2C_WaitOnRXNEFlagUntilTimeout) refers to stm32f0xx_hal_i2c.o(i.I2C_IsAcknowledgeFailed) for I2C_IsAcknowledgeFailed
    stm32f0xx_hal_i2c.o(i.I2C_WaitOnRXNEFlagUntilTimeout) refers to stm32f0xx_hal.o(i.HAL_GetTick) for HAL_GetTick
    stm32f0xx_hal_i2c.o(i.I2C_WaitOnSTOPFlagUntilTimeout) refers to stm32f0xx_hal_i2c.o(i.I2C_IsAcknowledgeFailed) for I2C_IsAcknowledgeFailed
    stm32f0xx_hal_i2c.o(i.I2C_WaitOnSTOPFlagUntilTimeout) refers to stm32f0xx_hal.o(i.HAL_GetTick) for HAL_GetTick
    stm32f0xx_hal_i2c.o(i.I2C_WaitOnTXISFlagUntilTimeout) refers to stm32f0xx_hal_i2c.o(i.I2C_IsAcknowledgeFailed) for I2C_IsAcknowledgeFailed
    stm32f0xx_hal_i2c.o(i.I2C_WaitOnTXISFlagUntilTimeout) refers to stm32f0xx_hal.o(i.HAL_GetTick) for HAL_GetTick
    stm32f0xx_hal_gpio.o(i.HAL_GPIO_EXTI_IRQHandler) refers to stm32f0xx_hal_gpio.o(i.HAL_GPIO_EXTI_Callback) for HAL_GPIO_EXTI_Callback
    stm32f0xx_hal_dma.o(i.DMA_CalcBaseAndBitshift) refers to aeabi_sdiv.o(.text) for __aeabi_uidivmod
    stm32f0xx_hal_dma.o(i.HAL_DMA_DeInit) refers to stm32f0xx_hal_dma.o(i.DMA_CalcBaseAndBitshift) for DMA_CalcBaseAndBitshift
    stm32f0xx_hal_dma.o(i.HAL_DMA_Init) refers to stm32f0xx_hal_dma.o(i.DMA_CalcBaseAndBitshift) for DMA_CalcBaseAndBitshift
    stm32f0xx_hal_dma.o(i.HAL_DMA_PollForTransfer) refers to stm32f0xx_hal.o(i.HAL_GetTick) for HAL_GetTick
    stm32f0xx_hal_dma.o(i.HAL_DMA_Start) refers to stm32f0xx_hal_dma.o(i.DMA_SetConfig) for DMA_SetConfig
    stm32f0xx_hal_dma.o(i.HAL_DMA_Start_IT) refers to stm32f0xx_hal_dma.o(i.DMA_SetConfig) for DMA_SetConfig
    stm32f0xx_hal_dma.o(i.HAL_DMA_UnRegisterCallback) refers to main.o(i.__ARM_common_switch8) for __ARM_common_switch8
    stm32f0xx_hal_cortex.o(i.HAL_NVIC_SetPriority) refers to stm32f0xx_hal_cortex.o(i.NVIC_SetPriority) for NVIC_SetPriority
    stm32f0xx_hal_cortex.o(i.HAL_SYSTICK_Config) refers to stm32f0xx_hal_cortex.o(i.NVIC_SetPriority) for NVIC_SetPriority
    stm32f0xx_hal_cortex.o(i.HAL_SYSTICK_IRQHandler) refers to stm32f0xx_hal_cortex.o(i.HAL_SYSTICK_Callback) for HAL_SYSTICK_Callback
    stm32f0xx_hal_pwr_ex.o(i.HAL_PWREx_Vddio2Monitor_IRQHandler) refers to stm32f0xx_hal_pwr_ex.o(i.HAL_PWREx_Vddio2MonitorCallback) for HAL_PWREx_Vddio2MonitorCallback
    stm32f0xx_hal_pwr_ex.o(i.HAL_PWR_PVD_IRQHandler) refers to stm32f0xx_hal_pwr_ex.o(i.HAL_PWR_PVDCallback) for HAL_PWR_PVDCallback
    stm32f0xx_hal_flash.o(i.FLASH_Program_HalfWord) refers to stm32f0xx_hal_flash.o(.bss) for .bss
    stm32f0xx_hal_flash.o(i.FLASH_SetErrorCode) refers to stm32f0xx_hal_flash.o(.bss) for .bss
    stm32f0xx_hal_flash.o(i.FLASH_WaitForLastOperation) refers to stm32f0xx_hal.o(i.HAL_GetTick) for HAL_GetTick
    stm32f0xx_hal_flash.o(i.FLASH_WaitForLastOperation) refers to stm32f0xx_hal_flash.o(i.FLASH_SetErrorCode) for FLASH_SetErrorCode
    stm32f0xx_hal_flash.o(i.HAL_FLASH_GetError) refers to stm32f0xx_hal_flash.o(.bss) for .bss
    stm32f0xx_hal_flash.o(i.HAL_FLASH_IRQHandler) refers to stm32f0xx_hal_flash.o(i.FLASH_SetErrorCode) for FLASH_SetErrorCode
    stm32f0xx_hal_flash.o(i.HAL_FLASH_IRQHandler) refers to stm32f0xx_hal_flash.o(i.HAL_FLASH_OperationErrorCallback) for HAL_FLASH_OperationErrorCallback
    stm32f0xx_hal_flash.o(i.HAL_FLASH_IRQHandler) refers to stm32f0xx_hal_flash.o(i.FLASH_Program_HalfWord) for FLASH_Program_HalfWord
    stm32f0xx_hal_flash.o(i.HAL_FLASH_IRQHandler) refers to stm32f0xx_hal_flash.o(i.HAL_FLASH_EndOfOperationCallback) for HAL_FLASH_EndOfOperationCallback
    stm32f0xx_hal_flash.o(i.HAL_FLASH_IRQHandler) refers to stm32f0xx_hal_flash_ex.o(i.FLASH_PageErase) for FLASH_PageErase
    stm32f0xx_hal_flash.o(i.HAL_FLASH_IRQHandler) refers to stm32f0xx_hal_flash.o(.bss) for .bss
    stm32f0xx_hal_flash.o(i.HAL_FLASH_OB_Launch) refers to stm32f0xx_hal_flash.o(i.FLASH_WaitForLastOperation) for FLASH_WaitForLastOperation
    stm32f0xx_hal_flash.o(i.HAL_FLASH_Program) refers to stm32f0xx_hal_flash.o(i.FLASH_WaitForLastOperation) for FLASH_WaitForLastOperation
    stm32f0xx_hal_flash.o(i.HAL_FLASH_Program) refers to llushr.o(.text) for __aeabi_llsr
    stm32f0xx_hal_flash.o(i.HAL_FLASH_Program) refers to stm32f0xx_hal_flash.o(i.FLASH_Program_HalfWord) for FLASH_Program_HalfWord
    stm32f0xx_hal_flash.o(i.HAL_FLASH_Program) refers to stm32f0xx_hal_flash.o(.bss) for .bss
    stm32f0xx_hal_flash.o(i.HAL_FLASH_Program_IT) refers to stm32f0xx_hal_flash.o(i.FLASH_Program_HalfWord) for FLASH_Program_HalfWord
    stm32f0xx_hal_flash.o(i.HAL_FLASH_Program_IT) refers to stm32f0xx_hal_flash.o(.bss) for .bss
    stm32f0xx_hal_flash_ex.o(i.FLASH_MassErase) refers to stm32f0xx_hal_flash.o(.bss) for pFlash
    stm32f0xx_hal_flash_ex.o(i.FLASH_OB_DisableWRP) refers to stm32f0xx_hal_flash.o(i.FLASH_WaitForLastOperation) for FLASH_WaitForLastOperation
    stm32f0xx_hal_flash_ex.o(i.FLASH_OB_DisableWRP) refers to stm32f0xx_hal_flash_ex.o(i.HAL_FLASHEx_OBErase) for HAL_FLASHEx_OBErase
    stm32f0xx_hal_flash_ex.o(i.FLASH_OB_DisableWRP) refers to stm32f0xx_hal_flash.o(.bss) for pFlash
    stm32f0xx_hal_flash_ex.o(i.FLASH_OB_EnableWRP) refers to stm32f0xx_hal_flash.o(i.FLASH_WaitForLastOperation) for FLASH_WaitForLastOperation
    stm32f0xx_hal_flash_ex.o(i.FLASH_OB_EnableWRP) refers to stm32f0xx_hal_flash_ex.o(i.HAL_FLASHEx_OBErase) for HAL_FLASHEx_OBErase
    stm32f0xx_hal_flash_ex.o(i.FLASH_OB_EnableWRP) refers to stm32f0xx_hal_flash.o(.bss) for pFlash
    stm32f0xx_hal_flash_ex.o(i.FLASH_OB_RDP_LevelConfig) refers to stm32f0xx_hal_flash.o(i.FLASH_WaitForLastOperation) for FLASH_WaitForLastOperation
    stm32f0xx_hal_flash_ex.o(i.FLASH_OB_RDP_LevelConfig) refers to stm32f0xx_hal_flash.o(.bss) for pFlash
    stm32f0xx_hal_flash_ex.o(i.FLASH_PageErase) refers to stm32f0xx_hal_flash.o(.bss) for pFlash
    stm32f0xx_hal_flash_ex.o(i.HAL_FLASHEx_Erase) refers to stm32f0xx_hal_flash.o(i.FLASH_WaitForLastOperation) for FLASH_WaitForLastOperation
    stm32f0xx_hal_flash_ex.o(i.HAL_FLASHEx_Erase) refers to stm32f0xx_hal_flash_ex.o(i.FLASH_MassErase) for FLASH_MassErase
    stm32f0xx_hal_flash_ex.o(i.HAL_FLASHEx_Erase) refers to stm32f0xx_hal_flash_ex.o(i.FLASH_PageErase) for FLASH_PageErase
    stm32f0xx_hal_flash_ex.o(i.HAL_FLASHEx_Erase) refers to stm32f0xx_hal_flash.o(.bss) for pFlash
    stm32f0xx_hal_flash_ex.o(i.HAL_FLASHEx_Erase_IT) refers to stm32f0xx_hal_flash_ex.o(i.FLASH_PageErase) for FLASH_PageErase
    stm32f0xx_hal_flash_ex.o(i.HAL_FLASHEx_Erase_IT) refers to stm32f0xx_hal_flash_ex.o(i.FLASH_MassErase) for FLASH_MassErase
    stm32f0xx_hal_flash_ex.o(i.HAL_FLASHEx_Erase_IT) refers to stm32f0xx_hal_flash.o(.bss) for pFlash
    stm32f0xx_hal_flash_ex.o(i.HAL_FLASHEx_OBErase) refers to stm32f0xx_hal_flash_ex.o(i.FLASH_OB_GetRDP) for FLASH_OB_GetRDP
    stm32f0xx_hal_flash_ex.o(i.HAL_FLASHEx_OBErase) refers to stm32f0xx_hal_flash.o(i.FLASH_WaitForLastOperation) for FLASH_WaitForLastOperation
    stm32f0xx_hal_flash_ex.o(i.HAL_FLASHEx_OBErase) refers to stm32f0xx_hal_flash_ex.o(i.FLASH_OB_RDP_LevelConfig) for FLASH_OB_RDP_LevelConfig
    stm32f0xx_hal_flash_ex.o(i.HAL_FLASHEx_OBErase) refers to stm32f0xx_hal_flash.o(.bss) for pFlash
    stm32f0xx_hal_flash_ex.o(i.HAL_FLASHEx_OBGetConfig) refers to stm32f0xx_hal_flash_ex.o(i.FLASH_OB_GetRDP) for FLASH_OB_GetRDP
    stm32f0xx_hal_flash_ex.o(i.HAL_FLASHEx_OBProgram) refers to stm32f0xx_hal_flash_ex.o(i.FLASH_OB_DisableWRP) for FLASH_OB_DisableWRP
    stm32f0xx_hal_flash_ex.o(i.HAL_FLASHEx_OBProgram) refers to stm32f0xx_hal_flash_ex.o(i.FLASH_OB_EnableWRP) for FLASH_OB_EnableWRP
    stm32f0xx_hal_flash_ex.o(i.HAL_FLASHEx_OBProgram) refers to stm32f0xx_hal_flash_ex.o(i.FLASH_OB_RDP_LevelConfig) for FLASH_OB_RDP_LevelConfig
    stm32f0xx_hal_flash_ex.o(i.HAL_FLASHEx_OBProgram) refers to stm32f0xx_hal_flash.o(i.FLASH_WaitForLastOperation) for FLASH_WaitForLastOperation
    stm32f0xx_hal_flash_ex.o(i.HAL_FLASHEx_OBProgram) refers to stm32f0xx_hal_flash.o(.bss) for pFlash
    system_stm32f0xx.o(i.SystemCoreClockUpdate) refers to aeabi_sdiv.o(.text) for __aeabi_uidivmod
    system_stm32f0xx.o(i.SystemCoreClockUpdate) refers to system_stm32f0xx.o(.data) for .data
    system_stm32f0xx.o(i.SystemCoreClockUpdate) refers to system_stm32f0xx.o(.constdata) for .constdata
    __2sprintf.o(.text) refers to _printf_char_common.o(.text) for _printf_char_common
    __2sprintf.o(.text) refers to _sputc.o(.text) for _sputc
    noretval__2sprintf.o(.text) refers to _printf_char_common.o(.text) for _printf_char_common
    noretval__2sprintf.o(.text) refers to _sputc.o(.text) for _sputc
    __printf.o(.text) refers to _printf_percent.o(.ARM.Collect$$_printf_percent$$00000000) for _printf_percent
    _printf_str.o(.text) refers (Special) to _printf_char.o(.text) for _printf_cs_common
    _printf_str.o(.text) refers (Weak) to _printf_pad.o(.text) for _printf_pre_padding
    _printf_str.o(.text) refers (Weak) to _printf_pad.o(.text) for _printf_post_padding
    _printf_dec.o(.text) refers to rtudiv10.o(.text) for __rt_udiv10
    _printf_dec.o(.text) refers to _printf_intcommon.o(.text) for _printf_int_common
    _printf_hex_ll.o(.text) refers to _printf_intcommon.o(.text) for _printf_int_common
    _printf_hex_ll.o(.text) refers to _printf_hex_ll.o(.constdata) for .constdata
    _printf_hex_int.o(.text) refers to _printf_intcommon.o(.text) for _printf_int_common
    _printf_hex_int.o(.text) refers to _printf_hex_int.o(.constdata) for .constdata
    _printf_hex_int_ll.o(.text) refers to _printf_intcommon.o(.text) for _printf_int_common
    _printf_hex_int_ll.o(.text) refers to _printf_hex_int_ll.o(.constdata) for .constdata
    _printf_hex_ptr.o(.text) refers to _printf_intcommon.o(.text) for _printf_int_common
    _printf_hex_ptr.o(.text) refers to _printf_hex_ptr.o(.constdata) for .constdata
    _printf_hex_int_ptr.o(.text) refers to _printf_intcommon.o(.text) for _printf_int_common
    _printf_hex_int_ptr.o(.text) refers to _printf_hex_int_ptr.o(.constdata) for .constdata
    _printf_hex_ll_ptr.o(.text) refers to _printf_intcommon.o(.text) for _printf_int_common
    _printf_hex_ll_ptr.o(.text) refers to _printf_hex_ll_ptr.o(.constdata) for .constdata
    _printf_hex_int_ll_ptr.o(.text) refers to _printf_intcommon.o(.text) for _printf_int_common
    _printf_hex_int_ll_ptr.o(.text) refers to _printf_hex_int_ll_ptr.o(.constdata) for .constdata
    __printf_flags.o(.text) refers to _printf_percent.o(.ARM.Collect$$_printf_percent$$00000000) for _printf_percent
    __printf_flags.o(.text) refers to __printf_flags.o(.constdata) for .constdata
    __printf_ss.o(.text) refers to _printf_percent.o(.ARM.Collect$$_printf_percent$$00000000) for _printf_percent
    __printf_flags_ss.o(.text) refers to _printf_percent.o(.ARM.Collect$$_printf_percent$$00000000) for _printf_percent
    __printf_flags_ss.o(.text) refers to __printf_flags_ss.o(.constdata) for .constdata
    __printf_wp.o(.text) refers to __printf_wp.o(i._is_digit) for _is_digit
    __printf_wp.o(.text) refers to _printf_percent.o(.ARM.Collect$$_printf_percent$$00000000) for _printf_percent
    __printf_flags_wp.o(.text) refers to __printf_wp.o(i._is_digit) for _is_digit
    __printf_flags_wp.o(.text) refers to _printf_percent.o(.ARM.Collect$$_printf_percent$$00000000) for _printf_percent
    __printf_flags_wp.o(.text) refers to __printf_flags_wp.o(.constdata) for .constdata
    __printf_ss_wp.o(.text) refers to __printf_wp.o(i._is_digit) for _is_digit
    __printf_ss_wp.o(.text) refers to _printf_percent.o(.ARM.Collect$$_printf_percent$$00000000) for _printf_percent
    __printf_flags_ss_wp.o(.text) refers to __printf_wp.o(i._is_digit) for _is_digit
    __printf_flags_ss_wp.o(.text) refers to _printf_percent.o(.ARM.Collect$$_printf_percent$$00000000) for _printf_percent
    __printf_flags_ss_wp.o(.text) refers to __printf_flags_ss_wp.o(.constdata) for .constdata
    _printf_s.o(.ARM.Collect$$_printf_percent$$00000014) refers (Weak) to _printf_char.o(.text) for _printf_string
    _printf_x.o(.ARM.Collect$$_printf_percent$$0000000C) refers (Weak) to _printf_hex_int.o(.text) for _printf_int_hex
    _printf_d.o(.ARM.Collect$$_printf_percent$$00000009) refers (Weak) to _printf_dec.o(.text) for _printf_int_dec
    _printf_u.o(.ARM.Collect$$_printf_percent$$0000000A) refers (Weak) to _printf_dec.o(.text) for _printf_int_dec
    _printf_percent.o(.ARM.Collect$$_printf_percent$$00000000) refers (Special) to _printf_percent_end.o(.ARM.Collect$$_printf_percent$$00000017) for _printf_percent_end
    strtoul.o(.text) refers to rt_errno_addr_intlibspace.o(.text) for __aeabi_errno_addr
    strtoul.o(.text) refers to rt_ctype_table.o(.text) for __rt_ctype_table
    strtoul.o(.text) refers to _strtoul.o(.text) for _strtoul
    atexit_aeabi.o(.text) refers to aeabi_atexit.o(.text) for __aeabi_atexit
    atexit_aeabi.o(.ARM.exidx) refers to atexit_aeabi.o(.text) for .text
    aeabi_atexit.o(.text) refers (Special) to cxa_finalize.o(.text) for __cxa_finalize
    aeabi_atexit.o(.text) refers to h1_alloc.o(.text) for malloc
    aeabi_atexit.o(.text) refers to rt_ddtor_pointer_addr_intlibspace.o(.text) for __rt_ddtor_pointer_addr
    aeabi_atexit.o(.ARM.exidx) refers (Special) to cxa_finalize.o(.text) for __cxa_finalize
    aeabi_atexit.o(.ARM.exidx) refers to aeabi_atexit.o(.text) for .text
    strtok_r.o(.text) refers to strtok_int.o(.text) for __strtok_internal
    rt_memcpy.o(.text) refers to rt_memcpy.o(.emb_text) for __aeabi_memcpy4
    __main.o(!!!main) refers to __rtentry.o(.ARM.Collect$$rtentry$$00000000) for __rt_entry
    init_aeabi.o(.emb_text) refers (Special) to libinit2.o(.ARM.Collect$$libinit$$00000031) for __rt_lib_init_cpp_2
    init_aeabi.o(.init_array) refers (Special) to libinit2.o(.ARM.Collect$$libinit$$00000031) for __rt_lib_init_cpp_2
    init_aeabi.o(.init_array) refers to init_aeabi.o(.text) for __cpp_initialize__aeabi_
    init_aeabi.o(.dummy_text) refers (Special) to libinit2.o(.ARM.Collect$$libinit$$00000031) for __rt_lib_init_cpp_2
    init_aeabi.o(.text) refers (Special) to libinit2.o(.ARM.Collect$$libinit$$00000031) for __rt_lib_init_cpp_2
    init_aeabi.o(.ARM.exidx) refers (Special) to libinit2.o(.ARM.Collect$$libinit$$00000031) for __rt_lib_init_cpp_2
    init_aeabi.o(.ARM.exidx) refers to init_aeabi.o(.text) for .text
    cxa_guard_acquire.o(.ARM.exidx) refers to cxa_guard_acquire.o(i.__cxa_guard_acquire) for i.__cxa_guard_acquire
    cxa_guard_release.o(.ARM.exidx) refers to cxa_guard_release.o(i.__cxa_guard_release) for i.__cxa_guard_release
    __rtentry.o(.ARM.Collect$$rtentry$$00000000) refers (Special) to __rtentry2.o(.ARM.Collect$$rtentry$$0000000A) for __rt_entry_li
    __rtentry.o(.ARM.Collect$$rtentry$$00000000) refers (Special) to __rtentry2.o(.ARM.Collect$$rtentry$$0000000D) for __rt_entry_main
    __rtentry.o(.ARM.Collect$$rtentry$$00000000) refers (Special) to __rtentry2.o(.ARM.Collect$$rtentry$$0000000C) for __rt_entry_postli_1
    __rtentry.o(.ARM.Collect$$rtentry$$00000000) refers (Special) to __rtentry2.o(.ARM.Collect$$rtentry$$00000009) for __rt_entry_postsh_1
    __rtentry.o(.ARM.Collect$$rtentry$$00000000) refers (Special) to __rtentry2.o(.ARM.Collect$$rtentry$$00000002) for __rt_entry_presh_1
    __rtentry.o(.ARM.Collect$$rtentry$$00000000) refers (Special) to __rtentry4.o(.ARM.Collect$$rtentry$$00000004) for __rt_entry_sh
    rt_ctype_table.o(.text) refers to rt_locale_intlibspace.o(.text) for __rt_locale
    rt_ctype_table.o(.text) refers to lc_ctype_c.o(locale$$code) for _get_lc_ctype
    aeabi_idiv0_sigfpe.o(.text) refers to rt_div0.o(.text) for __rt_div0
    rt_ddtor_pointer_addr.o(.text) refers to rt_ddtor_pointer_addr.o(.bss) for __rt_ddtor_pointer_addr_data
    rt_ddtor_pointer_addr_intlibspace.o(.text) refers to libspace.o(.bss) for __libspace_start
    rt_errno_addr.o(.text) refers to rt_errno_addr.o(.bss) for __aeabi_errno_addr_data
    rt_errno_addr_intlibspace.o(.text) refers to libspace.o(.bss) for __libspace_start
    malloc.o(.text) refers (Special) to hguard.o(.text) for __heap$guard
    malloc.o(.text) refers (Special) to init_alloc.o(.text) for _init_alloc
    malloc.o(.text) refers to rt_heap_descriptor_intlibspace.o(.text) for __rt_heap_descriptor
    h1_alloc.o(.text) refers (Special) to h1_init.o(.text) for __Heap_Initialize
    h1_alloc.o(.text) refers to rt_heap_descriptor_intlibspace.o(.text) for __rt_heap_descriptor
    h1_alloc.o(.text) refers to init_alloc.o(.text) for __Heap_Full
    h1_alloc_mt.o(.text) refers (Special) to h1_init.o(.text) for __Heap_Initialize
    h1_alloc_mt.o(.text) refers to init_alloc.o(.text) for __Heap_Full
    h1_alloc_mt.o(.text) refers to rt_heap_descriptor_intlibspace.o(.text) for __rt_heap_descriptor
    heap2.o(i._FDIterate) refers to heap2.o(.conststring) for .conststring
    heap2.o(i.___Heap_ProvideMemory$realtime) refers to fdtree.o(i._FDTree_Delete) for _FDTree_Delete
    heap2.o(i.___Heap_ProvideMemory$realtime) refers to fdtree.o(i._FDTree_Insert) for _FDTree_Insert
    heap2.o(i.___Heap_Stats$realtime) refers to heap2.o(i._Heap2_StatsIterate) for _Heap2_StatsIterate
    heap2.o(i.___Heap_Stats$realtime) refers to aeabi_sdiv.o(.text) for __aeabi_uidivmod
    heap2.o(i.___Heap_Valid$realtime) refers to heap2.o(i._FDIterate) for _FDIterate
    heap2.o(i.___Heap_Valid$realtime) refers to heap2.o(.conststring) for .conststring
    heap2.o(i._free$realtime) refers to rt_heap_descriptor_intlibspace.o(.text) for __rt_heap_descriptor
    heap2.o(i._free$realtime) refers to fdtree.o(i._FDTree_Delete) for _FDTree_Delete
    heap2.o(i._free$realtime) refers to fdtree.o(i._FDTree_Insert) for _FDTree_Insert
    heap2.o(i._malloc$realtime) refers to rt_heap_descriptor_intlibspace.o(.text) for __rt_heap_descriptor
    heap2.o(i._malloc$realtime) refers to fdtree.o(i._FDTree_FindFirst) for _FDTree_FindFirst
    heap2.o(i._malloc$realtime) refers to init_alloc.o(.text) for __Heap_Full
    heap2.o(i._malloc$realtime) refers to fdtree.o(i._FDTree_RemoveNode) for _FDTree_RemoveNode
    heap2.o(i._malloc$realtime) refers to fdtree.o(i._FDTree_Insert) for _FDTree_Insert
    heap2.o(i._posix_memalign$realtime) refers to rt_heap_descriptor_intlibspace.o(.text) for __rt_heap_descriptor
    heap2.o(i._posix_memalign$realtime) refers to fdtree.o(i._FDTree_FindFirst) for _FDTree_FindFirst
    heap2.o(i._posix_memalign$realtime) refers to init_alloc.o(.text) for __Heap_Full
    heap2.o(i._posix_memalign$realtime) refers to fdtree.o(i._FDTree_RemoveNode) for _FDTree_RemoveNode
    heap2.o(i._posix_memalign$realtime) refers to fdtree.o(i._FDTree_Insert) for _FDTree_Insert
    heap2.o(i._realloc$realtime) refers to rt_heap_descriptor_intlibspace.o(.text) for __rt_heap_descriptor
    heap2.o(i._realloc$realtime) refers to h1_free.o(.text) for free
    heap2.o(i._realloc$realtime) refers to h1_alloc.o(.text) for malloc
    heap2.o(i._realloc$realtime) refers to fdtree.o(i._FDTree_Delete) for _FDTree_Delete
    heap2.o(i._realloc$realtime) refers to fdtree.o(i._FDTree_Insert) for _FDTree_Insert
    heap2.o(i._realloc$realtime) refers to rt_memcpy.o(.emb_text) for __aeabi_memcpy4
    heap2mt.o(i._FDIterate) refers to heap2mt.o(.conststring) for .conststring
    heap2mt.o(i.___Heap_ProvideMemory$realtime$concurrent) refers to fdtree.o(i._FDTree_Delete) for _FDTree_Delete
    heap2mt.o(i.___Heap_ProvideMemory$realtime$concurrent) refers to fdtree.o(i._FDTree_Insert) for _FDTree_Insert
    heap2mt.o(i.___Heap_Stats$realtime$concurrent) refers to heap2mt.o(i._Heap2_StatsIterate) for _Heap2_StatsIterate
    heap2mt.o(i.___Heap_Stats$realtime$concurrent) refers to aeabi_sdiv.o(.text) for __aeabi_uidivmod
    heap2mt.o(i.___Heap_Valid$realtime$concurrent) refers to heap2mt.o(i._FDIterate) for _FDIterate
    heap2mt.o(i.___Heap_Valid$realtime$concurrent) refers to heap2mt.o(.conststring) for .conststring
    heap2mt.o(i._free$realtime$concurrent) refers to rt_heap_descriptor_intlibspace.o(.text) for __rt_heap_descriptor
    heap2mt.o(i._free$realtime$concurrent) refers to fdtree.o(i._FDTree_Delete) for _FDTree_Delete
    heap2mt.o(i._free$realtime$concurrent) refers to fdtree.o(i._FDTree_Insert) for _FDTree_Insert
    heap2mt.o(i._malloc$realtime$concurrent) refers to rt_heap_descriptor_intlibspace.o(.text) for __rt_heap_descriptor
    heap2mt.o(i._malloc$realtime$concurrent) refers to fdtree.o(i._FDTree_FindFirst) for _FDTree_FindFirst
    heap2mt.o(i._malloc$realtime$concurrent) refers to init_alloc.o(.text) for __Heap_Full
    heap2mt.o(i._malloc$realtime$concurrent) refers to fdtree.o(i._FDTree_RemoveNode) for _FDTree_RemoveNode
    heap2mt.o(i._malloc$realtime$concurrent) refers to fdtree.o(i._FDTree_Insert) for _FDTree_Insert
    heap2mt.o(i._posix_memalign$realtime$concurrent) refers to rt_heap_descriptor_intlibspace.o(.text) for __rt_heap_descriptor
    heap2mt.o(i._posix_memalign$realtime$concurrent) refers to fdtree.o(i._FDTree_FindFirst) for _FDTree_FindFirst
    heap2mt.o(i._posix_memalign$realtime$concurrent) refers to init_alloc.o(.text) for __Heap_Full
    heap2mt.o(i._posix_memalign$realtime$concurrent) refers to fdtree.o(i._FDTree_RemoveNode) for _FDTree_RemoveNode
    heap2mt.o(i._posix_memalign$realtime$concurrent) refers to fdtree.o(i._FDTree_Insert) for _FDTree_Insert
    heap2mt.o(i._realloc$realtime$concurrent) refers to rt_heap_descriptor_intlibspace.o(.text) for __rt_heap_descriptor
    heap2mt.o(i._realloc$realtime$concurrent) refers to h1_free.o(.text) for free
    heap2mt.o(i._realloc$realtime$concurrent) refers to h1_alloc.o(.text) for malloc
    heap2mt.o(i._realloc$realtime$concurrent) refers to fdtree.o(i._FDTree_Delete) for _FDTree_Delete
    heap2mt.o(i._realloc$realtime$concurrent) refers to fdtree.o(i._FDTree_Insert) for _FDTree_Insert
    heap2mt.o(i._realloc$realtime$concurrent) refers to rt_memcpy.o(.emb_text) for __aeabi_memcpy4
    _printf_intcommon.o(.text) refers (Weak) to _printf_pad.o(.text) for _printf_pre_padding
    _printf_intcommon.o(.text) refers (Weak) to _printf_pad.o(.text) for _printf_pre_padding
    _printf_intcommon.o(.text) refers (Weak) to _printf_pad.o(.text) for _printf_post_padding
    _printf_char_common.o(.text) refers to __printf_flags_ss_wp.o(.text) for __printf
    _printf_char.o(.text) refers (Weak) to _printf_str.o(.text) for _printf_str
    _strtoul.o(.text) refers to _chval.o(.text) for _chval
    _strtoul.o(.text) refers to rt_errno_addr_intlibspace.o(.text) for __aeabi_errno_addr
    cxa_finalize.o(.text) refers (Special) to libshutdown2.o(.ARM.Collect$$libshutdown$$00000001) for __rt_lib_shutdown_cpp_2
    cxa_finalize.o(.text) refers to rt_ddtor_pointer_addr_intlibspace.o(.text) for __rt_ddtor_pointer_addr
    cxa_finalize.o(.text) refers to h1_free.o(.text) for free
    cxa_finalize.o(.ARM.exidx) refers (Special) to libshutdown2.o(.ARM.Collect$$libshutdown$$00000001) for __rt_lib_shutdown_cpp_2
    cxa_finalize.o(.ARM.exidx) refers to cxa_finalize.o(.text) for .text
    strtok_int.o(.text) refers to strspn.o(.text) for strspn
    strtok_int.o(.text) refers to strcspn.o(.text) for strcspn
    libinit2.o(.ARM.Collect$$libinit$$00000005) refers (Weak) to init_alloc.o(.text) for _init_alloc
    libinit2.o(.ARM.Collect$$libinit$$0000000F) refers (Weak) to rt_locale_intlibspace.o(.text) for __rt_locale
    libinit2.o(.ARM.Collect$$libinit$$00000010) refers to libinit2.o(.ARM.Collect$$libinit$$0000000F) for .ARM.Collect$$libinit$$0000000F
    libinit2.o(.ARM.Collect$$libinit$$00000012) refers to libinit2.o(.ARM.Collect$$libinit$$0000000F) for .ARM.Collect$$libinit$$0000000F
    libinit2.o(.ARM.Collect$$libinit$$00000012) refers (Weak) to lc_ctype_c.o(locale$$code) for _get_lc_ctype
    libinit2.o(.ARM.Collect$$libinit$$00000014) refers to libinit2.o(.ARM.Collect$$libinit$$0000000F) for .ARM.Collect$$libinit$$0000000F
    libinit2.o(.ARM.Collect$$libinit$$00000016) refers to libinit2.o(.ARM.Collect$$libinit$$0000000F) for .ARM.Collect$$libinit$$0000000F
    libinit2.o(.ARM.Collect$$libinit$$00000018) refers to libinit2.o(.ARM.Collect$$libinit$$0000000F) for .ARM.Collect$$libinit$$0000000F
    libinit2.o(.ARM.Collect$$libinit$$00000026) refers to argv_veneer.o(.text) for __ARM_argv_veneer
    libinit2.o(.ARM.Collect$$libinit$$00000027) refers to argv_veneer.o(.text) for __ARM_argv_veneer
    libinit2.o(.ARM.Collect$$libinit$$00000031) refers (Weak) to init_aeabi.o(.text) for __cpp_initialize__aeabi_
    libspace.o(.text) refers to libspace.o(.bss) for __libspace_start
    __rtentry2.o(.ARM.Collect$$rtentry$$00000008) refers to boardinit2.o(.text) for _platform_post_stackheap_init
    __rtentry2.o(.ARM.Collect$$rtentry$$0000000A) refers to libinit.o(.ARM.Collect$$libinit$$00000000) for __rt_lib_init
    __rtentry2.o(.ARM.Collect$$rtentry$$0000000B) refers to boardinit3.o(.text) for _platform_post_lib_init
    __rtentry2.o(.ARM.Collect$$rtentry$$0000000D) refers to main.o(i.main) for main
    __rtentry2.o(.ARM.Collect$$rtentry$$0000000D) refers to exit.o(.text) for exit
    __rtentry2.o(.ARM.exidx) refers to __rtentry2.o(.ARM.Collect$$rtentry$$00000001) for .ARM.Collect$$rtentry$$00000001
    __rtentry2.o(.ARM.exidx) refers to __rtentry2.o(.ARM.Collect$$rtentry$$00000008) for .ARM.Collect$$rtentry$$00000008
    __rtentry2.o(.ARM.exidx) refers to __rtentry2.o(.ARM.Collect$$rtentry$$0000000A) for .ARM.Collect$$rtentry$$0000000A
    __rtentry2.o(.ARM.exidx) refers to __rtentry2.o(.ARM.Collect$$rtentry$$0000000B) for .ARM.Collect$$rtentry$$0000000B
    __rtentry2.o(.ARM.exidx) refers to __rtentry2.o(.ARM.Collect$$rtentry$$0000000D) for .ARM.Collect$$rtentry$$0000000D
    __rtentry4.o(.ARM.Collect$$rtentry$$00000004) refers to sys_stackheap_outer.o(.text) for __user_setup_stackheap
    __rtentry4.o(.ARM.exidx) refers to __rtentry4.o(.ARM.Collect$$rtentry$$00000004) for .ARM.Collect$$rtentry$$00000004
    rt_div0.o(.text) refers to defsig_fpe_outer.o(.text) for __rt_SIGFPE
    rt_heap_descriptor.o(.text) refers to rt_heap_descriptor.o(.bss) for __rt_heap_descriptor_data
    rt_heap_descriptor_intlibspace.o(.text) refers to libspace.o(.bss) for __libspace_start
    rt_locale.o(.text) refers to rt_locale.o(.bss) for __rt_locale_data
    rt_locale_intlibspace.o(.text) refers to libspace.o(.bss) for __libspace_start
    init_alloc.o(.text) refers (Special) to hguard.o(.text) for __heap$guard
    init_alloc.o(.text) refers (Special) to libinit2.o(.ARM.Collect$$libinit$$00000005) for __rt_lib_init_heap_2
    init_alloc.o(.text) refers (Special) to maybetermalloc1.o(.emb_text) for _maybe_terminate_alloc
    init_alloc.o(.text) refers to h1_extend.o(.text) for __Heap_ProvideMemory
    init_alloc.o(.text) refers to defsig_rtmem_outer.o(.text) for __rt_SIGRTMEM
    init_alloc.o(.text) refers to rt_heap_descriptor_intlibspace.o(.text) for __rt_heap_descriptor
    init_alloc.o(.text) refers to h1_init.o(.text) for __Heap_Initialize
    free.o(.text) refers (Special) to hguard.o(.text) for __heap$guard
    free.o(.text) refers to rt_heap_descriptor_intlibspace.o(.text) for __rt_heap_descriptor
    h1_free.o(.text) refers to rt_heap_descriptor_intlibspace.o(.text) for __rt_heap_descriptor
    h1_free_mt.o(.text) refers to rt_heap_descriptor_intlibspace.o(.text) for __rt_heap_descriptor
    lc_ctype_c.o(locale$$data) refers (Special) to libinit2.o(.ARM.Collect$$libinit$$00000012) for __rt_lib_init_lc_ctype_2
    lc_ctype_c.o(locale$$code) refers (Special) to libinit2.o(.ARM.Collect$$libinit$$00000012) for __rt_lib_init_lc_ctype_2
    lc_ctype_c.o(locale$$code) refers to strcmp.o(.text) for strcmp
    lc_ctype_c.o(locale$$code) refers to lc_ctype_c.o(locale$$data) for __lcctype_c_name
    _get_argv.o(.text) refers (Special) to hrguard.o(.text) for __heap_region$guard
    _get_argv.o(.text) refers to h1_alloc.o(.text) for malloc
    _get_argv.o(.text) refers to defsig_rtmem_outer.o(.text) for __rt_SIGRTMEM
    _get_argv.o(.text) refers to sys_command.o(.text) for _sys_command_string
    libshutdown2.o(.ARM.Collect$$libshutdown$$00000001) refers (Weak) to cxa_finalize.o(.text) for __cxa_finalize
    libshutdown2.o(.ARM.Collect$$libshutdown$$0000000D) refers (Weak) to term_alloc.o(.text) for _terminate_alloc
    sys_command.o(.text) refers (Special) to use_no_semi.o(.text) for __I$use$semihosting
    sys_command.o(.text) refers (Special) to indicate_semi.o(.text) for __semihosting_library_function
    sys_stackheap_outer.o(.text) refers to libspace.o(.text) for __user_perproc_libspace
    sys_stackheap_outer.o(.text) refers to startup_stm32f072xb.o(.text) for __user_initial_stackheap
    sys_stackheap_outer.o(__vectab_stack_and_reset_area) refers to tempstk.o(.text) for __temporary_stack_top
    sys_stackheap_outer.o(__vectab_stack_and_reset_area) refers to __main.o(!!!main) for __main
    maybetermalloc2.o(.emb_text) refers (Special) to term_alloc.o(.text) for _terminate_alloc
    h1_extend.o(.text) refers to h1_free.o(.text) for free
    h1_extend_mt.o(.text) refers to h1_free_mt.o(.text) for _free_internal
    exit.o(.text) refers to rtexit.o(.ARM.Collect$$rtexit$$00000000) for __rt_exit
    defsig_fpe_outer.o(.text) refers to defsig_fpe_inner.o(.text) for __rt_SIGFPE_inner
    defsig_fpe_outer.o(.text) refers to defsig_exit.o(.text) for __sig_exit
    defsig_fpe_formal.o(.text) refers to rt_raise.o(.text) for __rt_raise
    defsig_rtmem_outer.o(.text) refers to defsig_rtmem_inner.o(.text) for __rt_SIGRTMEM_inner
    defsig_rtmem_outer.o(.text) refers to defsig_exit.o(.text) for __sig_exit
    defsig_rtmem_formal.o(.text) refers to rt_raise.o(.text) for __rt_raise
    heapauxa.o(.text) refers to heapauxa.o(.data) for .data
    _get_argv_nomalloc.o(.text) refers (Special) to hrguard.o(.text) for __heap_region$guard
    _get_argv_nomalloc.o(.text) refers to defsig_rtmem_outer.o(.text) for __rt_SIGRTMEM
    _get_argv_nomalloc.o(.text) refers to sys_command.o(.text) for _sys_command_string
    libinit.o(.ARM.Collect$$libinit$$00000000) refers (Special) to libinit2.o(.ARM.Collect$$libinit$$0000002E) for __rt_lib_init_alloca_1
    libinit.o(.ARM.Collect$$libinit$$00000000) refers (Special) to libinit2.o(.ARM.Collect$$libinit$$0000002C) for __rt_lib_init_argv_1
    libinit.o(.ARM.Collect$$libinit$$00000000) refers (Special) to libinit2.o(.ARM.Collect$$libinit$$0000001B) for __rt_lib_init_atexit_1
    libinit.o(.ARM.Collect$$libinit$$00000000) refers (Special) to libinit2.o(.ARM.Collect$$libinit$$00000021) for __rt_lib_init_clock_1
    libinit.o(.ARM.Collect$$libinit$$00000000) refers (Special) to libinit2.o(.ARM.Collect$$libinit$$00000032) for __rt_lib_init_cpp_1
    libinit.o(.ARM.Collect$$libinit$$00000000) refers (Special) to libinit2.o(.ARM.Collect$$libinit$$00000030) for __rt_lib_init_exceptions_1
    libinit.o(.ARM.Collect$$libinit$$00000000) refers (Special) to libinit2.o(.ARM.Collect$$libinit$$00000002) for __rt_lib_init_fp_1
    libinit.o(.ARM.Collect$$libinit$$00000000) refers (Special) to libinit2.o(.ARM.Collect$$libinit$$0000001F) for __rt_lib_init_fp_trap_1
    libinit.o(.ARM.Collect$$libinit$$00000000) refers (Special) to libinit2.o(.ARM.Collect$$libinit$$00000023) for __rt_lib_init_getenv_1
    libinit.o(.ARM.Collect$$libinit$$00000000) refers (Special) to libinit2.o(.ARM.Collect$$libinit$$0000000A) for __rt_lib_init_heap_1
    libinit.o(.ARM.Collect$$libinit$$00000000) refers (Special) to libinit2.o(.ARM.Collect$$libinit$$00000011) for __rt_lib_init_lc_collate_1
    libinit.o(.ARM.Collect$$libinit$$00000000) refers (Special) to libinit2.o(.ARM.Collect$$libinit$$00000013) for __rt_lib_init_lc_ctype_1
    libinit.o(.ARM.Collect$$libinit$$00000000) refers (Special) to libinit2.o(.ARM.Collect$$libinit$$00000015) for __rt_lib_init_lc_monetary_1
    libinit.o(.ARM.Collect$$libinit$$00000000) refers (Special) to libinit2.o(.ARM.Collect$$libinit$$00000017) for __rt_lib_init_lc_numeric_1
    libinit.o(.ARM.Collect$$libinit$$00000000) refers (Special) to libinit2.o(.ARM.Collect$$libinit$$00000019) for __rt_lib_init_lc_time_1
    libinit.o(.ARM.Collect$$libinit$$00000000) refers (Special) to libinit2.o(.ARM.Collect$$libinit$$00000004) for __rt_lib_init_preinit_1
    libinit.o(.ARM.Collect$$libinit$$00000000) refers (Special) to libinit2.o(.ARM.Collect$$libinit$$0000000E) for __rt_lib_init_rand_1
    libinit.o(.ARM.Collect$$libinit$$00000000) refers (Special) to libinit2.o(.ARM.Collect$$libinit$$00000033) for __rt_lib_init_return
    libinit.o(.ARM.Collect$$libinit$$00000000) refers (Special) to libinit2.o(.ARM.Collect$$libinit$$0000001D) for __rt_lib_init_signal_1
    libinit.o(.ARM.Collect$$libinit$$00000000) refers (Special) to libinit2.o(.ARM.Collect$$libinit$$00000025) for __rt_lib_init_stdio_1
    libinit.o(.ARM.Collect$$libinit$$00000000) refers (Special) to libinit2.o(.ARM.Collect$$libinit$$0000000C) for __rt_lib_init_user_alloc_1
    rtexit.o(.ARM.Collect$$rtexit$$00000000) refers (Special) to rtexit2.o(.ARM.Collect$$rtexit$$00000004) for __rt_exit_exit
    rtexit.o(.ARM.Collect$$rtexit$$00000000) refers (Special) to rtexit2.o(.ARM.Collect$$rtexit$$00000003) for __rt_exit_ls
    rtexit.o(.ARM.Collect$$rtexit$$00000000) refers (Special) to rtexit2.o(.ARM.Collect$$rtexit$$00000002) for __rt_exit_prels_1
    rtexit.o(.ARM.exidx) refers (Special) to rtexit2.o(.ARM.Collect$$rtexit$$00000004) for __rt_exit_exit
    rtexit.o(.ARM.exidx) refers (Special) to rtexit2.o(.ARM.Collect$$rtexit$$00000003) for __rt_exit_ls
    rtexit.o(.ARM.exidx) refers (Special) to rtexit2.o(.ARM.Collect$$rtexit$$00000002) for __rt_exit_prels_1
    rtexit.o(.ARM.exidx) refers to rtexit.o(.ARM.Collect$$rtexit$$00000000) for .ARM.Collect$$rtexit$$00000000
    rt_raise.o(.text) refers to __raise.o(.text) for __raise
    rt_raise.o(.text) refers to sys_exit.o(.text) for _sys_exit
    term_alloc.o(.text) refers (Special) to libshutdown2.o(.ARM.Collect$$libshutdown$$0000000E) for __rt_lib_shutdown_heap_2
    term_alloc.o(.text) refers to rt_heap_descriptor_intlibspace.o(.text) for __rt_heap_descriptor
    defsig_exit.o(.text) refers to sys_exit.o(.text) for _sys_exit
    defsig_fpe_inner.o(.text) refers to defsig_general.o(.text) for __default_signal_display
    defsig_rtmem_inner.o(.text) refers to defsig_general.o(.text) for __default_signal_display
    sys_exit.o(.text) refers (Special) to use_no_semi.o(.text) for __I$use$semihosting
    sys_exit.o(.text) refers (Special) to indicate_semi.o(.text) for __semihosting_library_function
    rtexit2.o(.ARM.Collect$$rtexit$$00000003) refers to libshutdown.o(.ARM.Collect$$libshutdown$$00000000) for __rt_lib_shutdown
    rtexit2.o(.ARM.Collect$$rtexit$$00000004) refers to sys_exit.o(.text) for _sys_exit
    rtexit2.o(.ARM.exidx) refers to rtexit2.o(.ARM.Collect$$rtexit$$00000001) for .ARM.Collect$$rtexit$$00000001
    rtexit2.o(.ARM.exidx) refers to rtexit2.o(.ARM.Collect$$rtexit$$00000003) for .ARM.Collect$$rtexit$$00000003
    rtexit2.o(.ARM.exidx) refers to rtexit2.o(.ARM.Collect$$rtexit$$00000004) for .ARM.Collect$$rtexit$$00000004
    __raise.o(.text) refers to defsig.o(CL$$defsig) for __default_signal_handler
    defsig_general.o(.text) refers to sys_wrch.o(.text) for _ttywrch
    sys_wrch.o(.text) refers (Special) to use_no_semi.o(.text) for __I$use$semihosting
    sys_wrch.o(.text) refers (Special) to indicate_semi.o(.text) for __semihosting_library_function
    defsig.o(CL$$defsig) refers to defsig_fpe_inner.o(.text) for __rt_SIGFPE_inner
    defsig.o(CL$$defsig) refers to defsig_rtmem_inner.o(.text) for __rt_SIGRTMEM_inner
    libshutdown.o(.ARM.Collect$$libshutdown$$00000000) refers (Special) to libshutdown2.o(.ARM.Collect$$libshutdown$$00000002) for __rt_lib_shutdown_cpp_1
    libshutdown.o(.ARM.Collect$$libshutdown$$00000000) refers (Special) to libshutdown2.o(.ARM.Collect$$libshutdown$$00000007) for __rt_lib_shutdown_fp_trap_1
    libshutdown.o(.ARM.Collect$$libshutdown$$00000000) refers (Special) to libshutdown2.o(.ARM.Collect$$libshutdown$$0000000F) for __rt_lib_shutdown_heap_1
    libshutdown.o(.ARM.Collect$$libshutdown$$00000000) refers (Special) to libshutdown2.o(.ARM.Collect$$libshutdown$$00000010) for __rt_lib_shutdown_return
    libshutdown.o(.ARM.Collect$$libshutdown$$00000000) refers (Special) to libshutdown2.o(.ARM.Collect$$libshutdown$$0000000A) for __rt_lib_shutdown_signal_1
    libshutdown.o(.ARM.Collect$$libshutdown$$00000000) refers (Special) to libshutdown2.o(.ARM.Collect$$libshutdown$$00000004) for __rt_lib_shutdown_stdio_1
    libshutdown.o(.ARM.Collect$$libshutdown$$00000000) refers (Special) to libshutdown2.o(.ARM.Collect$$libshutdown$$0000000C) for __rt_lib_shutdown_user_alloc_1
    defsig_abrt_inner.o(.text) refers to defsig_general.o(.text) for __default_signal_display
    defsig_rtred_inner.o(.text) refers to defsig_general.o(.text) for __default_signal_display
    defsig_stak_inner.o(.text) refers to defsig_general.o(.text) for __default_signal_display
    defsig_pvfn_inner.o(.text) refers to defsig_general.o(.text) for __default_signal_display
    defsig_cppl_inner.o(.text) refers to defsig_general.o(.text) for __default_signal_display
    defsig_segv_inner.o(.text) refers to defsig_general.o(.text) for __default_signal_display
    defsig_other.o(.text) refers to defsig_general.o(.text) for __default_signal_display
    main.o(i._ZN15main_controller14read_interlockEv) refers to stm32f0xx_hal_gpio.o(i.HAL_GPIO_ReadPin) for HAL_GPIO_ReadPin
    main.o(i._ZN15main_controller14read_interlockEv) refers to main.o(.data__ZZN15main_controller14read_interlockEvE7history) for main_controller::read_interlock()::history
    main.o(.ARM.exidx) refers to main.o(i._ZN15main_controller14read_interlockEv) for i._ZN15main_controller14read_interlockEv
    main.o(.ARM.exidx) refers to main.o(i.__ARM_common_switch8) for i.__ARM_common_switch8
    main_controller.o(.ARM.exidx) refers to main_controller.o(i._ZN15main_controller17get_current_stateEv) for i._ZN15main_controller17get_current_stateEv
    main_controller.o(i._ZN15main_controller16is_b_pressure_okEv) refers to adc_controller.o(i._ZN14adc_controller14pressure_checkEv) for adc_controller::pressure_check()
    main_controller.o(.ARM.exidx) refers to main_controller.o(i._ZN15main_controller16is_b_pressure_okEv) for i._ZN15main_controller16is_b_pressure_okEv
    main_controller.o(i._ZN15main_controller19is_b_is_interlockedEv) refers to stm32f0xx_hal_gpio.o(i.HAL_GPIO_ReadPin) for HAL_GPIO_ReadPin
    main_controller.o(i._ZN15main_controller19is_b_is_interlockedEv) refers to peripherial_controller.o(i._ZN18PeripherialDevices10stop_motorEv) for PeripherialDevices::stop_motor()
    main_controller.o(i._ZN15main_controller19is_b_is_interlockedEv) refers to stm32f0xx_hal_gpio.o(i.HAL_GPIO_WritePin) for HAL_GPIO_WritePin
    main_controller.o(i._ZN15main_controller19is_b_is_interlockedEv) refers to debug_facilities.o(i._ZN11DebugHelper9long_beepEv) for DebugHelper::long_beep()
    main_controller.o(i._ZN15main_controller19is_b_is_interlockedEv) refers to main.o(.data__ZZN15main_controller14read_interlockEvE7history) for main_controller::read_interlock()::history
    main_controller.o(.ARM.exidx) refers to main_controller.o(i._ZN15main_controller19is_b_is_interlockedEv) for i._ZN15main_controller19is_b_is_interlockedEv
    main_controller.o(.ARM.exidx) refers to main_controller.o(i._ZN15main_controller14is_b_mcu_validEv) for i._ZN15main_controller14is_b_mcu_validEv
    main_controller.o(.ARM.exidx) refers to main_controller.o(i._ZN15main_controller14is_b_apt_validEv) for i._ZN15main_controller14is_b_apt_validEv
    main_controller.o(.ARM.exidx) refers to main_controller.o(i._ZN15main_controller13is_b_am_validEv) for i._ZN15main_controller13is_b_am_validEv
    main_controller.o(.ARM.exidx) refers to main_controller.o(i._ZN15main_controller15get_un32_cursorEv) for i._ZN15main_controller15get_un32_cursorEv
    main_controller.o(.ARM.exidx) refers to main_controller.o(i._ZN15main_controller15get_un32_pulsesEv) for i._ZN15main_controller15get_un32_pulsesEv
    main_controller.o(.ARM.exidx) refers to main_controller.o(i._ZN15main_controller19set_b_motor_runningEb) for i._ZN15main_controller19set_b_motor_runningEb


==============================================================================

Removing Unused input sections from the image.

    Removing main.o(.rev16_text), (4 bytes).
    Removing main.o(.revsh_text), (4 bytes).
    Removing main.o(.ARM.exidx), (8 bytes).
    Removing main.o(.ARM.exidx), (8 bytes).
    Removing main.o(.ARM.exidx), (8 bytes).
    Removing main.o(.ARM.exidx), (8 bytes).
    Removing main.o(.ARM.exidx), (8 bytes).
    Removing main.o(.ARM.exidx), (8 bytes).
    Removing main.o(.ARM.exidx), (8 bytes).
    Removing main.o(.data), (4 bytes).
    Removing adc_controller.o(.rev16_text), (4 bytes).
    Removing adc_controller.o(.revsh_text), (4 bytes).
    Removing adc_controller.o(i._ZN14adc_controller14convert_to_psiEv), (18 bytes).
    Removing adc_controller.o(.ARM.exidx), (8 bytes).
    Removing adc_controller.o(.ARM.exidx), (8 bytes).
    Removing adc_controller.o(.ARM.exidx), (8 bytes).
    Removing adc_controller.o(.ARM.exidx), (8 bytes).
    Removing adc_controller.o(.ARM.exidx), (8 bytes).
    Removing adc_controller.o(.ARM.exidx), (8 bytes).
    Removing adc_controller.o(.ARM.exidx), (8 bytes).
    Removing adc_controller.o(.ARM.exidx), (8 bytes).
    Removing adc_controller.o(.ARM.exidx), (8 bytes).
    Removing common.o(.rev16_text), (4 bytes).
    Removing common.o(.revsh_text), (4 bytes).
    Removing common.o(i._Z7Int2StrPhj), (76 bytes).
    Removing common.o(i._Z7Str2IntPhPj), (180 bytes).
    Removing common.o(.ARM.exidx), (8 bytes).
    Removing common.o(.ARM.exidx), (8 bytes).
    Removing common.o(.ARM.exidx), (8 bytes).
    Removing common.o(.ARM.exidx), (8 bytes).
    Removing common.o(.ARM.exidx), (8 bytes).
    Removing common.o(.ARM.exidx), (8 bytes).
    Removing common.o(.ARM.exidx), (8 bytes).
    Removing common.o(.ARM.exidx), (8 bytes).
    Removing common.o(.ARM.exidx), (8 bytes).
    Removing common.o(.ARM.exidx), (8 bytes).
    Removing common.o(.ARM.exidx), (8 bytes).
    Removing common.o(.ARM.exidx), (8 bytes).
    Removing common.o(.ARM.exidx), (8 bytes).
    Removing common.o(.ARM.exidx), (8 bytes).
    Removing cs_register.o(.rev16_text), (4 bytes).
    Removing cs_register.o(.revsh_text), (4 bytes).
    Removing cs_register.o(i._ZN6CS_reg13print_currentEv), (92 bytes).
    Removing cs_register.o(i._ZN6CS_reg17print_current_newEv), (60 bytes).
    Removing cs_register.o(i._ZN6CS_reg9motor_cmdEb), (48 bytes).
    Removing cs_register.o(.ARM.exidx), (8 bytes).
    Removing cs_register.o(.ARM.exidx), (8 bytes).
    Removing cs_register.o(.ARM.exidx), (8 bytes).
    Removing cs_register.o(.ARM.exidx), (8 bytes).
    Removing cs_register.o(.ARM.exidx), (8 bytes).
    Removing cs_register.o(.ARM.exidx), (8 bytes).
    Removing cs_register.o(.ARM.exidx), (8 bytes).
    Removing cs_register.o(.ARM.exidx), (8 bytes).
    Removing cs_register.o(.ARM.exidx), (8 bytes).
    Removing cs_register.o(.ARM.exidx), (8 bytes).
    Removing cs_register.o(.ARM.exidx), (8 bytes).
    Removing cs_register.o(.ARM.exidx), (8 bytes).
    Removing cs_register.o(.ARM.exidx), (8 bytes).
    Removing cs_register.o(.ARM.exidx), (8 bytes).
    Removing cs_register.o(.ARM.exidx), (8 bytes).
    Removing cs_register.o(.ARM.exidx), (8 bytes).
    Removing cs_register.o(.ARM.exidx), (8 bytes).
    Removing cs_register.o(.ARM.exidx), (8 bytes).
    Removing cs_register.o(.conststring), (126 bytes).
    Removing debug_facilities.o(.rev16_text), (4 bytes).
    Removing debug_facilities.o(.revsh_text), (4 bytes).
    Removing debug_facilities.o(i._ZN11DebugHelper6updateEv), (116 bytes).
    Removing debug_facilities.o(.ARM.exidx), (8 bytes).
    Removing debug_facilities.o(.ARM.exidx), (8 bytes).
    Removing debug_facilities.o(.ARM.exidx), (8 bytes).
    Removing debug_facilities.o(.ARM.exidx), (8 bytes).
    Removing debug_facilities.o(.ARM.exidx), (8 bytes).
    Removing debug_facilities.o(.ARM.exidx), (8 bytes).
    Removing debug_facilities.o(.ARM.exidx), (8 bytes).
    Removing debug_facilities.o(.ARM.exidx), (8 bytes).
    Removing debug_facilities.o(.ARM.exidx), (8 bytes).
    Removing debug_facilities.o(.ARM.exidx), (8 bytes).
    Removing debug_facilities.o(.ARM.exidx), (8 bytes).
    Removing error_controller.o(.rev16_text), (4 bytes).
    Removing error_controller.o(.revsh_text), (4 bytes).
    Removing error_controller.o(i._ZN16error_controller3logE12DEBUG_LEVEL_PKct), (48 bytes).
    Removing error_controller.o(i._ZN16error_controller8on_fatalEv), (2 bytes).
    Removing error_controller.o(i._ZN16error_controllerC1Ev), (6 bytes).
    Removing error_controller.o(i._ZN16error_controllerD1Ev), (2 bytes).
    Removing error_controller.o(.ARM.exidx), (8 bytes).
    Removing error_controller.o(.ARM.exidx), (8 bytes).
    Removing error_controller.o(.ARM.exidx), (8 bytes).
    Removing error_controller.o(.ARM.exidx), (8 bytes).
    Removing flash_if.o(.rev16_text), (4 bytes).
    Removing flash_if.o(.revsh_text), (4 bytes).
    Removing flash_if.o(i._Z14FLASH_If_Erasev), (20 bytes).
    Removing flash_if.o(.ARM.exidx), (8 bytes).
    Removing flash_if.o(.ARM.exidx), (8 bytes).
    Removing main_controller.o(.rev16_text), (4 bytes).
    Removing main_controller.o(.revsh_text), (4 bytes).
    Removing main_controller.o(i._ZN15main_controller22stall_error_write_backEv), (12 bytes).
    Removing main_controller.o(.ARM.exidx), (8 bytes).
    Removing main_controller.o(.ARM.exidx), (8 bytes).
    Removing main_controller.o(.ARM.exidx), (8 bytes).
    Removing main_controller.o(.ARM.exidx), (8 bytes).
    Removing main_controller.o(.ARM.exidx), (8 bytes).
    Removing main_controller.o(.ARM.exidx), (8 bytes).
    Removing main_controller.o(.ARM.exidx), (8 bytes).
    Removing main_controller.o(.ARM.exidx), (8 bytes).
    Removing main_controller.o(.ARM.exidx), (8 bytes).
    Removing main_controller.o(.ARM.exidx), (8 bytes).
    Removing main_controller.o(.ARM.exidx), (8 bytes).
    Removing main_controller.o(.ARM.exidx), (8 bytes).
    Removing main_controller.o(.ARM.exidx), (8 bytes).
    Removing main_controller.o(.ARM.exidx), (8 bytes).
    Removing main_controller.o(.ARM.exidx), (8 bytes).
    Removing main_controller.o(.ARM.exidx), (8 bytes).
    Removing main_controller.o(.ARM.exidx), (8 bytes).
    Removing main_controller.o(.ARM.exidx), (8 bytes).
    Removing main_controller.o(.ARM.exidx), (8 bytes).
    Removing main_controller.o(.ARM.exidx), (8 bytes).
    Removing mem.o(.rev16_text), (4 bytes).
    Removing mem.o(.revsh_text), (4 bytes).
    Removing mem.o(i._ZN6Memory12write_enableEj), (40 bytes).
    Removing mem.o(i._ZN6Memory15uint32_to_arrayEjPh), (12 bytes).
    Removing mem.o(i._ZN6Memory17uint32_to_addressEjPh), (12 bytes).
    Removing mem.o(i._ZN6Memory21decorated_read_statusEch), (212 bytes).
    Removing mem.o(i._ZN6Memory21read_buffer_to_uint32EPh), (10 bytes).
    Removing mem.o(.ARM.exidx), (8 bytes).
    Removing mem.o(.ARM.exidx), (8 bytes).
    Removing mem.o(.ARM.exidx), (8 bytes).
    Removing mem.o(.ARM.exidx), (8 bytes).
    Removing mem.o(.ARM.exidx), (8 bytes).
    Removing mem.o(.ARM.exidx), (8 bytes).
    Removing mem.o(.ARM.exidx), (8 bytes).
    Removing mem.o(.ARM.exidx), (8 bytes).
    Removing mem.o(.ARM.exidx), (8 bytes).
    Removing mem.o(.ARM.exidx), (8 bytes).
    Removing mem.o(.ARM.exidx), (8 bytes).
    Removing mem.o(.ARM.exidx), (8 bytes).
    Removing mem.o(.ARM.exidx), (8 bytes).
    Removing mem.o(.ARM.exidx), (8 bytes).
    Removing mem.o(.ARM.exidx), (8 bytes).
    Removing mem.o(.ARM.exidx), (8 bytes).
    Removing mem.o(.ARM.exidx), (8 bytes).
    Removing mem.o(.ARM.exidx), (8 bytes).
    Removing mem.o(.ARM.exidx), (8 bytes).
    Removing mem.o(.ARM.exidx), (8 bytes).
    Removing mem_controller.o(.rev16_text), (4 bytes).
    Removing mem_controller.o(.revsh_text), (4 bytes).
    Removing mem_controller.o(.ARM.exidx), (8 bytes).
    Removing mem_controller.o(.ARM.exidx), (8 bytes).
    Removing mem_controller.o(.ARM.exidx), (8 bytes).
    Removing mem_controller.o(.ARM.exidx), (8 bytes).
    Removing mem_controller.o(.ARM.exidx), (8 bytes).
    Removing mem_controller.o(.ARM.exidx), (8 bytes).
    Removing mem_controller.o(.ARM.exidx), (8 bytes).
    Removing mem_controller.o(.ARM.exidx), (8 bytes).
    Removing mem_controller.o(.ARM.exidx), (8 bytes).
    Removing mem_controller.o(.ARM.exidx), (8 bytes).
    Removing mem_controller.o(.ARM.exidx), (8 bytes).
    Removing mem_controller.o(.ARM.exidx), (8 bytes).
    Removing mem_controller.o(.ARM.exidx), (8 bytes).
    Removing mem_controller.o(.ARM.exidx), (8 bytes).
    Removing mem_controller.o(.ARM.exidx), (8 bytes).
    Removing mem_controller.o(.ARM.exidx), (8 bytes).
    Removing mem_controller.o(.ARM.exidx), (8 bytes).
    Removing mem_controller.o(.ARM.exidx), (8 bytes).
    Removing mem_controller.o(.ARM.exidx), (8 bytes).
    Removing mem_controller.o(.ARM.exidx), (8 bytes).
    Removing mem_controller.o(.ARM.exidx), (8 bytes).
    Removing mem_controller.o(.ARM.exidx), (8 bytes).
    Removing mem_controller.o(.ARM.exidx), (8 bytes).
    Removing mem_controller.o(.ARM.exidx), (8 bytes).
    Removing mem_controller.o(.ARM.exidx), (8 bytes).
    Removing mem_controller.o(.ARM.exidx), (8 bytes).
    Removing mem_controller.o(.ARM.exidx), (8 bytes).
    Removing mem_controller.o(.ARM.exidx), (8 bytes).
    Removing menu.o(.rev16_text), (4 bytes).
    Removing menu.o(.revsh_text), (4 bytes).
    Removing menu.o(.ARM.exidx), (8 bytes).
    Removing menu.o(.ARM.exidx), (8 bytes).
    Removing menu.o(.data), (4 bytes).
    Removing menu.o(.data), (4 bytes).
    Removing menu.o(.data), (4 bytes).
    Removing peripherial_controller.o(.rev16_text), (4 bytes).
    Removing peripherial_controller.o(.revsh_text), (4 bytes).
    Removing peripherial_controller.o(i._ZN18PeripherialDevices22read_fire_button_pressEv), (18 bytes).
    Removing peripherial_controller.o(.ARM.exidx), (8 bytes).
    Removing peripherial_controller.o(.ARM.exidx), (8 bytes).
    Removing peripherial_controller.o(.ARM.exidx), (8 bytes).
    Removing peripherial_controller.o(.ARM.exidx), (8 bytes).
    Removing peripherial_controller.o(.ARM.exidx), (8 bytes).
    Removing peripherial_controller.o(.ARM.exidx), (8 bytes).
    Removing peripherial_controller.o(.ARM.exidx), (8 bytes).
    Removing peripherial_controller.o(.ARM.exidx), (8 bytes).
    Removing peripherial_controller.o(.ARM.exidx), (8 bytes).
    Removing peripherial_controller.o(.ARM.exidx), (8 bytes).
    Removing peripherial_controller.o(.ARM.exidx), (8 bytes).
    Removing peripherial_controller.o(.ARM.exidx), (8 bytes).
    Removing peripherial_controller.o(.ARM.exidx), (8 bytes).
    Removing peripherial_controller.o(.ARM.exidx), (8 bytes).
    Removing peripherial_controller.o(.ARM.exidx), (8 bytes).
    Removing peripherial_controller.o(.ARM.exidx), (8 bytes).
    Removing peripherial_controller.o(.ARM.exidx), (8 bytes).
    Removing screen_controller.o(.rev16_text), (4 bytes).
    Removing screen_controller.o(.revsh_text), (4 bytes).
    Removing screen_controller.o(i._ZN11Screen_ctrl8get_timeEv), (84 bytes).
    Removing screen_controller.o(.ARM.exidx), (8 bytes).
    Removing screen_controller.o(.ARM.exidx), (8 bytes).
    Removing screen_controller.o(.ARM.exidx), (8 bytes).
    Removing screen_controller.o(.ARM.exidx), (8 bytes).
    Removing screen_controller.o(.ARM.exidx), (8 bytes).
    Removing screen_controller.o(.ARM.exidx), (8 bytes).
    Removing screen_controller.o(.ARM.exidx), (8 bytes).
    Removing screen_controller.o(.ARM.exidx), (8 bytes).
    Removing screen_controller.o(.ARM.exidx), (8 bytes).
    Removing screen_controller.o(.ARM.exidx), (8 bytes).
    Removing screen_controller.o(.ARM.exidx), (8 bytes).
    Removing screen_controller.o(.ARM.exidx), (8 bytes).
    Removing screen_controller.o(.ARM.exidx), (8 bytes).
    Removing screen_controller.o(.ARM.exidx), (8 bytes).
    Removing screen_controller.o(.ARM.exidx), (8 bytes).
    Removing screen_controller.o(.ARM.exidx), (8 bytes).
    Removing screen_controller.o(.ARM.exidx), (8 bytes).
    Removing screen_controller.o(.ARM.exidx), (8 bytes).
    Removing screen_controller.o(.ARM.exidx), (8 bytes).
    Removing state.o(.rev16_text), (4 bytes).
    Removing state.o(.revsh_text), (4 bytes).
    Removing state.o(.ARM.exidx), (8 bytes).
    Removing state.o(.ARM.exidx), (8 bytes).
    Removing state.o(.ARM.exidx), (8 bytes).
    Removing state.o(.ARM.exidx), (8 bytes).
    Removing status_reg.o(.rev16_text), (4 bytes).
    Removing status_reg.o(.revsh_text), (4 bytes).
    Removing status_reg.o(i._ZN10STATUS_reg14nibble_reverseEh), (26 bytes).
    Removing status_reg.o(.ARM.exidx), (8 bytes).
    Removing status_reg.o(.ARM.exidx), (8 bytes).
    Removing status_reg.o(.ARM.exidx), (8 bytes).
    Removing status_reg.o(.ARM.exidx), (8 bytes).
    Removing status_reg.o(.ARM.exidx), (8 bytes).
    Removing xmodem.o(.rev16_text), (4 bytes).
    Removing xmodem.o(.revsh_text), (4 bytes).
    Removing xmodem.o(.ARM.exidx), (8 bytes).
    Removing xmodem.o(.ARM.exidx), (8 bytes).
    Removing xmodem.o(.ARM.exidx), (8 bytes).
    Removing xmodem.o(.ARM.exidx), (8 bytes).
    Removing monitor.o(.rev16_text), (4 bytes).
    Removing monitor.o(.revsh_text), (4 bytes).
    Removing monitor.o(i._ZN7monitor7rx_helpEv), (16 bytes).
    Removing monitor.o(i._ZN7monitor9rx_uploadEv), (8 bytes).
    Removing monitor.o(.ARM.exidx), (8 bytes).
    Removing monitor.o(.ARM.exidx), (8 bytes).
    Removing monitor.o(.ARM.exidx), (8 bytes).
    Removing monitor.o(.ARM.exidx), (8 bytes).
    Removing monitor.o(.ARM.exidx), (8 bytes).
    Removing monitor.o(.ARM.exidx), (8 bytes).
    Removing monitor.o(.ARM.exidx), (8 bytes).
    Removing monitor.o(.ARM.exidx), (8 bytes).
    Removing monitor.o(.ARM.exidx), (8 bytes).
    Removing monitor.o(.ARM.exidx), (8 bytes).
    Removing monitor.o(.ARM.exidx), (8 bytes).
    Removing monitor.o(.ARM.exidx), (8 bytes).
    Removing monitor.o(.ARM.exidx), (8 bytes).
    Removing monitor.o(.ARM.exidx), (8 bytes).
    Removing monitor.o(.ARM.exidx), (8 bytes).
    Removing monitor.o(.ARM.exidx), (8 bytes).
    Removing monitor.o(.ARM.exidx), (8 bytes).
    Removing monitor.o(.ARM.exidx), (8 bytes).
    Removing monitor.o(.ARM.exidx), (8 bytes).
    Removing monitor.o(.ARM.exidx), (8 bytes).
    Removing monitor.o(.ARM.exidx), (8 bytes).
    Removing monitor.o(.ARM.exidx), (8 bytes).
    Removing monitor.o(.ARM.exidx), (8 bytes).
    Removing monitor.o(.ARM.exidx), (8 bytes).
    Removing monitor.o(.ARM.exidx), (8 bytes).
    Removing monitor.o(.ARM.exidx), (8 bytes).
    Removing monitor.o(.ARM.exidx), (8 bytes).
    Removing monitor.o(.ARM.exidx), (8 bytes).
    Removing monitor.o(.ARM.exidx), (8 bytes).
    Removing monitor.o(.ARM.exidx), (8 bytes).
    Removing monitor.o(.ARM.exidx), (8 bytes).
    Removing monitor.o(.ARM.exidx), (8 bytes).
    Removing monitor.o(.ARM.exidx), (8 bytes).
    Removing gpio.o(.rev16_text), (4 bytes).
    Removing gpio.o(.revsh_text), (4 bytes).
    Removing adc.o(.rev16_text), (4 bytes).
    Removing adc.o(.revsh_text), (4 bytes).
    Removing adc.o(i.HAL_ADC_MspDeInit), (52 bytes).
    Removing crc.o(.rev16_text), (4 bytes).
    Removing crc.o(.revsh_text), (4 bytes).
    Removing crc.o(i.HAL_CRC_MspDeInit), (28 bytes).
    Removing dma.o(.rev16_text), (4 bytes).
    Removing dma.o(.revsh_text), (4 bytes).
    Removing rtc.o(.rev16_text), (4 bytes).
    Removing rtc.o(.revsh_text), (4 bytes).
    Removing rtc.o(i.HAL_RTC_MspDeInit), (32 bytes).
    Removing spi.o(.rev16_text), (4 bytes).
    Removing spi.o(.revsh_text), (4 bytes).
    Removing spi.o(i.HAL_SPI_MspDeInit), (40 bytes).
    Removing tim.o(.rev16_text), (4 bytes).
    Removing tim.o(.revsh_text), (4 bytes).
    Removing tim.o(i.HAL_TIM_Base_MspDeInit), (76 bytes).
    Removing usart.o(.rev16_text), (4 bytes).
    Removing usart.o(.revsh_text), (4 bytes).
    Removing usart.o(i.HAL_UART_MspDeInit), (80 bytes).
    Removing stm32f0xx_it.o(.rev16_text), (4 bytes).
    Removing stm32f0xx_it.o(.revsh_text), (4 bytes).
    Removing stm32f0xx_hal_msp.o(.rev16_text), (4 bytes).
    Removing stm32f0xx_hal_msp.o(.revsh_text), (4 bytes).
    Removing stm32f0xx_hal_timebase_tim.o(.rev16_text), (4 bytes).
    Removing stm32f0xx_hal_timebase_tim.o(.revsh_text), (4 bytes).
    Removing stm32f0xx_hal_timebase_tim.o(i.HAL_ResumeTick), (20 bytes).
    Removing stm32f0xx_hal_timebase_tim.o(i.HAL_SuspendTick), (20 bytes).
    Removing stm32f0xx_hal_adc.o(.rev16_text), (4 bytes).
    Removing stm32f0xx_hal_adc.o(.revsh_text), (4 bytes).
    Removing stm32f0xx_hal_adc.o(i.ADC_ConversionStop), (82 bytes).
    Removing stm32f0xx_hal_adc.o(i.ADC_Disable), (102 bytes).
    Removing stm32f0xx_hal_adc.o(i.HAL_ADC_AnalogWDGConfig), (156 bytes).
    Removing stm32f0xx_hal_adc.o(i.HAL_ADC_ConvCpltCallback), (2 bytes).
    Removing stm32f0xx_hal_adc.o(i.HAL_ADC_DeInit), (160 bytes).
    Removing stm32f0xx_hal_adc.o(i.HAL_ADC_GetError), (4 bytes).
    Removing stm32f0xx_hal_adc.o(i.HAL_ADC_GetState), (4 bytes).
    Removing stm32f0xx_hal_adc.o(i.HAL_ADC_GetValue), (6 bytes).
    Removing stm32f0xx_hal_adc.o(i.HAL_ADC_IRQHandler), (208 bytes).
    Removing stm32f0xx_hal_adc.o(i.HAL_ADC_LevelOutOfWindowCallback), (2 bytes).
    Removing stm32f0xx_hal_adc.o(i.HAL_ADC_MspDeInit), (2 bytes).
    Removing stm32f0xx_hal_adc.o(i.HAL_ADC_MspInit), (2 bytes).
    Removing stm32f0xx_hal_adc.o(i.HAL_ADC_PollForConversion), (190 bytes).
    Removing stm32f0xx_hal_adc.o(i.HAL_ADC_PollForEvent), (116 bytes).
    Removing stm32f0xx_hal_adc.o(i.HAL_ADC_Start), (92 bytes).
    Removing stm32f0xx_hal_adc.o(i.HAL_ADC_Start_IT), (124 bytes).
    Removing stm32f0xx_hal_adc.o(i.HAL_ADC_Stop), (62 bytes).
    Removing stm32f0xx_hal_adc.o(i.HAL_ADC_Stop_DMA), (112 bytes).
    Removing stm32f0xx_hal_adc.o(i.HAL_ADC_Stop_IT), (72 bytes).
    Removing stm32f0xx_hal_adc_ex.o(.rev16_text), (4 bytes).
    Removing stm32f0xx_hal_adc_ex.o(.revsh_text), (4 bytes).
    Removing stm32f0xx_hal_adc_ex.o(i.HAL_ADCEx_Calibration_Start), (176 bytes).
    Removing stm32f0xx_hal_crc.o(.rev16_text), (4 bytes).
    Removing stm32f0xx_hal_crc.o(.revsh_text), (4 bytes).
    Removing stm32f0xx_hal_crc.o(i.CRC_Handle_16), (56 bytes).
    Removing stm32f0xx_hal_crc.o(i.CRC_Handle_8), (128 bytes).
    Removing stm32f0xx_hal_crc.o(i.HAL_CRC_Accumulate), (88 bytes).
    Removing stm32f0xx_hal_crc.o(i.HAL_CRC_Calculate), (96 bytes).
    Removing stm32f0xx_hal_crc.o(i.HAL_CRC_DeInit), (52 bytes).
    Removing stm32f0xx_hal_crc.o(i.HAL_CRC_GetState), (4 bytes).
    Removing stm32f0xx_hal_crc.o(i.HAL_CRC_MspDeInit), (2 bytes).
    Removing stm32f0xx_hal_crc.o(i.HAL_CRC_MspInit), (2 bytes).
    Removing stm32f0xx_hal_crc_ex.o(.rev16_text), (4 bytes).
    Removing stm32f0xx_hal_crc_ex.o(.revsh_text), (4 bytes).
    Removing stm32f0xx_hal_crc_ex.o(i.HAL_CRCEx_Input_Data_Reverse), (26 bytes).
    Removing stm32f0xx_hal_crc_ex.o(i.HAL_CRCEx_Output_Data_Reverse), (26 bytes).
    Removing stm32f0xx_hal_rtc.o(.rev16_text), (4 bytes).
    Removing stm32f0xx_hal_rtc.o(.revsh_text), (4 bytes).
    Removing stm32f0xx_hal_rtc.o(i.HAL_RTC_AlarmAEventCallback), (2 bytes).
    Removing stm32f0xx_hal_rtc.o(i.HAL_RTC_AlarmIRQHandler), (56 bytes).
    Removing stm32f0xx_hal_rtc.o(i.HAL_RTC_DeInit), (196 bytes).
    Removing stm32f0xx_hal_rtc.o(i.HAL_RTC_DeactivateAlarm), (114 bytes).
    Removing stm32f0xx_hal_rtc.o(i.HAL_RTC_GetAlarm), (112 bytes).
    Removing stm32f0xx_hal_rtc.o(i.HAL_RTC_GetDate), (68 bytes).
    Removing stm32f0xx_hal_rtc.o(i.HAL_RTC_GetState), (4 bytes).
    Removing stm32f0xx_hal_rtc.o(i.HAL_RTC_GetTime), (92 bytes).
    Removing stm32f0xx_hal_rtc.o(i.HAL_RTC_MspDeInit), (2 bytes).
    Removing stm32f0xx_hal_rtc.o(i.HAL_RTC_MspInit), (2 bytes).
    Removing stm32f0xx_hal_rtc.o(i.HAL_RTC_PollForAlarmAEvent), (68 bytes).
    Removing stm32f0xx_hal_rtc.o(i.HAL_RTC_SetAlarm), (262 bytes).
    Removing stm32f0xx_hal_rtc.o(i.HAL_RTC_SetAlarm_IT), (300 bytes).
    Removing stm32f0xx_hal_rtc_ex.o(.rev16_text), (4 bytes).
    Removing stm32f0xx_hal_rtc_ex.o(.revsh_text), (4 bytes).
    Removing stm32f0xx_hal_rtc_ex.o(i.HAL_RTCEx_BKUPRead), (12 bytes).
    Removing stm32f0xx_hal_rtc_ex.o(i.HAL_RTCEx_BKUPWrite), (12 bytes).
    Removing stm32f0xx_hal_rtc_ex.o(i.HAL_RTCEx_DeactivateCalibrationOutPut), (58 bytes).
    Removing stm32f0xx_hal_rtc_ex.o(i.HAL_RTCEx_DeactivateRefClock), (94 bytes).
    Removing stm32f0xx_hal_rtc_ex.o(i.HAL_RTCEx_DeactivateTamper), (38 bytes).
    Removing stm32f0xx_hal_rtc_ex.o(i.HAL_RTCEx_DeactivateTimeStamp), (72 bytes).
    Removing stm32f0xx_hal_rtc_ex.o(i.HAL_RTCEx_DeactivateWakeUpTimer), (114 bytes).
    Removing stm32f0xx_hal_rtc_ex.o(i.HAL_RTCEx_DisableBypassShadow), (58 bytes).
    Removing stm32f0xx_hal_rtc_ex.o(i.HAL_RTCEx_EnableBypassShadow), (58 bytes).
    Removing stm32f0xx_hal_rtc_ex.o(i.HAL_RTCEx_GetTimeStamp), (160 bytes).
    Removing stm32f0xx_hal_rtc_ex.o(i.HAL_RTCEx_GetWakeUpTimer), (8 bytes).
    Removing stm32f0xx_hal_rtc_ex.o(i.HAL_RTCEx_PollForTamper1Event), (72 bytes).
    Removing stm32f0xx_hal_rtc_ex.o(i.HAL_RTCEx_PollForTamper2Event), (72 bytes).
    Removing stm32f0xx_hal_rtc_ex.o(i.HAL_RTCEx_PollForTamper3Event), (72 bytes).
    Removing stm32f0xx_hal_rtc_ex.o(i.HAL_RTCEx_PollForTimeStampEvent), (84 bytes).
    Removing stm32f0xx_hal_rtc_ex.o(i.HAL_RTCEx_PollForWakeUpTimerEvent), (72 bytes).
    Removing stm32f0xx_hal_rtc_ex.o(i.HAL_RTCEx_SetCalibrationOutPut), (76 bytes).
    Removing stm32f0xx_hal_rtc_ex.o(i.HAL_RTCEx_SetRefClock), (94 bytes).
    Removing stm32f0xx_hal_rtc_ex.o(i.HAL_RTCEx_SetSmoothCalib), (122 bytes).
    Removing stm32f0xx_hal_rtc_ex.o(i.HAL_RTCEx_SetSynchroShift), (144 bytes).
    Removing stm32f0xx_hal_rtc_ex.o(i.HAL_RTCEx_SetTamper), (96 bytes).
    Removing stm32f0xx_hal_rtc_ex.o(i.HAL_RTCEx_SetTamper_IT), (132 bytes).
    Removing stm32f0xx_hal_rtc_ex.o(i.HAL_RTCEx_SetTimeStamp_IT), (104 bytes).
    Removing stm32f0xx_hal_rtc_ex.o(i.HAL_RTCEx_SetWakeUpTimer), (184 bytes).
    Removing stm32f0xx_hal_rtc_ex.o(i.HAL_RTCEx_SetWakeUpTimer_IT), (236 bytes).
    Removing stm32f0xx_hal_rtc_ex.o(i.HAL_RTCEx_Tamper1EventCallback), (2 bytes).
    Removing stm32f0xx_hal_rtc_ex.o(i.HAL_RTCEx_Tamper2EventCallback), (2 bytes).
    Removing stm32f0xx_hal_rtc_ex.o(i.HAL_RTCEx_Tamper3EventCallback), (2 bytes).
    Removing stm32f0xx_hal_rtc_ex.o(i.HAL_RTCEx_TamperTimeStampIRQHandler), (172 bytes).
    Removing stm32f0xx_hal_rtc_ex.o(i.HAL_RTCEx_TimeStampEventCallback), (2 bytes).
    Removing stm32f0xx_hal_rtc_ex.o(i.HAL_RTCEx_WakeUpTimerEventCallback), (2 bytes).
    Removing stm32f0xx_hal_rtc_ex.o(i.HAL_RTCEx_WakeUpTimerIRQHandler), (60 bytes).
    Removing stm32f0xx_hal_spi.o(.rev16_text), (4 bytes).
    Removing stm32f0xx_hal_spi.o(.revsh_text), (4 bytes).
    Removing stm32f0xx_hal_spi.o(i.HAL_SPI_Abort), (360 bytes).
    Removing stm32f0xx_hal_spi.o(i.HAL_SPI_AbortCpltCallback), (2 bytes).
    Removing stm32f0xx_hal_spi.o(i.HAL_SPI_Abort_IT), (372 bytes).
    Removing stm32f0xx_hal_spi.o(i.HAL_SPI_DMAPause), (34 bytes).
    Removing stm32f0xx_hal_spi.o(i.HAL_SPI_DMAResume), (34 bytes).
    Removing stm32f0xx_hal_spi.o(i.HAL_SPI_DMAStop), (44 bytes).
    Removing stm32f0xx_hal_spi.o(i.HAL_SPI_DeInit), (48 bytes).
    Removing stm32f0xx_hal_spi.o(i.HAL_SPI_ErrorCallback), (2 bytes).
    Removing stm32f0xx_hal_spi.o(i.HAL_SPI_GetError), (4 bytes).
    Removing stm32f0xx_hal_spi.o(i.HAL_SPI_GetState), (6 bytes).
    Removing stm32f0xx_hal_spi.o(i.HAL_SPI_IRQHandler), (212 bytes).
    Removing stm32f0xx_hal_spi.o(i.HAL_SPI_MspDeInit), (2 bytes).
    Removing stm32f0xx_hal_spi.o(i.HAL_SPI_MspInit), (2 bytes).
    Removing stm32f0xx_hal_spi.o(i.HAL_SPI_Receive_DMA), (300 bytes).
    Removing stm32f0xx_hal_spi.o(i.HAL_SPI_Receive_IT), (188 bytes).
    Removing stm32f0xx_hal_spi.o(i.HAL_SPI_RxCpltCallback), (2 bytes).
    Removing stm32f0xx_hal_spi.o(i.HAL_SPI_RxHalfCpltCallback), (2 bytes).
    Removing stm32f0xx_hal_spi.o(i.HAL_SPI_TransmitReceive_DMA), (412 bytes).
    Removing stm32f0xx_hal_spi.o(i.HAL_SPI_TransmitReceive_IT), (212 bytes).
    Removing stm32f0xx_hal_spi.o(i.HAL_SPI_Transmit_DMA), (244 bytes).
    Removing stm32f0xx_hal_spi.o(i.HAL_SPI_Transmit_IT), (148 bytes).
    Removing stm32f0xx_hal_spi.o(i.HAL_SPI_TxCpltCallback), (2 bytes).
    Removing stm32f0xx_hal_spi.o(i.HAL_SPI_TxHalfCpltCallback), (2 bytes).
    Removing stm32f0xx_hal_spi.o(i.HAL_SPI_TxRxCpltCallback), (2 bytes).
    Removing stm32f0xx_hal_spi.o(i.HAL_SPI_TxRxHalfCpltCallback), (2 bytes).
    Removing stm32f0xx_hal_spi.o(i.SPI_2linesRxISR_16BIT), (54 bytes).
    Removing stm32f0xx_hal_spi.o(i.SPI_2linesRxISR_8BIT), (94 bytes).
    Removing stm32f0xx_hal_spi.o(i.SPI_2linesTxISR_16BIT), (52 bytes).
    Removing stm32f0xx_hal_spi.o(i.SPI_2linesTxISR_8BIT), (72 bytes).
    Removing stm32f0xx_hal_spi.o(i.SPI_AbortRx_ISR), (132 bytes).
    Removing stm32f0xx_hal_spi.o(i.SPI_AbortTx_ISR), (128 bytes).
    Removing stm32f0xx_hal_spi.o(i.SPI_CloseRxTx_ISR), (82 bytes).
    Removing stm32f0xx_hal_spi.o(i.SPI_CloseRx_ISR), (66 bytes).
    Removing stm32f0xx_hal_spi.o(i.SPI_CloseTx_ISR), (80 bytes).
    Removing stm32f0xx_hal_spi.o(i.SPI_DMAAbortOnError), (18 bytes).
    Removing stm32f0xx_hal_spi.o(i.SPI_DMAError), (34 bytes).
    Removing stm32f0xx_hal_spi.o(i.SPI_DMAHalfReceiveCplt), (10 bytes).
    Removing stm32f0xx_hal_spi.o(i.SPI_DMAHalfTransmitCplt), (10 bytes).
    Removing stm32f0xx_hal_spi.o(i.SPI_DMAHalfTransmitReceiveCplt), (10 bytes).
    Removing stm32f0xx_hal_spi.o(i.SPI_DMAReceiveCplt), (88 bytes).
    Removing stm32f0xx_hal_spi.o(i.SPI_DMARxAbortCallback), (134 bytes).
    Removing stm32f0xx_hal_spi.o(i.SPI_DMATransmitCplt), (104 bytes).
    Removing stm32f0xx_hal_spi.o(i.SPI_DMATransmitReceiveCplt), (94 bytes).
    Removing stm32f0xx_hal_spi.o(i.SPI_DMATxAbortCallback), (128 bytes).
    Removing stm32f0xx_hal_spi.o(i.SPI_RxISR_16BIT), (38 bytes).
    Removing stm32f0xx_hal_spi.o(i.SPI_RxISR_8BIT), (36 bytes).
    Removing stm32f0xx_hal_spi.o(i.SPI_TxISR_16BIT), (34 bytes).
    Removing stm32f0xx_hal_spi.o(i.SPI_TxISR_8BIT), (32 bytes).
    Removing stm32f0xx_hal_spi_ex.o(.rev16_text), (4 bytes).
    Removing stm32f0xx_hal_spi_ex.o(.revsh_text), (4 bytes).
    Removing stm32f0xx_hal_spi_ex.o(i.HAL_SPIEx_FlushRxFifo), (36 bytes).
    Removing stm32f0xx_hal_tim.o(.rev16_text), (4 bytes).
    Removing stm32f0xx_hal_tim.o(.revsh_text), (4 bytes).
    Removing stm32f0xx_hal_tim.o(i.HAL_TIM_Base_DeInit), (52 bytes).
    Removing stm32f0xx_hal_tim.o(i.HAL_TIM_Base_GetState), (6 bytes).
    Removing stm32f0xx_hal_tim.o(i.HAL_TIM_Base_MspDeInit), (2 bytes).
    Removing stm32f0xx_hal_tim.o(i.HAL_TIM_Base_MspInit), (2 bytes).
    Removing stm32f0xx_hal_tim.o(i.HAL_TIM_Base_Start_DMA), (100 bytes).
    Removing stm32f0xx_hal_tim.o(i.HAL_TIM_Base_Stop), (48 bytes).
    Removing stm32f0xx_hal_tim.o(i.HAL_TIM_Base_Stop_DMA), (52 bytes).
    Removing stm32f0xx_hal_tim.o(i.HAL_TIM_Base_Stop_IT), (44 bytes).
    Removing stm32f0xx_hal_tim.o(i.HAL_TIM_ConfigOCrefClear), (188 bytes).
    Removing stm32f0xx_hal_tim.o(i.HAL_TIM_ConfigTI1Input), (16 bytes).
    Removing stm32f0xx_hal_tim.o(i.HAL_TIM_DMABurst_MultiReadStart), (264 bytes).
    Removing stm32f0xx_hal_tim.o(i.HAL_TIM_DMABurst_MultiWriteStart), (264 bytes).
    Removing stm32f0xx_hal_tim.o(i.HAL_TIM_DMABurst_ReadStart), (18 bytes).
    Removing stm32f0xx_hal_tim.o(i.HAL_TIM_DMABurst_ReadStop), (100 bytes).
    Removing stm32f0xx_hal_tim.o(i.HAL_TIM_DMABurst_WriteStart), (18 bytes).
    Removing stm32f0xx_hal_tim.o(i.HAL_TIM_DMABurst_WriteStop), (100 bytes).
    Removing stm32f0xx_hal_tim.o(i.HAL_TIM_Encoder_DeInit), (52 bytes).
    Removing stm32f0xx_hal_tim.o(i.HAL_TIM_Encoder_GetState), (6 bytes).
    Removing stm32f0xx_hal_tim.o(i.HAL_TIM_Encoder_Init), (152 bytes).
    Removing stm32f0xx_hal_tim.o(i.HAL_TIM_Encoder_MspDeInit), (2 bytes).
    Removing stm32f0xx_hal_tim.o(i.HAL_TIM_Encoder_MspInit), (2 bytes).
    Removing stm32f0xx_hal_tim.o(i.HAL_TIM_Encoder_Start), (52 bytes).
    Removing stm32f0xx_hal_tim.o(i.HAL_TIM_Encoder_Start_DMA), (284 bytes).
    Removing stm32f0xx_hal_tim.o(i.HAL_TIM_Encoder_Start_IT), (92 bytes).
    Removing stm32f0xx_hal_tim.o(i.HAL_TIM_Encoder_Stop), (72 bytes).
    Removing stm32f0xx_hal_tim.o(i.HAL_TIM_Encoder_Stop_DMA), (120 bytes).
    Removing stm32f0xx_hal_tim.o(i.HAL_TIM_Encoder_Stop_IT), (120 bytes).
    Removing stm32f0xx_hal_tim.o(i.HAL_TIM_ErrorCallback), (2 bytes).
    Removing stm32f0xx_hal_tim.o(i.HAL_TIM_GenerateEvent), (36 bytes).
    Removing stm32f0xx_hal_tim.o(i.HAL_TIM_IC_ConfigChannel), (288 bytes).
    Removing stm32f0xx_hal_tim.o(i.HAL_TIM_IC_DeInit), (52 bytes).
    Removing stm32f0xx_hal_tim.o(i.HAL_TIM_IC_GetState), (6 bytes).
    Removing stm32f0xx_hal_tim.o(i.HAL_TIM_IC_Init), (52 bytes).
    Removing stm32f0xx_hal_tim.o(i.HAL_TIM_IC_MspDeInit), (2 bytes).
    Removing stm32f0xx_hal_tim.o(i.HAL_TIM_IC_MspInit), (2 bytes).
    Removing stm32f0xx_hal_tim.o(i.HAL_TIM_IC_Start), (26 bytes).
    Removing stm32f0xx_hal_tim.o(i.HAL_TIM_IC_Start_DMA), (212 bytes).
    Removing stm32f0xx_hal_tim.o(i.HAL_TIM_IC_Start_IT), (72 bytes).
    Removing stm32f0xx_hal_tim.o(i.HAL_TIM_IC_Stop), (48 bytes).
    Removing stm32f0xx_hal_tim.o(i.HAL_TIM_IC_Stop_DMA), (108 bytes).
    Removing stm32f0xx_hal_tim.o(i.HAL_TIM_IC_Stop_IT), (92 bytes).
    Removing stm32f0xx_hal_tim.o(i.HAL_TIM_OC_DeInit), (52 bytes).
    Removing stm32f0xx_hal_tim.o(i.HAL_TIM_OC_GetState), (6 bytes).
    Removing stm32f0xx_hal_tim.o(i.HAL_TIM_OC_MspDeInit), (2 bytes).
    Removing stm32f0xx_hal_tim.o(i.HAL_TIM_OC_Start), (80 bytes).
    Removing stm32f0xx_hal_tim.o(i.HAL_TIM_OC_Start_DMA), (272 bytes).
    Removing stm32f0xx_hal_tim.o(i.HAL_TIM_OC_Start_IT), (124 bytes).
    Removing stm32f0xx_hal_tim.o(i.HAL_TIM_OC_Stop), (112 bytes).
    Removing stm32f0xx_hal_tim.o(i.HAL_TIM_OC_Stop_DMA), (172 bytes).
    Removing stm32f0xx_hal_tim.o(i.HAL_TIM_OC_Stop_IT), (156 bytes).
    Removing stm32f0xx_hal_tim.o(i.HAL_TIM_OnePulse_ConfigChannel), (214 bytes).
    Removing stm32f0xx_hal_tim.o(i.HAL_TIM_OnePulse_DeInit), (52 bytes).
    Removing stm32f0xx_hal_tim.o(i.HAL_TIM_OnePulse_GetState), (6 bytes).
    Removing stm32f0xx_hal_tim.o(i.HAL_TIM_OnePulse_Init), (72 bytes).
    Removing stm32f0xx_hal_tim.o(i.HAL_TIM_OnePulse_MspDeInit), (2 bytes).
    Removing stm32f0xx_hal_tim.o(i.HAL_TIM_OnePulse_MspInit), (2 bytes).
    Removing stm32f0xx_hal_tim.o(i.HAL_TIM_OnePulse_Start), (80 bytes).
    Removing stm32f0xx_hal_tim.o(i.HAL_TIM_OnePulse_Start_IT), (100 bytes).
    Removing stm32f0xx_hal_tim.o(i.HAL_TIM_OnePulse_Stop), (124 bytes).
    Removing stm32f0xx_hal_tim.o(i.HAL_TIM_OnePulse_Stop_IT), (144 bytes).
    Removing stm32f0xx_hal_tim.o(i.HAL_TIM_PWM_ConfigChannel), (208 bytes).
    Removing stm32f0xx_hal_tim.o(i.HAL_TIM_PWM_DeInit), (52 bytes).
    Removing stm32f0xx_hal_tim.o(i.HAL_TIM_PWM_GetState), (6 bytes).
    Removing stm32f0xx_hal_tim.o(i.HAL_TIM_PWM_Init), (52 bytes).
    Removing stm32f0xx_hal_tim.o(i.HAL_TIM_PWM_MspDeInit), (2 bytes).
    Removing stm32f0xx_hal_tim.o(i.HAL_TIM_PWM_MspInit), (2 bytes).
    Removing stm32f0xx_hal_tim.o(i.HAL_TIM_PWM_Start), (80 bytes).
    Removing stm32f0xx_hal_tim.o(i.HAL_TIM_PWM_Start_DMA), (272 bytes).
    Removing stm32f0xx_hal_tim.o(i.HAL_TIM_PWM_Start_IT), (124 bytes).
    Removing stm32f0xx_hal_tim.o(i.HAL_TIM_PWM_Stop), (116 bytes).
    Removing stm32f0xx_hal_tim.o(i.HAL_TIM_PWM_Stop_DMA), (172 bytes).
    Removing stm32f0xx_hal_tim.o(i.HAL_TIM_PWM_Stop_IT), (156 bytes).
    Removing stm32f0xx_hal_tim.o(i.HAL_TIM_PeriodElapsedCallback), (2 bytes).
    Removing stm32f0xx_hal_tim.o(i.HAL_TIM_ReadCapturedValue), (70 bytes).
    Removing stm32f0xx_hal_tim.o(i.HAL_TIM_SlaveConfigSynchronization), (60 bytes).
    Removing stm32f0xx_hal_tim.o(i.HAL_TIM_SlaveConfigSynchronization_IT), (60 bytes).
    Removing stm32f0xx_hal_tim.o(i.TIM_CCxChannelCmd), (22 bytes).
    Removing stm32f0xx_hal_tim.o(i.TIM_DMACaptureCplt), (62 bytes).
    Removing stm32f0xx_hal_tim.o(i.TIM_DMADelayPulseCplt), (62 bytes).
    Removing stm32f0xx_hal_tim.o(i.TIM_DMAError), (16 bytes).
    Removing stm32f0xx_hal_tim.o(i.TIM_DMAPeriodElapsedCplt), (16 bytes).
    Removing stm32f0xx_hal_tim.o(i.TIM_DMATriggerCplt), (16 bytes).
    Removing stm32f0xx_hal_tim.o(i.TIM_SlaveTimer_SetConfig), (122 bytes).
    Removing stm32f0xx_hal_tim.o(i.TIM_TI1_SetConfig), (88 bytes).
    Removing stm32f0xx_hal_tim.o(i.TIM_TI2_SetConfig), (52 bytes).
    Removing stm32f0xx_hal_tim_ex.o(.rev16_text), (4 bytes).
    Removing stm32f0xx_hal_tim_ex.o(.revsh_text), (4 bytes).
    Removing stm32f0xx_hal_tim_ex.o(i.HAL_TIMEx_ConfigCommutationEvent), (88 bytes).
    Removing stm32f0xx_hal_tim_ex.o(i.HAL_TIMEx_ConfigCommutationEvent_DMA), (120 bytes).
    Removing stm32f0xx_hal_tim_ex.o(i.HAL_TIMEx_ConfigCommutationEvent_IT), (98 bytes).
    Removing stm32f0xx_hal_tim_ex.o(i.HAL_TIMEx_HallSensor_DeInit), (52 bytes).
    Removing stm32f0xx_hal_tim_ex.o(i.HAL_TIMEx_HallSensor_GetState), (6 bytes).
    Removing stm32f0xx_hal_tim_ex.o(i.HAL_TIMEx_HallSensor_Init), (184 bytes).
    Removing stm32f0xx_hal_tim_ex.o(i.HAL_TIMEx_HallSensor_MspDeInit), (2 bytes).
    Removing stm32f0xx_hal_tim_ex.o(i.HAL_TIMEx_HallSensor_MspInit), (2 bytes).
    Removing stm32f0xx_hal_tim_ex.o(i.HAL_TIMEx_HallSensor_Start), (28 bytes).
    Removing stm32f0xx_hal_tim_ex.o(i.HAL_TIMEx_HallSensor_Start_DMA), (116 bytes).
    Removing stm32f0xx_hal_tim_ex.o(i.HAL_TIMEx_HallSensor_Start_IT), (38 bytes).
    Removing stm32f0xx_hal_tim_ex.o(i.HAL_TIMEx_HallSensor_Stop), (48 bytes).
    Removing stm32f0xx_hal_tim_ex.o(i.HAL_TIMEx_HallSensor_Stop_DMA), (60 bytes).
    Removing stm32f0xx_hal_tim_ex.o(i.HAL_TIMEx_HallSensor_Stop_IT), (60 bytes).
    Removing stm32f0xx_hal_tim_ex.o(i.HAL_TIMEx_OCN_Start), (38 bytes).
    Removing stm32f0xx_hal_tim_ex.o(i.HAL_TIMEx_OCN_Start_DMA), (232 bytes).
    Removing stm32f0xx_hal_tim_ex.o(i.HAL_TIMEx_OCN_Start_IT), (94 bytes).
    Removing stm32f0xx_hal_tim_ex.o(i.HAL_TIMEx_OCN_Stop), (76 bytes).
    Removing stm32f0xx_hal_tim_ex.o(i.HAL_TIMEx_OCN_Stop_DMA), (136 bytes).
    Removing stm32f0xx_hal_tim_ex.o(i.HAL_TIMEx_OCN_Stop_IT), (136 bytes).
    Removing stm32f0xx_hal_tim_ex.o(i.HAL_TIMEx_OnePulseN_Start), (28 bytes).
    Removing stm32f0xx_hal_tim_ex.o(i.HAL_TIMEx_OnePulseN_Start_IT), (48 bytes).
    Removing stm32f0xx_hal_tim_ex.o(i.HAL_TIMEx_OnePulseN_Stop), (76 bytes).
    Removing stm32f0xx_hal_tim_ex.o(i.HAL_TIMEx_OnePulseN_Stop_IT), (96 bytes).
    Removing stm32f0xx_hal_tim_ex.o(i.HAL_TIMEx_PWMN_Start), (38 bytes).
    Removing stm32f0xx_hal_tim_ex.o(i.HAL_TIMEx_PWMN_Start_DMA), (232 bytes).
    Removing stm32f0xx_hal_tim_ex.o(i.HAL_TIMEx_PWMN_Start_IT), (94 bytes).
    Removing stm32f0xx_hal_tim_ex.o(i.HAL_TIMEx_PWMN_Stop), (76 bytes).
    Removing stm32f0xx_hal_tim_ex.o(i.HAL_TIMEx_PWMN_Stop_DMA), (136 bytes).
    Removing stm32f0xx_hal_tim_ex.o(i.HAL_TIMEx_PWMN_Stop_IT), (136 bytes).
    Removing stm32f0xx_hal_tim_ex.o(i.HAL_TIMEx_RemapConfig), (30 bytes).
    Removing stm32f0xx_hal_tim_ex.o(i.HAL_TIM_ConfigOCrefClear), (202 bytes).
    Removing stm32f0xx_hal_tim_ex.o(i.TIMEx_DMACommutationCplt), (16 bytes).
    Removing stm32f0xx_hal_tim_ex.o(i.TIM_CCxNChannelCmd), (22 bytes).
    Removing stm32f0xx_hal_uart.o(.rev16_text), (4 bytes).
    Removing stm32f0xx_hal_uart.o(.revsh_text), (4 bytes).
    Removing stm32f0xx_hal_uart.o(i.HAL_HalfDuplex_EnableReceiver), (54 bytes).
    Removing stm32f0xx_hal_uart.o(i.HAL_HalfDuplex_EnableTransmitter), (54 bytes).
    Removing stm32f0xx_hal_uart.o(i.HAL_HalfDuplex_Init), (118 bytes).
    Removing stm32f0xx_hal_uart.o(i.HAL_MultiProcessor_DisableMuteMode), (46 bytes).
    Removing stm32f0xx_hal_uart.o(i.HAL_MultiProcessor_EnableMuteMode), (46 bytes).
    Removing stm32f0xx_hal_uart.o(i.HAL_MultiProcessor_EnterMuteMode), (12 bytes).
    Removing stm32f0xx_hal_uart.o(i.HAL_MultiProcessor_Init), (144 bytes).
    Removing stm32f0xx_hal_uart.o(i.HAL_UART_Abort), (120 bytes).
    Removing stm32f0xx_hal_uart.o(i.HAL_UART_AbortCpltCallback), (2 bytes).
    Removing stm32f0xx_hal_uart.o(i.HAL_UART_AbortReceive), (80 bytes).
    Removing stm32f0xx_hal_uart.o(i.HAL_UART_AbortReceiveCpltCallback), (2 bytes).
    Removing stm32f0xx_hal_uart.o(i.HAL_UART_AbortReceive_IT), (116 bytes).
    Removing stm32f0xx_hal_uart.o(i.HAL_UART_AbortTransmit), (62 bytes).
    Removing stm32f0xx_hal_uart.o(i.HAL_UART_AbortTransmitCpltCallback), (2 bytes).
    Removing stm32f0xx_hal_uart.o(i.HAL_UART_AbortTransmit_IT), (92 bytes).
    Removing stm32f0xx_hal_uart.o(i.HAL_UART_Abort_IT), (196 bytes).
    Removing stm32f0xx_hal_uart.o(i.HAL_UART_DMAPause), (94 bytes).
    Removing stm32f0xx_hal_uart.o(i.HAL_UART_DMAResume), (86 bytes).
    Removing stm32f0xx_hal_uart.o(i.HAL_UART_DMAStop), (88 bytes).
    Removing stm32f0xx_hal_uart.o(i.HAL_UART_DeInit), (62 bytes).
    Removing stm32f0xx_hal_uart.o(i.HAL_UART_GetError), (4 bytes).
    Removing stm32f0xx_hal_uart.o(i.HAL_UART_GetState), (12 bytes).
    Removing stm32f0xx_hal_uart.o(i.HAL_UART_MspDeInit), (2 bytes).
    Removing stm32f0xx_hal_uart.o(i.HAL_UART_MspInit), (2 bytes).
    Removing stm32f0xx_hal_uart.o(i.HAL_UART_Receive_DMA), (164 bytes).
    Removing stm32f0xx_hal_uart.o(i.HAL_UART_Receive_IT), (160 bytes).
    Removing stm32f0xx_hal_uart.o(i.HAL_UART_RxHalfCpltCallback), (2 bytes).
    Removing stm32f0xx_hal_uart.o(i.HAL_UART_Transmit_DMA), (152 bytes).
    Removing stm32f0xx_hal_uart.o(i.HAL_UART_Transmit_IT), (88 bytes).
    Removing stm32f0xx_hal_uart.o(i.HAL_UART_TxHalfCpltCallback), (2 bytes).
    Removing stm32f0xx_hal_uart.o(i.UART_DMAError), (74 bytes).
    Removing stm32f0xx_hal_uart.o(i.UART_DMAReceiveCplt), (64 bytes).
    Removing stm32f0xx_hal_uart.o(i.UART_DMARxAbortCallback), (54 bytes).
    Removing stm32f0xx_hal_uart.o(i.UART_DMARxHalfCplt), (10 bytes).
    Removing stm32f0xx_hal_uart.o(i.UART_DMARxOnlyAbortCallback), (28 bytes).
    Removing stm32f0xx_hal_uart.o(i.UART_DMATransmitCplt), (48 bytes).
    Removing stm32f0xx_hal_uart.o(i.UART_DMATxAbortCallback), (54 bytes).
    Removing stm32f0xx_hal_uart.o(i.UART_DMATxHalfCplt), (10 bytes).
    Removing stm32f0xx_hal_uart.o(i.UART_DMATxOnlyAbortCallback), (22 bytes).
    Removing stm32f0xx_hal_uart.o(i.UART_EndTxTransfer), (18 bytes).
    Removing stm32f0xx_hal_uart_ex.o(.rev16_text), (4 bytes).
    Removing stm32f0xx_hal_uart_ex.o(.revsh_text), (4 bytes).
    Removing stm32f0xx_hal_uart_ex.o(i.HAL_LIN_Init), (146 bytes).
    Removing stm32f0xx_hal_uart_ex.o(i.HAL_LIN_SendBreak), (42 bytes).
    Removing stm32f0xx_hal_uart_ex.o(i.HAL_MultiProcessorEx_AddressLength_Set), (54 bytes).
    Removing stm32f0xx_hal_uart_ex.o(i.HAL_RS485Ex_Init), (144 bytes).
    Removing stm32f0xx_hal_uart_ex.o(i.HAL_UARTEx_DisableStopMode), (42 bytes).
    Removing stm32f0xx_hal_uart_ex.o(i.HAL_UARTEx_EnableStopMode), (42 bytes).
    Removing stm32f0xx_hal_uart_ex.o(i.HAL_UARTEx_StopModeWakeUpSourceConfig), (152 bytes).
    Removing stm32f0xx_hal_rcc.o(.rev16_text), (4 bytes).
    Removing stm32f0xx_hal_rcc.o(.revsh_text), (4 bytes).
    Removing stm32f0xx_hal_rcc.o(i.HAL_RCC_CSSCallback), (2 bytes).
    Removing stm32f0xx_hal_rcc.o(i.HAL_RCC_DeInit), (76 bytes).
    Removing stm32f0xx_hal_rcc.o(i.HAL_RCC_DisableCSS), (20 bytes).
    Removing stm32f0xx_hal_rcc.o(i.HAL_RCC_EnableCSS), (20 bytes).
    Removing stm32f0xx_hal_rcc.o(i.HAL_RCC_GetHCLKFreq), (12 bytes).
    Removing stm32f0xx_hal_rcc.o(i.HAL_RCC_GetOscConfig), (164 bytes).
    Removing stm32f0xx_hal_rcc.o(i.HAL_RCC_NMI_IRQHandler), (24 bytes).
    Removing stm32f0xx_hal_rcc_ex.o(.rev16_text), (4 bytes).
    Removing stm32f0xx_hal_rcc_ex.o(.revsh_text), (4 bytes).
    Removing stm32f0xx_hal_rcc_ex.o(i.HAL_RCCEx_CRSConfig), (72 bytes).
    Removing stm32f0xx_hal_rcc_ex.o(i.HAL_RCCEx_CRSGetSynchronizationInfo), (40 bytes).
    Removing stm32f0xx_hal_rcc_ex.o(i.HAL_RCCEx_CRSSoftwareSynchronizationGenerate), (16 bytes).
    Removing stm32f0xx_hal_rcc_ex.o(i.HAL_RCCEx_CRSWaitSynchronization), (120 bytes).
    Removing stm32f0xx_hal_rcc_ex.o(i.HAL_RCCEx_CRS_ErrorCallback), (2 bytes).
    Removing stm32f0xx_hal_rcc_ex.o(i.HAL_RCCEx_CRS_ExpectedSyncCallback), (2 bytes).
    Removing stm32f0xx_hal_rcc_ex.o(i.HAL_RCCEx_CRS_IRQHandler), (112 bytes).
    Removing stm32f0xx_hal_rcc_ex.o(i.HAL_RCCEx_CRS_SyncOkCallback), (2 bytes).
    Removing stm32f0xx_hal_rcc_ex.o(i.HAL_RCCEx_CRS_SyncWarnCallback), (2 bytes).
    Removing stm32f0xx_hal_rcc_ex.o(i.HAL_RCCEx_GetPeriphCLKConfig), (92 bytes).
    Removing stm32f0xx_hal_rcc_ex.o(i.HAL_RCCEx_GetPeriphCLKFreq), (308 bytes).
    Removing stm32f0xx_hal.o(.rev16_text), (4 bytes).
    Removing stm32f0xx_hal.o(.revsh_text), (4 bytes).
    Removing stm32f0xx_hal.o(i.HAL_DBGMCU_DisableDBGStandbyMode), (16 bytes).
    Removing stm32f0xx_hal.o(i.HAL_DBGMCU_DisableDBGStopMode), (16 bytes).
    Removing stm32f0xx_hal.o(i.HAL_DBGMCU_EnableDBGStandbyMode), (16 bytes).
    Removing stm32f0xx_hal.o(i.HAL_DBGMCU_EnableDBGStopMode), (16 bytes).
    Removing stm32f0xx_hal.o(i.HAL_DeInit), (36 bytes).
    Removing stm32f0xx_hal.o(i.HAL_GetDEVID), (16 bytes).
    Removing stm32f0xx_hal.o(i.HAL_GetHalVersion), (8 bytes).
    Removing stm32f0xx_hal.o(i.HAL_GetREVID), (12 bytes).
    Removing stm32f0xx_hal.o(i.HAL_GetUIDw0), (12 bytes).
    Removing stm32f0xx_hal.o(i.HAL_GetUIDw1), (12 bytes).
    Removing stm32f0xx_hal.o(i.HAL_GetUIDw2), (12 bytes).
    Removing stm32f0xx_hal.o(i.HAL_InitTick), (34 bytes).
    Removing stm32f0xx_hal.o(i.HAL_MspDeInit), (2 bytes).
    Removing stm32f0xx_hal.o(i.HAL_MspInit), (2 bytes).
    Removing stm32f0xx_hal.o(i.HAL_ResumeTick), (16 bytes).
    Removing stm32f0xx_hal.o(i.HAL_SuspendTick), (16 bytes).
    Removing stm32f0xx_hal_i2c.o(.rev16_text), (4 bytes).
    Removing stm32f0xx_hal_i2c.o(.revsh_text), (4 bytes).
    Removing stm32f0xx_hal_i2c.o(i.HAL_I2C_AbortCpltCallback), (2 bytes).
    Removing stm32f0xx_hal_i2c.o(i.HAL_I2C_AddrCallback), (2 bytes).
    Removing stm32f0xx_hal_i2c.o(i.HAL_I2C_DeInit), (52 bytes).
    Removing stm32f0xx_hal_i2c.o(i.HAL_I2C_DisableListen_IT), (48 bytes).
    Removing stm32f0xx_hal_i2c.o(i.HAL_I2C_ER_IRQHandler), (88 bytes).
    Removing stm32f0xx_hal_i2c.o(i.HAL_I2C_EV_IRQHandler), (16 bytes).
    Removing stm32f0xx_hal_i2c.o(i.HAL_I2C_EnableListen_IT), (40 bytes).
    Removing stm32f0xx_hal_i2c.o(i.HAL_I2C_ErrorCallback), (2 bytes).
    Removing stm32f0xx_hal_i2c.o(i.HAL_I2C_GetError), (4 bytes).
    Removing stm32f0xx_hal_i2c.o(i.HAL_I2C_GetMode), (6 bytes).
    Removing stm32f0xx_hal_i2c.o(i.HAL_I2C_GetState), (6 bytes).
    Removing stm32f0xx_hal_i2c.o(i.HAL_I2C_Init), (180 bytes).
    Removing stm32f0xx_hal_i2c.o(i.HAL_I2C_IsDeviceReady), (284 bytes).
    Removing stm32f0xx_hal_i2c.o(i.HAL_I2C_ListenCpltCallback), (2 bytes).
    Removing stm32f0xx_hal_i2c.o(i.HAL_I2C_MasterRxCpltCallback), (2 bytes).
    Removing stm32f0xx_hal_i2c.o(i.HAL_I2C_MasterTxCpltCallback), (2 bytes).
    Removing stm32f0xx_hal_i2c.o(i.HAL_I2C_Master_Abort_IT), (88 bytes).
    Removing stm32f0xx_hal_i2c.o(i.HAL_I2C_Master_Receive), (280 bytes).
    Removing stm32f0xx_hal_i2c.o(i.HAL_I2C_Master_Receive_DMA), (236 bytes).
    Removing stm32f0xx_hal_i2c.o(i.HAL_I2C_Master_Receive_IT), (124 bytes).
    Removing stm32f0xx_hal_i2c.o(i.HAL_I2C_Master_Sequential_Receive_IT), (116 bytes).
    Removing stm32f0xx_hal_i2c.o(i.HAL_I2C_Master_Sequential_Transmit_IT), (116 bytes).
    Removing stm32f0xx_hal_i2c.o(i.HAL_I2C_Master_Transmit), (280 bytes).
    Removing stm32f0xx_hal_i2c.o(i.HAL_I2C_Master_Transmit_DMA), (240 bytes).
    Removing stm32f0xx_hal_i2c.o(i.HAL_I2C_Master_Transmit_IT), (124 bytes).
    Removing stm32f0xx_hal_i2c.o(i.HAL_I2C_MemRxCpltCallback), (2 bytes).
    Removing stm32f0xx_hal_i2c.o(i.HAL_I2C_MemTxCpltCallback), (2 bytes).
    Removing stm32f0xx_hal_i2c.o(i.HAL_I2C_Mem_Read), (344 bytes).
    Removing stm32f0xx_hal_i2c.o(i.HAL_I2C_Mem_Read_DMA), (248 bytes).
    Removing stm32f0xx_hal_i2c.o(i.HAL_I2C_Mem_Read_IT), (188 bytes).
    Removing stm32f0xx_hal_i2c.o(i.HAL_I2C_Mem_Write), (340 bytes).
    Removing stm32f0xx_hal_i2c.o(i.HAL_I2C_Mem_Write_DMA), (244 bytes).
    Removing stm32f0xx_hal_i2c.o(i.HAL_I2C_Mem_Write_IT), (184 bytes).
    Removing stm32f0xx_hal_i2c.o(i.HAL_I2C_MspDeInit), (2 bytes).
    Removing stm32f0xx_hal_i2c.o(i.HAL_I2C_MspInit), (2 bytes).
    Removing stm32f0xx_hal_i2c.o(i.HAL_I2C_SlaveRxCpltCallback), (2 bytes).
    Removing stm32f0xx_hal_i2c.o(i.HAL_I2C_SlaveTxCpltCallback), (2 bytes).
    Removing stm32f0xx_hal_i2c.o(i.HAL_I2C_Slave_Receive), (292 bytes).
    Removing stm32f0xx_hal_i2c.o(i.HAL_I2C_Slave_Receive_DMA), (156 bytes).
    Removing stm32f0xx_hal_i2c.o(i.HAL_I2C_Slave_Receive_IT), (88 bytes).
    Removing stm32f0xx_hal_i2c.o(i.HAL_I2C_Slave_Sequential_Receive_IT), (144 bytes).
    Removing stm32f0xx_hal_i2c.o(i.HAL_I2C_Slave_Sequential_Transmit_IT), (144 bytes).
    Removing stm32f0xx_hal_i2c.o(i.HAL_I2C_Slave_Transmit), (300 bytes).
    Removing stm32f0xx_hal_i2c.o(i.HAL_I2C_Slave_Transmit_DMA), (156 bytes).
    Removing stm32f0xx_hal_i2c.o(i.HAL_I2C_Slave_Transmit_IT), (88 bytes).
    Removing stm32f0xx_hal_i2c.o(i.I2C_DMAAbort), (52 bytes).
    Removing stm32f0xx_hal_i2c.o(i.I2C_DMAError), (24 bytes).
    Removing stm32f0xx_hal_i2c.o(i.I2C_DMAMasterReceiveCplt), (68 bytes).
    Removing stm32f0xx_hal_i2c.o(i.I2C_DMAMasterTransmitCplt), (68 bytes).
    Removing stm32f0xx_hal_i2c.o(i.I2C_DMASlaveReceiveCplt), (2 bytes).
    Removing stm32f0xx_hal_i2c.o(i.I2C_DMASlaveTransmitCplt), (2 bytes).
    Removing stm32f0xx_hal_i2c.o(i.I2C_Disable_IRQ), (86 bytes).
    Removing stm32f0xx_hal_i2c.o(i.I2C_Enable_IRQ), (100 bytes).
    Removing stm32f0xx_hal_i2c.o(i.I2C_Flush_TXDR), (34 bytes).
    Removing stm32f0xx_hal_i2c.o(i.I2C_ITAddrCplt), (122 bytes).
    Removing stm32f0xx_hal_i2c.o(i.I2C_ITError), (204 bytes).
    Removing stm32f0xx_hal_i2c.o(i.I2C_ITListenCplt), (96 bytes).
    Removing stm32f0xx_hal_i2c.o(i.I2C_ITMasterCplt), (160 bytes).
    Removing stm32f0xx_hal_i2c.o(i.I2C_ITMasterSequentialCplt), (70 bytes).
    Removing stm32f0xx_hal_i2c.o(i.I2C_ITSlaveCplt), (232 bytes).
    Removing stm32f0xx_hal_i2c.o(i.I2C_ITSlaveSequentialCplt), (74 bytes).
    Removing stm32f0xx_hal_i2c.o(i.I2C_IsAcknowledgeFailed), (116 bytes).
    Removing stm32f0xx_hal_i2c.o(i.I2C_Master_ISR_DMA), (194 bytes).
    Removing stm32f0xx_hal_i2c.o(i.I2C_Master_ISR_IT), (296 bytes).
    Removing stm32f0xx_hal_i2c.o(i.I2C_RequestMemoryRead), (106 bytes).
    Removing stm32f0xx_hal_i2c.o(i.I2C_RequestMemoryWrite), (106 bytes).
    Removing stm32f0xx_hal_i2c.o(i.I2C_Slave_ISR_DMA), (104 bytes).
    Removing stm32f0xx_hal_i2c.o(i.I2C_Slave_ISR_IT), (280 bytes).
    Removing stm32f0xx_hal_i2c.o(i.I2C_TransferConfig), (36 bytes).
    Removing stm32f0xx_hal_i2c.o(i.I2C_WaitOnFlagUntilTimeout), (72 bytes).
    Removing stm32f0xx_hal_i2c.o(i.I2C_WaitOnRXNEFlagUntilTimeout), (120 bytes).
    Removing stm32f0xx_hal_i2c.o(i.I2C_WaitOnSTOPFlagUntilTimeout), (78 bytes).
    Removing stm32f0xx_hal_i2c.o(i.I2C_WaitOnTXISFlagUntilTimeout), (82 bytes).
    Removing stm32f0xx_hal_i2c_ex.o(.rev16_text), (4 bytes).
    Removing stm32f0xx_hal_i2c_ex.o(.revsh_text), (4 bytes).
    Removing stm32f0xx_hal_i2c_ex.o(i.HAL_I2CEx_ConfigAnalogFilter), (74 bytes).
    Removing stm32f0xx_hal_i2c_ex.o(i.HAL_I2CEx_ConfigDigitalFilter), (72 bytes).
    Removing stm32f0xx_hal_i2c_ex.o(i.HAL_I2CEx_DisableFastModePlus), (36 bytes).
    Removing stm32f0xx_hal_i2c_ex.o(i.HAL_I2CEx_DisableWakeUp), (66 bytes).
    Removing stm32f0xx_hal_i2c_ex.o(i.HAL_I2CEx_EnableFastModePlus), (36 bytes).
    Removing stm32f0xx_hal_i2c_ex.o(i.HAL_I2CEx_EnableWakeUp), (66 bytes).
    Removing stm32f0xx_hal_gpio.o(.rev16_text), (4 bytes).
    Removing stm32f0xx_hal_gpio.o(.revsh_text), (4 bytes).
    Removing stm32f0xx_hal_gpio.o(i.HAL_GPIO_DeInit), (228 bytes).
    Removing stm32f0xx_hal_gpio.o(i.HAL_GPIO_LockPin), (36 bytes).
    Removing stm32f0xx_hal_dma.o(.rev16_text), (4 bytes).
    Removing stm32f0xx_hal_dma.o(.revsh_text), (4 bytes).
    Removing stm32f0xx_hal_dma.o(i.HAL_DMA_Abort), (44 bytes).
    Removing stm32f0xx_hal_dma.o(i.HAL_DMA_DeInit), (66 bytes).
    Removing stm32f0xx_hal_dma.o(i.HAL_DMA_GetError), (4 bytes).
    Removing stm32f0xx_hal_dma.o(i.HAL_DMA_GetState), (6 bytes).
    Removing stm32f0xx_hal_dma.o(i.HAL_DMA_PollForTransfer), (176 bytes).
    Removing stm32f0xx_hal_dma.o(i.HAL_DMA_RegisterCallback), (72 bytes).
    Removing stm32f0xx_hal_dma.o(i.HAL_DMA_Start), (74 bytes).
    Removing stm32f0xx_hal_dma.o(i.HAL_DMA_UnRegisterCallback), (78 bytes).
    Removing stm32f0xx_hal_cortex.o(.rev16_text), (4 bytes).
    Removing stm32f0xx_hal_cortex.o(.revsh_text), (4 bytes).
    Removing stm32f0xx_hal_cortex.o(i.HAL_NVIC_ClearPendingIRQ), (20 bytes).
    Removing stm32f0xx_hal_cortex.o(i.HAL_NVIC_DisableIRQ), (20 bytes).
    Removing stm32f0xx_hal_cortex.o(i.HAL_NVIC_GetPendingIRQ), (28 bytes).
    Removing stm32f0xx_hal_cortex.o(i.HAL_NVIC_GetPriority), (52 bytes).
    Removing stm32f0xx_hal_cortex.o(i.HAL_NVIC_SetPendingIRQ), (20 bytes).
    Removing stm32f0xx_hal_cortex.o(i.HAL_SYSTICK_CLKSourceConfig), (24 bytes).
    Removing stm32f0xx_hal_cortex.o(i.HAL_SYSTICK_Callback), (2 bytes).
    Removing stm32f0xx_hal_cortex.o(i.HAL_SYSTICK_Config), (48 bytes).
    Removing stm32f0xx_hal_cortex.o(i.HAL_SYSTICK_IRQHandler), (8 bytes).
    Removing stm32f0xx_hal_pwr.o(.rev16_text), (4 bytes).
    Removing stm32f0xx_hal_pwr.o(.revsh_text), (4 bytes).
    Removing stm32f0xx_hal_pwr.o(i.HAL_PWR_DeInit), (24 bytes).
    Removing stm32f0xx_hal_pwr.o(i.HAL_PWR_DisableBkUpAccess), (16 bytes).
    Removing stm32f0xx_hal_pwr.o(i.HAL_PWR_DisableSEVOnPend), (16 bytes).
    Removing stm32f0xx_hal_pwr.o(i.HAL_PWR_DisableSleepOnExit), (16 bytes).
    Removing stm32f0xx_hal_pwr.o(i.HAL_PWR_DisableWakeUpPin), (16 bytes).
    Removing stm32f0xx_hal_pwr.o(i.HAL_PWR_EnableSEVOnPend), (16 bytes).
    Removing stm32f0xx_hal_pwr.o(i.HAL_PWR_EnableSleepOnExit), (16 bytes).
    Removing stm32f0xx_hal_pwr.o(i.HAL_PWR_EnableWakeUpPin), (16 bytes).
    Removing stm32f0xx_hal_pwr.o(i.HAL_PWR_EnterSLEEPMode), (32 bytes).
    Removing stm32f0xx_hal_pwr.o(i.HAL_PWR_EnterSTANDBYMode), (32 bytes).
    Removing stm32f0xx_hal_pwr.o(i.HAL_PWR_EnterSTOPMode), (52 bytes).
    Removing stm32f0xx_hal_pwr_ex.o(.rev16_text), (4 bytes).
    Removing stm32f0xx_hal_pwr_ex.o(.revsh_text), (4 bytes).
    Removing stm32f0xx_hal_pwr_ex.o(i.HAL_PWREx_DisableVddio2Monitor), (32 bytes).
    Removing stm32f0xx_hal_pwr_ex.o(i.HAL_PWREx_EnableVddio2Monitor), (24 bytes).
    Removing stm32f0xx_hal_pwr_ex.o(i.HAL_PWREx_Vddio2MonitorCallback), (2 bytes).
    Removing stm32f0xx_hal_pwr_ex.o(i.HAL_PWREx_Vddio2Monitor_IRQHandler), (24 bytes).
    Removing stm32f0xx_hal_pwr_ex.o(i.HAL_PWR_ConfigPVD), (104 bytes).
    Removing stm32f0xx_hal_pwr_ex.o(i.HAL_PWR_DisablePVD), (16 bytes).
    Removing stm32f0xx_hal_pwr_ex.o(i.HAL_PWR_EnablePVD), (16 bytes).
    Removing stm32f0xx_hal_pwr_ex.o(i.HAL_PWR_PVDCallback), (2 bytes).
    Removing stm32f0xx_hal_pwr_ex.o(i.HAL_PWR_PVD_IRQHandler), (28 bytes).
    Removing stm32f0xx_hal_flash.o(.rev16_text), (4 bytes).
    Removing stm32f0xx_hal_flash.o(.revsh_text), (4 bytes).
    Removing stm32f0xx_hal_flash.o(i.FLASH_Program_HalfWord), (32 bytes).
    Removing stm32f0xx_hal_flash.o(i.FLASH_SetErrorCode), (56 bytes).
    Removing stm32f0xx_hal_flash.o(i.FLASH_WaitForLastOperation), (80 bytes).
    Removing stm32f0xx_hal_flash.o(i.HAL_FLASH_EndOfOperationCallback), (2 bytes).
    Removing stm32f0xx_hal_flash.o(i.HAL_FLASH_GetError), (12 bytes).
    Removing stm32f0xx_hal_flash.o(i.HAL_FLASH_IRQHandler), (268 bytes).
    Removing stm32f0xx_hal_flash.o(i.HAL_FLASH_Lock), (20 bytes).
    Removing stm32f0xx_hal_flash.o(i.HAL_FLASH_OB_Launch), (32 bytes).
    Removing stm32f0xx_hal_flash.o(i.HAL_FLASH_OB_Lock), (20 bytes).
    Removing stm32f0xx_hal_flash.o(i.HAL_FLASH_OB_Unlock), (36 bytes).
    Removing stm32f0xx_hal_flash.o(i.HAL_FLASH_OperationErrorCallback), (2 bytes).
    Removing stm32f0xx_hal_flash.o(i.HAL_FLASH_Program), (124 bytes).
    Removing stm32f0xx_hal_flash.o(i.HAL_FLASH_Program_IT), (100 bytes).
    Removing stm32f0xx_hal_flash.o(i.HAL_FLASH_Unlock), (40 bytes).
    Removing stm32f0xx_hal_flash.o(.bss), (32 bytes).
    Removing stm32f0xx_hal_flash_ex.o(.rev16_text), (4 bytes).
    Removing stm32f0xx_hal_flash_ex.o(.revsh_text), (4 bytes).
    Removing stm32f0xx_hal_flash_ex.o(i.FLASH_MassErase), (36 bytes).
    Removing stm32f0xx_hal_flash_ex.o(i.FLASH_OB_DisableWRP), (164 bytes).
    Removing stm32f0xx_hal_flash_ex.o(i.FLASH_OB_EnableWRP), (164 bytes).
    Removing stm32f0xx_hal_flash_ex.o(i.FLASH_OB_GetRDP), (32 bytes).
    Removing stm32f0xx_hal_flash_ex.o(i.FLASH_OB_RDP_LevelConfig), (96 bytes).
    Removing stm32f0xx_hal_flash_ex.o(i.FLASH_PageErase), (36 bytes).
    Removing stm32f0xx_hal_flash_ex.o(i.HAL_FLASHEx_Erase), (160 bytes).
    Removing stm32f0xx_hal_flash_ex.o(i.HAL_FLASHEx_Erase_IT), (88 bytes).
    Removing stm32f0xx_hal_flash_ex.o(i.HAL_FLASHEx_OBErase), (80 bytes).
    Removing stm32f0xx_hal_flash_ex.o(i.HAL_FLASHEx_OBGetConfig), (36 bytes).
    Removing stm32f0xx_hal_flash_ex.o(i.HAL_FLASHEx_OBGetUserData), (28 bytes).
    Removing stm32f0xx_hal_flash_ex.o(i.HAL_FLASHEx_OBProgram), (204 bytes).
    Removing system_stm32f0xx.o(.rev16_text), (4 bytes).
    Removing system_stm32f0xx.o(.revsh_text), (4 bytes).
    Removing system_stm32f0xx.o(i.SystemCoreClockUpdate), (112 bytes).
    Removing main.o(.ARM.exidx), (8 bytes).
    Removing main.o(.ARM.exidx), (8 bytes).
    Removing main_controller.o(.ARM.exidx), (8 bytes).
    Removing main_controller.o(.ARM.exidx), (8 bytes).
    Removing main_controller.o(.ARM.exidx), (8 bytes).
    Removing main_controller.o(.ARM.exidx), (8 bytes).
    Removing main_controller.o(.ARM.exidx), (8 bytes).
    Removing main_controller.o(.ARM.exidx), (8 bytes).
    Removing main_controller.o(.ARM.exidx), (8 bytes).
    Removing main_controller.o(.ARM.exidx), (8 bytes).
    Removing main_controller.o(.ARM.exidx), (8 bytes).

840 unused section(s) (total 40306 bytes) removed from the image.

==============================================================================

Image Symbol Table

    Local Symbols

    Symbol Name                              Value     Ov Type        Size  Object(Section)

    ../../../edgfe/lib_src/guard.c           0x00000000   Number         0  cxa_guard_release.o ABSOLUTE
    ../../../edgfe/lib_src/guard.c           0x00000000   Number         0  cxa_guard_acquire.o ABSOLUTE
    ../Core/Src/adc.c                        0x00000000   Number         0  adc.o ABSOLUTE
    ../Core/Src/crc.c                        0x00000000   Number         0  crc.o ABSOLUTE
    ../Core/Src/dma.c                        0x00000000   Number         0  dma.o ABSOLUTE
    ../Core/Src/gpio.c                       0x00000000   Number         0  gpio.o ABSOLUTE
    ../Core/Src/main.cpp                     0x00000000   Number         0  main.o ABSOLUTE
    ../Core/Src/rtc.c                        0x00000000   Number         0  rtc.o ABSOLUTE
    ../Core/Src/spi.c                        0x00000000   Number         0  spi.o ABSOLUTE
    ../Core/Src/stm32f0xx_hal_msp.c          0x00000000   Number         0  stm32f0xx_hal_msp.o ABSOLUTE
    ../Core/Src/stm32f0xx_hal_timebase_tim.c 0x00000000   Number         0  stm32f0xx_hal_timebase_tim.o ABSOLUTE
    ../Core/Src/stm32f0xx_it.c               0x00000000   Number         0  stm32f0xx_it.o ABSOLUTE
    ../Core/Src/system_stm32f0xx.c           0x00000000   Number         0  system_stm32f0xx.o ABSOLUTE
    ../Core/Src/tim.c                        0x00000000   Number         0  tim.o ABSOLUTE
    ../Core/Src/usart.c                      0x00000000   Number         0  usart.o ABSOLUTE
    ../Drivers/STM32F0xx_HAL_Driver/Src/stm32f0xx_hal.c 0x00000000   Number         0  stm32f0xx_hal.o ABSOLUTE
    ../Drivers/STM32F0xx_HAL_Driver/Src/stm32f0xx_hal_adc.c 0x00000000   Number         0  stm32f0xx_hal_adc.o ABSOLUTE
    ../Drivers/STM32F0xx_HAL_Driver/Src/stm32f0xx_hal_adc_ex.c 0x00000000   Number         0  stm32f0xx_hal_adc_ex.o ABSOLUTE
    ../Drivers/STM32F0xx_HAL_Driver/Src/stm32f0xx_hal_cortex.c 0x00000000   Number         0  stm32f0xx_hal_cortex.o ABSOLUTE
    ../Drivers/STM32F0xx_HAL_Driver/Src/stm32f0xx_hal_crc.c 0x00000000   Number         0  stm32f0xx_hal_crc.o ABSOLUTE
    ../Drivers/STM32F0xx_HAL_Driver/Src/stm32f0xx_hal_crc_ex.c 0x00000000   Number         0  stm32f0xx_hal_crc_ex.o ABSOLUTE
    ../Drivers/STM32F0xx_HAL_Driver/Src/stm32f0xx_hal_dma.c 0x00000000   Number         0  stm32f0xx_hal_dma.o ABSOLUTE
    ../Drivers/STM32F0xx_HAL_Driver/Src/stm32f0xx_hal_flash.c 0x00000000   Number         0  stm32f0xx_hal_flash.o ABSOLUTE
    ../Drivers/STM32F0xx_HAL_Driver/Src/stm32f0xx_hal_flash_ex.c 0x00000000   Number         0  stm32f0xx_hal_flash_ex.o ABSOLUTE
    ../Drivers/STM32F0xx_HAL_Driver/Src/stm32f0xx_hal_gpio.c 0x00000000   Number         0  stm32f0xx_hal_gpio.o ABSOLUTE
    ../Drivers/STM32F0xx_HAL_Driver/Src/stm32f0xx_hal_i2c.c 0x00000000   Number         0  stm32f0xx_hal_i2c.o ABSOLUTE
    ../Drivers/STM32F0xx_HAL_Driver/Src/stm32f0xx_hal_i2c_ex.c 0x00000000   Number         0  stm32f0xx_hal_i2c_ex.o ABSOLUTE
    ../Drivers/STM32F0xx_HAL_Driver/Src/stm32f0xx_hal_pwr.c 0x00000000   Number         0  stm32f0xx_hal_pwr.o ABSOLUTE
    ../Drivers/STM32F0xx_HAL_Driver/Src/stm32f0xx_hal_pwr_ex.c 0x00000000   Number         0  stm32f0xx_hal_pwr_ex.o ABSOLUTE
    ../Drivers/STM32F0xx_HAL_Driver/Src/stm32f0xx_hal_rcc.c 0x00000000   Number         0  stm32f0xx_hal_rcc.o ABSOLUTE
    ../Drivers/STM32F0xx_HAL_Driver/Src/stm32f0xx_hal_rcc_ex.c 0x00000000   Number         0  stm32f0xx_hal_rcc_ex.o ABSOLUTE
    ../Drivers/STM32F0xx_HAL_Driver/Src/stm32f0xx_hal_rtc.c 0x00000000   Number         0  stm32f0xx_hal_rtc.o ABSOLUTE
    ../Drivers/STM32F0xx_HAL_Driver/Src/stm32f0xx_hal_rtc_ex.c 0x00000000   Number         0  stm32f0xx_hal_rtc_ex.o ABSOLUTE
    ../Drivers/STM32F0xx_HAL_Driver/Src/stm32f0xx_hal_spi.c 0x00000000   Number         0  stm32f0xx_hal_spi.o ABSOLUTE
    ../Drivers/STM32F0xx_HAL_Driver/Src/stm32f0xx_hal_spi_ex.c 0x00000000   Number         0  stm32f0xx_hal_spi_ex.o ABSOLUTE
    ../Drivers/STM32F0xx_HAL_Driver/Src/stm32f0xx_hal_tim.c 0x00000000   Number         0  stm32f0xx_hal_tim.o ABSOLUTE
    ../Drivers/STM32F0xx_HAL_Driver/Src/stm32f0xx_hal_tim_ex.c 0x00000000   Number         0  stm32f0xx_hal_tim_ex.o ABSOLUTE
    ../Drivers/STM32F0xx_HAL_Driver/Src/stm32f0xx_hal_uart.c 0x00000000   Number         0  stm32f0xx_hal_uart.o ABSOLUTE
    ../Drivers/STM32F0xx_HAL_Driver/Src/stm32f0xx_hal_uart_ex.c 0x00000000   Number         0  stm32f0xx_hal_uart_ex.o ABSOLUTE
    ../clib/../cmprslib/zerorunl2.c          0x00000000   Number         0  __dczerorl2.o ABSOLUTE
    ../clib/angel/boardlib.s                 0x00000000   Number         0  boardinit1.o ABSOLUTE
    ../clib/angel/boardlib.s                 0x00000000   Number         0  boardshut.o ABSOLUTE
    ../clib/angel/boardlib.s                 0x00000000   Number         0  boardinit3.o ABSOLUTE
    ../clib/angel/boardlib.s                 0x00000000   Number         0  boardinit2.o ABSOLUTE
    ../clib/angel/handlers.s                 0x00000000   Number         0  __scatter_zi.o ABSOLUTE
    ../clib/angel/kernel.s                   0x00000000   Number         0  __rtentry.o ABSOLUTE
    ../clib/angel/kernel.s                   0x00000000   Number         0  rtexit2.o ABSOLUTE
    ../clib/angel/kernel.s                   0x00000000   Number         0  __rtentry2.o ABSOLUTE
    ../clib/angel/kernel.s                   0x00000000   Number         0  rtexit.o ABSOLUTE
    ../clib/angel/kernel.s                   0x00000000   Number         0  __rtentry4.o ABSOLUTE
    ../clib/angel/rt.s                       0x00000000   Number         0  rt_ddtor_pointer_addr.o ABSOLUTE
    ../clib/angel/rt.s                       0x00000000   Number         0  aeabi_idiv0.o ABSOLUTE
    ../clib/angel/rt.s                       0x00000000   Number         0  rt_ctype_table.o ABSOLUTE
    ../clib/angel/rt.s                       0x00000000   Number         0  aeabi_idiv0_sigfpe.o ABSOLUTE
    ../clib/angel/rt.s                       0x00000000   Number         0  rt_errno_addr_intlibspace.o ABSOLUTE
    ../clib/angel/rt.s                       0x00000000   Number         0  rt_errno_addr.o ABSOLUTE
    ../clib/angel/rt.s                       0x00000000   Number         0  rt_raise.o ABSOLUTE
    ../clib/angel/rt.s                       0x00000000   Number         0  rt_ddtor_pointer_addr_intlibspace.o ABSOLUTE
    ../clib/angel/rt.s                       0x00000000   Number         0  rt_locale_intlibspace.o ABSOLUTE
    ../clib/angel/rt.s                       0x00000000   Number         0  rt_locale.o ABSOLUTE
    ../clib/angel/rt.s                       0x00000000   Number         0  rt_heap_descriptor_intlibspace.o ABSOLUTE
    ../clib/angel/rt.s                       0x00000000   Number         0  rt_heap_descriptor.o ABSOLUTE
    ../clib/angel/rt.s                       0x00000000   Number         0  rt_div0.o ABSOLUTE
    ../clib/angel/scatterp.s                 0x00000000   Number         0  __scatter.o ABSOLUTE
    ../clib/angel/startup.s                  0x00000000   Number         0  __main.o ABSOLUTE
    ../clib/angel/sys.s                      0x00000000   Number         0  libspace.o ABSOLUTE
    ../clib/angel/sys.s                      0x00000000   Number         0  tempstk.o ABSOLUTE
    ../clib/angel/sys.s                      0x00000000   Number         0  use_no_semi.o ABSOLUTE
    ../clib/angel/sys.s                      0x00000000   Number         0  indicate_semi.o ABSOLUTE
    ../clib/angel/sys.s                      0x00000000   Number         0  mutex_dummy.o ABSOLUTE
    ../clib/angel/sys.s                      0x00000000   Number         0  sys_stackheap_outer.o ABSOLUTE
    ../clib/angel/sysapp.c                   0x00000000   Number         0  sys_exit.o ABSOLUTE
    ../clib/angel/sysapp.c                   0x00000000   Number         0  sys_command.o ABSOLUTE
    ../clib/angel/sysapp.c                   0x00000000   Number         0  sys_wrch.o ABSOLUTE
    ../clib/arm_runtime.c                    0x00000000   Number         0  init_aeabi.o ABSOLUTE
    ../clib/arm_runtime.c                    0x00000000   Number         0  init_aeabi.o ABSOLUTE
    ../clib/armsys.c                         0x00000000   Number         0  _get_argv_nomalloc.o ABSOLUTE
    ../clib/armsys.c                         0x00000000   Number         0  argv_veneer.o ABSOLUTE
    ../clib/armsys.c                         0x00000000   Number         0  no_argv.o ABSOLUTE
    ../clib/armsys.c                         0x00000000   Number         0  _get_argv.o ABSOLUTE
    ../clib/division.c                       0x00000000   Number         0  rtudiv10.o ABSOLUTE
    ../clib/division.s                       0x00000000   Number         0  aeabi_sdiv_div0.o ABSOLUTE
    ../clib/division.s                       0x00000000   Number         0  aeabi_sdiv.o ABSOLUTE
    ../clib/heap1.c                          0x00000000   Number         0  h1_extend_mt.o ABSOLUTE
    ../clib/heap1.c                          0x00000000   Number         0  h1_extend.o ABSOLUTE
    ../clib/heap1.c                          0x00000000   Number         0  h1_alloc_mt.o ABSOLUTE
    ../clib/heap1.c                          0x00000000   Number         0  h1_alloc.o ABSOLUTE
    ../clib/heap1.c                          0x00000000   Number         0  h1_final_mt.o ABSOLUTE
    ../clib/heap1.c                          0x00000000   Number         0  h1_free_mt.o ABSOLUTE
    ../clib/heap1.c                          0x00000000   Number         0  h1_init_mt.o ABSOLUTE
    ../clib/heap1.c                          0x00000000   Number         0  h1_free.o ABSOLUTE
    ../clib/heap1.c                          0x00000000   Number         0  h1_init.o ABSOLUTE
    ../clib/heap1.c                          0x00000000   Number         0  h1_final.o ABSOLUTE
    ../clib/heap2.c                          0x00000000   Number         0  heap2mt.o ABSOLUTE
    ../clib/heap2.c                          0x00000000   Number         0  heap2.o ABSOLUTE
    ../clib/heap2.c                          0x00000000   Number         0  fdtree.o ABSOLUTE
    ../clib/heapalloc.c                      0x00000000   Number         0  maybetermalloc1.o ABSOLUTE
    ../clib/heapalloc.c                      0x00000000   Number         0  maybetermalloc1.o ABSOLUTE
    ../clib/heapalloc.c                      0x00000000   Number         0  heapstubs.o ABSOLUTE
    ../clib/heapalloc.c                      0x00000000   Number         0  hguard.o ABSOLUTE
    ../clib/heapalloc.c                      0x00000000   Number         0  hrguard.o ABSOLUTE
    ../clib/heapalloc.c                      0x00000000   Number         0  init_alloc.o ABSOLUTE
    ../clib/heapalloc.c                      0x00000000   Number         0  malloc.o ABSOLUTE
    ../clib/heapalloc.c                      0x00000000   Number         0  term_alloc.o ABSOLUTE
    ../clib/heapalloc.c                      0x00000000   Number         0  free.o ABSOLUTE
    ../clib/heapalloc.c                      0x00000000   Number         0  maybetermalloc2.o ABSOLUTE
    ../clib/heapalloc.c                      0x00000000   Number         0  maybetermalloc2.o ABSOLUTE
    ../clib/heapaux.c                        0x00000000   Number         0  heapauxa.o ABSOLUTE
    ../clib/heapaux.c                        0x00000000   Number         0  heapauxi.o ABSOLUTE
    ../clib/libinit.s                        0x00000000   Number         0  libshutdown2.o ABSOLUTE
    ../clib/libinit.s                        0x00000000   Number         0  libshutdown.o ABSOLUTE
    ../clib/libinit.s                        0x00000000   Number         0  libinit.o ABSOLUTE
    ../clib/libinit.s                        0x00000000   Number         0  libinit2.o ABSOLUTE
    ../clib/locale.s                         0x00000000   Number         0  lc_ctype_c.o ABSOLUTE
    ../clib/longlong.c                       0x00000000   Number         0  llushr.o ABSOLUTE
    ../clib/memcpset.c                       0x00000000   Number         0  rt_memcpy.o ABSOLUTE
    ../clib/memcpset.c                       0x00000000   Number         0  rt_memcpy.o ABSOLUTE
    ../clib/memcpset.c                       0x00000000   Number         0  rt_memclr.o ABSOLUTE
    ../clib/misc.s                           0x00000000   Number         0  printf_stubs.o ABSOLUTE
    ../clib/printf.c                         0x00000000   Number         0  __printf_ss.o ABSOLUTE
    ../clib/printf.c                         0x00000000   Number         0  __printf_flags_ss.o ABSOLUTE
    ../clib/printf.c                         0x00000000   Number         0  __printf_wp.o ABSOLUTE
    ../clib/printf.c                         0x00000000   Number         0  _printf_char_common.o ABSOLUTE
    ../clib/printf.c                         0x00000000   Number         0  __printf_flags_wp.o ABSOLUTE
    ../clib/printf.c                         0x00000000   Number         0  _printf_intcommon.o ABSOLUTE
    ../clib/printf.c                         0x00000000   Number         0  __printf_nopercent.o ABSOLUTE
    ../clib/printf.c                         0x00000000   Number         0  __printf_ss_wp.o ABSOLUTE
    ../clib/printf.c                         0x00000000   Number         0  _printf_str.o ABSOLUTE
    ../clib/printf.c                         0x00000000   Number         0  __2sprintf.o ABSOLUTE
    ../clib/printf.c                         0x00000000   Number         0  noretval__2sprintf.o ABSOLUTE
    ../clib/printf.c                         0x00000000   Number         0  __printf.o ABSOLUTE
    ../clib/printf.c                         0x00000000   Number         0  _printf_dec.o ABSOLUTE
    ../clib/printf.c                         0x00000000   Number         0  _printf_char.o ABSOLUTE
    ../clib/printf.c                         0x00000000   Number         0  _printf_hex_ll.o ABSOLUTE
    ../clib/printf.c                         0x00000000   Number         0  _printf_hex_int.o ABSOLUTE
    ../clib/printf.c                         0x00000000   Number         0  _printf_hex_int_ll.o ABSOLUTE
    ../clib/printf.c                         0x00000000   Number         0  _printf_hex_ptr.o ABSOLUTE
    ../clib/printf.c                         0x00000000   Number         0  _printf_hex_int_ptr.o ABSOLUTE
    ../clib/printf.c                         0x00000000   Number         0  __printf_flags_ss_wp.o ABSOLUTE
    ../clib/printf.c                         0x00000000   Number         0  _sputc.o ABSOLUTE
    ../clib/printf.c                         0x00000000   Number         0  _printf_pad.o ABSOLUTE
    ../clib/printf.c                         0x00000000   Number         0  _printf_hex_ll_ptr.o ABSOLUTE
    ../clib/printf.c                         0x00000000   Number         0  _printf_hex_int_ll_ptr.o ABSOLUTE
    ../clib/printf.c                         0x00000000   Number         0  __printf_flags.o ABSOLUTE
    ../clib/printf_percent.s                 0x00000000   Number         0  _printf_percent_end.o ABSOLUTE
    ../clib/printf_percent.s                 0x00000000   Number         0  _printf_s.o ABSOLUTE
    ../clib/printf_percent.s                 0x00000000   Number         0  _printf_x.o ABSOLUTE
    ../clib/printf_percent.s                 0x00000000   Number         0  _printf_d.o ABSOLUTE
    ../clib/printf_percent.s                 0x00000000   Number         0  _printf_u.o ABSOLUTE
    ../clib/printf_percent.s                 0x00000000   Number         0  _printf_percent.o ABSOLUTE
    ../clib/scanf.c                          0x00000000   Number         0  strtoul.o ABSOLUTE
    ../clib/scanf.c                          0x00000000   Number         0  _chval.o ABSOLUTE
    ../clib/scanf.c                          0x00000000   Number         0  _strtoul.o ABSOLUTE
    ../clib/signal.c                         0x00000000   Number         0  defsig_segv_inner.o ABSOLUTE
    ../clib/signal.c                         0x00000000   Number         0  defsig_other.o ABSOLUTE
    ../clib/signal.c                         0x00000000   Number         0  defsig_exit.o ABSOLUTE
    ../clib/signal.c                         0x00000000   Number         0  defsig_fpe_inner.o ABSOLUTE
    ../clib/signal.c                         0x00000000   Number         0  defsig_rtmem_inner.o ABSOLUTE
    ../clib/signal.c                         0x00000000   Number         0  defsig_cppl_inner.o ABSOLUTE
    ../clib/signal.c                         0x00000000   Number         0  defsig_abrt_inner.o ABSOLUTE
    ../clib/signal.c                         0x00000000   Number         0  defsig_stak_inner.o ABSOLUTE
    ../clib/signal.c                         0x00000000   Number         0  defsig_rtmem_outer.o ABSOLUTE
    ../clib/signal.c                         0x00000000   Number         0  defsig_rtred_inner.o ABSOLUTE
    ../clib/signal.c                         0x00000000   Number         0  defsig_fpe_formal.o ABSOLUTE
    ../clib/signal.c                         0x00000000   Number         0  defsig_fpe_outer.o ABSOLUTE
    ../clib/signal.c                         0x00000000   Number         0  __raise.o ABSOLUTE
    ../clib/signal.c                         0x00000000   Number         0  defsig_general.o ABSOLUTE
    ../clib/signal.c                         0x00000000   Number         0  defsig_pvfn_inner.o ABSOLUTE
    ../clib/signal.c                         0x00000000   Number         0  defsig_rtmem_formal.o ABSOLUTE
    ../clib/signal.s                         0x00000000   Number         0  defsig.o ABSOLUTE
    ../clib/stdlib.c                         0x00000000   Number         0  exit.o ABSOLUTE
    ../clib/stdlib.c                         0x00000000   Number         0  cxa_finalize.o ABSOLUTE
    ../clib/stdlib.c                         0x00000000   Number         0  atexit_aeabi.o ABSOLUTE
    ../clib/stdlib.c                         0x00000000   Number         0  aeabi_atexit.o ABSOLUTE
    ../clib/string.c                         0x00000000   Number         0  strtok_r.o ABSOLUTE
    ../clib/string.c                         0x00000000   Number         0  strncmp.o ABSOLUTE
    ../clib/string.c                         0x00000000   Number         0  strspn.o ABSOLUTE
    ../clib/string.c                         0x00000000   Number         0  strcspn.o ABSOLUTE
    ../clib/string.c                         0x00000000   Number         0  strcmp.o ABSOLUTE
    ../clib/string.c                         0x00000000   Number         0  strtok_int.o ABSOLUTE
    ../clib/unhosted.c                       0x00000000   Number         0  uread4.o ABSOLUTE
    ../fplib/cfplib/fpinit.c                 0x00000000   Number         0  fpinit.o ABSOLUTE
    ..\Core\Src\adc.c                        0x00000000   Number         0  adc.o ABSOLUTE
    ..\Core\Src\adc_controller.cpp           0x00000000   Number         0  adc_controller.o ABSOLUTE
    ..\Core\Src\common.cpp                   0x00000000   Number         0  common.o ABSOLUTE
    ..\Core\Src\crc.c                        0x00000000   Number         0  crc.o ABSOLUTE
    ..\Core\Src\cs_register.cpp              0x00000000   Number         0  cs_register.o ABSOLUTE
    ..\Core\Src\debug_facilities.cpp         0x00000000   Number         0  debug_facilities.o ABSOLUTE
    ..\Core\Src\dma.c                        0x00000000   Number         0  dma.o ABSOLUTE
    ..\Core\Src\error_controller.cpp         0x00000000   Number         0  error_controller.o ABSOLUTE
    ..\Core\Src\flash_if.cpp                 0x00000000   Number         0  flash_if.o ABSOLUTE
    ..\Core\Src\gpio.c                       0x00000000   Number         0  gpio.o ABSOLUTE
    ..\Core\Src\main.cpp                     0x00000000   Number         0  main.o ABSOLUTE
    ..\Core\Src\main_controller.cpp          0x00000000   Number         0  main_controller.o ABSOLUTE
    ..\Core\Src\mem.cpp                      0x00000000   Number         0  mem.o ABSOLUTE
    ..\Core\Src\mem_controller.cpp           0x00000000   Number         0  mem_controller.o ABSOLUTE
    ..\Core\Src\menu.cpp                     0x00000000   Number         0  menu.o ABSOLUTE
    ..\Core\Src\monitor.cpp                  0x00000000   Number         0  monitor.o ABSOLUTE
    ..\Core\Src\peripherial_controller.cpp   0x00000000   Number         0  peripherial_controller.o ABSOLUTE
    ..\Core\Src\rtc.c                        0x00000000   Number         0  rtc.o ABSOLUTE
    ..\Core\Src\screen_controller.cpp        0x00000000   Number         0  screen_controller.o ABSOLUTE
    ..\Core\Src\spi.c                        0x00000000   Number         0  spi.o ABSOLUTE
    ..\Core\Src\state.cpp                    0x00000000   Number         0  state.o ABSOLUTE
    ..\Core\Src\status_reg.cpp               0x00000000   Number         0  status_reg.o ABSOLUTE
    ..\Core\Src\stm32f0xx_hal_msp.c          0x00000000   Number         0  stm32f0xx_hal_msp.o ABSOLUTE
    ..\Core\Src\stm32f0xx_hal_timebase_tim.c 0x00000000   Number         0  stm32f0xx_hal_timebase_tim.o ABSOLUTE
    ..\Core\Src\stm32f0xx_it.c               0x00000000   Number         0  stm32f0xx_it.o ABSOLUTE
    ..\Core\Src\system_stm32f0xx.c           0x00000000   Number         0  system_stm32f0xx.o ABSOLUTE
    ..\Core\Src\tim.c                        0x00000000   Number         0  tim.o ABSOLUTE
    ..\Core\Src\usart.c                      0x00000000   Number         0  usart.o ABSOLUTE
    ..\Core\Src\xmodem.cpp                   0x00000000   Number         0  xmodem.o ABSOLUTE
    ..\Drivers\STM32F0xx_HAL_Driver\Src\stm32f0xx_hal.c 0x00000000   Number         0  stm32f0xx_hal.o ABSOLUTE
    ..\Drivers\STM32F0xx_HAL_Driver\Src\stm32f0xx_hal_adc.c 0x00000000   Number         0  stm32f0xx_hal_adc.o ABSOLUTE
    ..\Drivers\STM32F0xx_HAL_Driver\Src\stm32f0xx_hal_adc_ex.c 0x00000000   Number         0  stm32f0xx_hal_adc_ex.o ABSOLUTE
    ..\Drivers\STM32F0xx_HAL_Driver\Src\stm32f0xx_hal_cortex.c 0x00000000   Number         0  stm32f0xx_hal_cortex.o ABSOLUTE
    ..\Drivers\STM32F0xx_HAL_Driver\Src\stm32f0xx_hal_crc.c 0x00000000   Number         0  stm32f0xx_hal_crc.o ABSOLUTE
    ..\Drivers\STM32F0xx_HAL_Driver\Src\stm32f0xx_hal_crc_ex.c 0x00000000   Number         0  stm32f0xx_hal_crc_ex.o ABSOLUTE
    ..\Drivers\STM32F0xx_HAL_Driver\Src\stm32f0xx_hal_dma.c 0x00000000   Number         0  stm32f0xx_hal_dma.o ABSOLUTE
    ..\Drivers\STM32F0xx_HAL_Driver\Src\stm32f0xx_hal_flash.c 0x00000000   Number         0  stm32f0xx_hal_flash.o ABSOLUTE
    ..\Drivers\STM32F0xx_HAL_Driver\Src\stm32f0xx_hal_flash_ex.c 0x00000000   Number         0  stm32f0xx_hal_flash_ex.o ABSOLUTE
    ..\Drivers\STM32F0xx_HAL_Driver\Src\stm32f0xx_hal_gpio.c 0x00000000   Number         0  stm32f0xx_hal_gpio.o ABSOLUTE
    ..\Drivers\STM32F0xx_HAL_Driver\Src\stm32f0xx_hal_i2c.c 0x00000000   Number         0  stm32f0xx_hal_i2c.o ABSOLUTE
    ..\Drivers\STM32F0xx_HAL_Driver\Src\stm32f0xx_hal_i2c_ex.c 0x00000000   Number         0  stm32f0xx_hal_i2c_ex.o ABSOLUTE
    ..\Drivers\STM32F0xx_HAL_Driver\Src\stm32f0xx_hal_pwr.c 0x00000000   Number         0  stm32f0xx_hal_pwr.o ABSOLUTE
    ..\Drivers\STM32F0xx_HAL_Driver\Src\stm32f0xx_hal_pwr_ex.c 0x00000000   Number         0  stm32f0xx_hal_pwr_ex.o ABSOLUTE
    ..\Drivers\STM32F0xx_HAL_Driver\Src\stm32f0xx_hal_rcc.c 0x00000000   Number         0  stm32f0xx_hal_rcc.o ABSOLUTE
    ..\Drivers\STM32F0xx_HAL_Driver\Src\stm32f0xx_hal_rcc_ex.c 0x00000000   Number         0  stm32f0xx_hal_rcc_ex.o ABSOLUTE
    ..\Drivers\STM32F0xx_HAL_Driver\Src\stm32f0xx_hal_rtc.c 0x00000000   Number         0  stm32f0xx_hal_rtc.o ABSOLUTE
    ..\Drivers\STM32F0xx_HAL_Driver\Src\stm32f0xx_hal_rtc_ex.c 0x00000000   Number         0  stm32f0xx_hal_rtc_ex.o ABSOLUTE
    ..\Drivers\STM32F0xx_HAL_Driver\Src\stm32f0xx_hal_spi.c 0x00000000   Number         0  stm32f0xx_hal_spi.o ABSOLUTE
    ..\Drivers\STM32F0xx_HAL_Driver\Src\stm32f0xx_hal_spi_ex.c 0x00000000   Number         0  stm32f0xx_hal_spi_ex.o ABSOLUTE
    ..\Drivers\STM32F0xx_HAL_Driver\Src\stm32f0xx_hal_tim.c 0x00000000   Number         0  stm32f0xx_hal_tim.o ABSOLUTE
    ..\Drivers\STM32F0xx_HAL_Driver\Src\stm32f0xx_hal_tim_ex.c 0x00000000   Number         0  stm32f0xx_hal_tim_ex.o ABSOLUTE
    ..\Drivers\STM32F0xx_HAL_Driver\Src\stm32f0xx_hal_uart.c 0x00000000   Number         0  stm32f0xx_hal_uart.o ABSOLUTE
    ..\Drivers\STM32F0xx_HAL_Driver\Src\stm32f0xx_hal_uart_ex.c 0x00000000   Number         0  stm32f0xx_hal_uart_ex.o ABSOLUTE
    ..\\Core\\Src\\adc_controller.cpp        0x00000000   Number         0  adc_controller.o ABSOLUTE
    ..\\Core\\Src\\common.cpp                0x00000000   Number         0  common.o ABSOLUTE
    ..\\Core\\Src\\cs_register.cpp           0x00000000   Number         0  cs_register.o ABSOLUTE
    ..\\Core\\Src\\debug_facilities.cpp      0x00000000   Number         0  debug_facilities.o ABSOLUTE
    ..\\Core\\Src\\error_controller.cpp      0x00000000   Number         0  error_controller.o ABSOLUTE
    ..\\Core\\Src\\flash_if.cpp              0x00000000   Number         0  flash_if.o ABSOLUTE
    ..\\Core\\Src\\main_controller.cpp       0x00000000   Number         0  main_controller.o ABSOLUTE
    ..\\Core\\Src\\mem.cpp                   0x00000000   Number         0  mem.o ABSOLUTE
    ..\\Core\\Src\\mem_controller.cpp        0x00000000   Number         0  mem_controller.o ABSOLUTE
    ..\\Core\\Src\\menu.cpp                  0x00000000   Number         0  menu.o ABSOLUTE
    ..\\Core\\Src\\monitor.cpp               0x00000000   Number         0  monitor.o ABSOLUTE
    ..\\Core\\Src\\peripherial_controller.cpp 0x00000000   Number         0  peripherial_controller.o ABSOLUTE
    ..\\Core\\Src\\screen_controller.cpp     0x00000000   Number         0  screen_controller.o ABSOLUTE
    ..\\Core\\Src\\state.cpp                 0x00000000   Number         0  state.o ABSOLUTE
    ..\\Core\\Src\\status_reg.cpp            0x00000000   Number         0  status_reg.o ABSOLUTE
    ..\\Core\\Src\\xmodem.cpp                0x00000000   Number         0  xmodem.o ABSOLUTE
    dc.s                                     0x00000000   Number         0  dc.o ABSOLUTE
    startup_stm32f072xb.s                    0x00000000   Number         0  startup_stm32f072xb.o ABSOLUTE
    RESET                                    0x08008000   Section      192  startup_stm32f072xb.o(RESET)
    !!!main                                  0x080080c0   Section        8  __main.o(!!!main)
    !!!scatter                               0x080080c8   Section       60  __scatter.o(!!!scatter)
    !!handler_zi                             0x08008104   Section       28  __scatter_zi.o(!!handler_zi)
    .ARM.Collect$$_printf_percent$$00000000  0x08008120   Section        2  _printf_percent.o(.ARM.Collect$$_printf_percent$$00000000)
    .ARM.Collect$$_printf_percent$$00000009  0x08008122   Section       10  _printf_d.o(.ARM.Collect$$_printf_percent$$00000009)
    .ARM.Collect$$_printf_percent$$0000000A  0x0800812c   Section       10  _printf_u.o(.ARM.Collect$$_printf_percent$$0000000A)
    .ARM.Collect$$_printf_percent$$0000000C  0x08008136   Section       10  _printf_x.o(.ARM.Collect$$_printf_percent$$0000000C)
    .ARM.Collect$$_printf_percent$$00000014  0x08008140   Section       10  _printf_s.o(.ARM.Collect$$_printf_percent$$00000014)
    .ARM.Collect$$_printf_percent$$00000017  0x0800814a   Section        4  _printf_percent_end.o(.ARM.Collect$$_printf_percent$$00000017)
    .ARM.Collect$$libinit$$00000000          0x0800814e   Section        2  libinit.o(.ARM.Collect$$libinit$$00000000)
    .ARM.Collect$$libinit$$00000002          0x08008150   Section        0  libinit2.o(.ARM.Collect$$libinit$$00000002)
    .ARM.Collect$$libinit$$00000004          0x08008150   Section        0  libinit2.o(.ARM.Collect$$libinit$$00000004)
    .ARM.Collect$$libinit$$00000005          0x08008150   Section        8  libinit2.o(.ARM.Collect$$libinit$$00000005)
    .ARM.Collect$$libinit$$0000000A          0x08008158   Section        0  libinit2.o(.ARM.Collect$$libinit$$0000000A)
    .ARM.Collect$$libinit$$0000000C          0x08008158   Section        0  libinit2.o(.ARM.Collect$$libinit$$0000000C)
    .ARM.Collect$$libinit$$0000000E          0x08008158   Section        0  libinit2.o(.ARM.Collect$$libinit$$0000000E)
    .ARM.Collect$$libinit$$0000000F          0x08008158   Section        6  libinit2.o(.ARM.Collect$$libinit$$0000000F)
    .ARM.Collect$$libinit$$00000011          0x0800815e   Section        0  libinit2.o(.ARM.Collect$$libinit$$00000011)
    .ARM.Collect$$libinit$$00000012          0x0800815e   Section       12  libinit2.o(.ARM.Collect$$libinit$$00000012)
    .ARM.Collect$$libinit$$00000013          0x0800816a   Section        0  libinit2.o(.ARM.Collect$$libinit$$00000013)
    .ARM.Collect$$libinit$$00000015          0x0800816a   Section        0  libinit2.o(.ARM.Collect$$libinit$$00000015)
    .ARM.Collect$$libinit$$00000017          0x0800816a   Section        0  libinit2.o(.ARM.Collect$$libinit$$00000017)
    .ARM.Collect$$libinit$$00000019          0x0800816a   Section        0  libinit2.o(.ARM.Collect$$libinit$$00000019)
    .ARM.Collect$$libinit$$0000001B          0x0800816a   Section        0  libinit2.o(.ARM.Collect$$libinit$$0000001B)
    .ARM.Collect$$libinit$$0000001D          0x0800816a   Section        0  libinit2.o(.ARM.Collect$$libinit$$0000001D)
    .ARM.Collect$$libinit$$0000001F          0x0800816a   Section        0  libinit2.o(.ARM.Collect$$libinit$$0000001F)
    .ARM.Collect$$libinit$$00000021          0x0800816a   Section        0  libinit2.o(.ARM.Collect$$libinit$$00000021)
    .ARM.Collect$$libinit$$00000023          0x0800816a   Section        0  libinit2.o(.ARM.Collect$$libinit$$00000023)
    .ARM.Collect$$libinit$$00000025          0x0800816a   Section        0  libinit2.o(.ARM.Collect$$libinit$$00000025)
    .ARM.Collect$$libinit$$0000002C          0x0800816a   Section        0  libinit2.o(.ARM.Collect$$libinit$$0000002C)
    .ARM.Collect$$libinit$$0000002E          0x0800816a   Section        0  libinit2.o(.ARM.Collect$$libinit$$0000002E)
    .ARM.Collect$$libinit$$00000030          0x0800816a   Section        0  libinit2.o(.ARM.Collect$$libinit$$00000030)
    .ARM.Collect$$libinit$$00000031          0x0800816a   Section        4  libinit2.o(.ARM.Collect$$libinit$$00000031)
    .ARM.Collect$$libinit$$00000032          0x0800816e   Section        0  libinit2.o(.ARM.Collect$$libinit$$00000032)
    .ARM.Collect$$libinit$$00000033          0x0800816e   Section        2  libinit2.o(.ARM.Collect$$libinit$$00000033)
    .ARM.Collect$$libshutdown$$00000000      0x08008170   Section        2  libshutdown.o(.ARM.Collect$$libshutdown$$00000000)
    .ARM.Collect$$libshutdown$$00000001      0x08008172   Section        6  libshutdown2.o(.ARM.Collect$$libshutdown$$00000001)
    .ARM.Collect$$libshutdown$$00000002      0x08008178   Section        0  libshutdown2.o(.ARM.Collect$$libshutdown$$00000002)
    .ARM.Collect$$libshutdown$$00000004      0x08008178   Section        0  libshutdown2.o(.ARM.Collect$$libshutdown$$00000004)
    .ARM.Collect$$libshutdown$$00000007      0x08008178   Section        0  libshutdown2.o(.ARM.Collect$$libshutdown$$00000007)
    .ARM.Collect$$libshutdown$$0000000A      0x08008178   Section        0  libshutdown2.o(.ARM.Collect$$libshutdown$$0000000A)
    .ARM.Collect$$libshutdown$$0000000C      0x08008178   Section        0  libshutdown2.o(.ARM.Collect$$libshutdown$$0000000C)
    .ARM.Collect$$libshutdown$$0000000F      0x08008178   Section        0  libshutdown2.o(.ARM.Collect$$libshutdown$$0000000F)
    .ARM.Collect$$libshutdown$$00000010      0x08008178   Section        2  libshutdown2.o(.ARM.Collect$$libshutdown$$00000010)
    .ARM.Collect$$rtentry$$00000000          0x0800817a   Section        0  __rtentry.o(.ARM.Collect$$rtentry$$00000000)
    .ARM.Collect$$rtentry$$00000002          0x0800817a   Section        0  __rtentry2.o(.ARM.Collect$$rtentry$$00000002)
    .ARM.Collect$$rtentry$$00000004          0x0800817a   Section        6  __rtentry4.o(.ARM.Collect$$rtentry$$00000004)
    .ARM.Collect$$rtentry$$00000009          0x08008180   Section        0  __rtentry2.o(.ARM.Collect$$rtentry$$00000009)
    .ARM.Collect$$rtentry$$0000000A          0x08008180   Section        4  __rtentry2.o(.ARM.Collect$$rtentry$$0000000A)
    .ARM.Collect$$rtentry$$0000000C          0x08008184   Section        0  __rtentry2.o(.ARM.Collect$$rtentry$$0000000C)
    .ARM.Collect$$rtentry$$0000000D          0x08008184   Section        8  __rtentry2.o(.ARM.Collect$$rtentry$$0000000D)
    .ARM.Collect$$rtexit$$00000000           0x0800818c   Section        2  rtexit.o(.ARM.Collect$$rtexit$$00000000)
    .ARM.Collect$$rtexit$$00000002           0x0800818e   Section        0  rtexit2.o(.ARM.Collect$$rtexit$$00000002)
    .ARM.Collect$$rtexit$$00000003           0x0800818e   Section        4  rtexit2.o(.ARM.Collect$$rtexit$$00000003)
    .ARM.Collect$$rtexit$$00000004           0x08008192   Section        6  rtexit2.o(.ARM.Collect$$rtexit$$00000004)
    .emb_text                                0x08008198   Section       56  rt_memcpy.o(.emb_text)
    .emb_text                                0x080081d0   Section        0  maybetermalloc1.o(.emb_text)
    .text                                    0x080081d0   Section       56  startup_stm32f072xb.o(.text)
    .text                                    0x08008208   Section        0  noretval__2sprintf.o(.text)
    .text                                    0x08008230   Section        0  _printf_pad.o(.text)
    .text                                    0x0800827e   Section        0  _printf_str.o(.text)
    .text                                    0x080082d0   Section        0  _printf_dec.o(.text)
    .text                                    0x0800833c   Section        0  _printf_hex_int.o(.text)
    .text                                    0x08008394   Section        0  __printf_flags_ss_wp.o(.text)
    .text                                    0x0800851c   Section        0  strtoul.o(.text)
    .text                                    0x08008592   Section        0  aeabi_atexit.o(.text)
    .text                                    0x080085bc   Section        0  strtok_r.o(.text)
    .text                                    0x080085c4   Section        0  strncmp.o(.text)
    .text                                    0x08008664   Section        0  rt_memclr.o(.text)
    .text                                    0x080086a4   Section        0  uread4.o(.text)
    .text                                    0x080086c6   Section      346  aeabi_sdiv.o(.text)
    .text                                    0x08008820   Section        0  heapauxi.o(.text)
    .text                                    0x08008828   Section        0  init_aeabi.o(.text)
    .text                                    0x0800884c   Section       16  rt_ctype_table.o(.text)
    .text                                    0x0800885c   Section        8  rt_ddtor_pointer_addr_intlibspace.o(.text)
    .text                                    0x08008864   Section        8  rt_errno_addr_intlibspace.o(.text)
    .text                                    0x0800886c   Section        0  h1_alloc.o(.text)
    .text                                    0x080088ce   Section        0  _printf_intcommon.o(.text)
    .text                                    0x08008980   Section        0  _printf_char_common.o(.text)
    _printf_input_char                       0x08008981   Thumb Code    10  _printf_char_common.o(.text)
    .text                                    0x080089b0   Section        0  _sputc.o(.text)
    .text                                    0x080089ba   Section        0  _printf_char.o(.text)
    .text                                    0x080089e8   Section        0  _strtoul.o(.text)
    .text                                    0x08008a8e   Section        0  cxa_finalize.o(.text)
    .text                                    0x08008ad0   Section        0  strtok_int.o(.text)
    .text                                    0x08008b18   Section        0  rtudiv10.o(.text)
    .text                                    0x08008b40   Section        8  libspace.o(.text)
    .text                                    0x08008b48   Section        8  rt_heap_descriptor_intlibspace.o(.text)
    .text                                    0x08008b50   Section        8  rt_locale_intlibspace.o(.text)
    .text                                    0x08008b58   Section        0  hguard.o(.text)
    .text                                    0x08008b5c   Section        0  init_alloc.o(.text)
    .text                                    0x08008be4   Section        0  h1_init.o(.text)
    .text                                    0x08008bf2   Section        0  h1_free.o(.text)
    .text                                    0x08008c3e   Section        0  _chval.o(.text)
    .text                                    0x08008c5c   Section        0  strcspn.o(.text)
    .text                                    0x08008c7e   Section        0  strspn.o(.text)
    .text                                    0x08008c9e   Section       62  sys_stackheap_outer.o(.text)
    .text                                    0x08008cdc   Section        0  h1_extend.o(.text)
    .text                                    0x08008d10   Section        0  exit.o(.text)
    .text                                    0x08008d20   Section        0  defsig_rtmem_outer.o(.text)
    .text                                    0x08008d2c   Section        0  strcmp.o(.text)
    .text                                    0x08008db4   Section        2  use_no_semi.o(.text)
    .text                                    0x08008db6   Section        0  defsig_exit.o(.text)
    .text                                    0x08008db6   Section        0  indicate_semi.o(.text)
    .text                                    0x08008dc4   Section        0  defsig_rtmem_inner.o(.text)
    .text                                    0x08008e14   Section        0  sys_exit.o(.text)
    .text                                    0x08008e20   Section        0  defsig_general.o(.text)
    .text                                    0x08008e54   Section        0  sys_wrch.o(.text)
    .text                                    0x08008e60   Section        0  __dczerorl2.o(.text)
    i.ADC_DMAConvCplt                        0x08008eb6   Section        0  stm32f0xx_hal_adc.o(i.ADC_DMAConvCplt)
    ADC_DMAConvCplt                          0x08008eb7   Thumb Code   108  stm32f0xx_hal_adc.o(i.ADC_DMAConvCplt)
    i.ADC_DMAError                           0x08008f22   Section        0  stm32f0xx_hal_adc.o(i.ADC_DMAError)
    ADC_DMAError                             0x08008f23   Thumb Code    26  stm32f0xx_hal_adc.o(i.ADC_DMAError)
    i.ADC_DMAHalfConvCplt                    0x08008f3c   Section        0  stm32f0xx_hal_adc.o(i.ADC_DMAHalfConvCplt)
    ADC_DMAHalfConvCplt                      0x08008f3d   Thumb Code    10  stm32f0xx_hal_adc.o(i.ADC_DMAHalfConvCplt)
    i.ADC_Enable                             0x08008f48   Section        0  stm32f0xx_hal_adc.o(i.ADC_Enable)
    ADC_Enable                               0x08008f49   Thumb Code   120  stm32f0xx_hal_adc.o(i.ADC_Enable)
    i.DMA1_Channel1_IRQHandler               0x08008fcc   Section        0  stm32f0xx_it.o(i.DMA1_Channel1_IRQHandler)
    i.DMA_CalcBaseAndBitshift                0x08008fdc   Section        0  stm32f0xx_hal_dma.o(i.DMA_CalcBaseAndBitshift)
    DMA_CalcBaseAndBitshift                  0x08008fdd   Thumb Code    26  stm32f0xx_hal_dma.o(i.DMA_CalcBaseAndBitshift)
    i.DMA_SetConfig                          0x08009000   Section        0  stm32f0xx_hal_dma.o(i.DMA_SetConfig)
    DMA_SetConfig                            0x08009001   Thumb Code    40  stm32f0xx_hal_dma.o(i.DMA_SetConfig)
    i.EXTI2_3_IRQHandler                     0x08009028   Section        0  stm32f0xx_it.o(i.EXTI2_3_IRQHandler)
    i.Error_Handler                          0x080090b4   Section        0  main.o(i.Error_Handler)
    i.HAL_ADC_ConfigChannel                  0x080090dc   Section        0  stm32f0xx_hal_adc.o(i.HAL_ADC_ConfigChannel)
    i.HAL_ADC_ConvCpltCallback               0x08009208   Section        0  main.o(i.HAL_ADC_ConvCpltCallback)
    i.HAL_ADC_ConvHalfCpltCallback           0x08009220   Section        0  stm32f0xx_hal_adc.o(i.HAL_ADC_ConvHalfCpltCallback)
    i.HAL_ADC_ErrorCallback                  0x08009222   Section        0  stm32f0xx_hal_adc.o(i.HAL_ADC_ErrorCallback)
    i.HAL_ADC_Init                           0x08009224   Section        0  stm32f0xx_hal_adc.o(i.HAL_ADC_Init)
    i.HAL_ADC_MspInit                        0x08009398   Section        0  adc.o(i.HAL_ADC_MspInit)
    i.HAL_ADC_Start_DMA                      0x08009424   Section        0  stm32f0xx_hal_adc.o(i.HAL_ADC_Start_DMA)
    i.HAL_CRCEx_Init                         0x080094c4   Section        0  stm32f0xx_hal_crc_ex.o(i.HAL_CRCEx_Init)
    i.HAL_CRCEx_Polynomial_Set               0x080094f4   Section        0  stm32f0xx_hal_crc_ex.o(i.HAL_CRCEx_Polynomial_Set)
    i.HAL_CRC_Init                           0x0800953e   Section        0  stm32f0xx_hal_crc.o(i.HAL_CRC_Init)
    i.HAL_CRC_MspInit                        0x0800959c   Section        0  crc.o(i.HAL_CRC_MspInit)
    i.HAL_DMA_Abort_IT                       0x080095c0   Section        0  stm32f0xx_hal_dma.o(i.HAL_DMA_Abort_IT)
    i.HAL_DMA_IRQHandler                     0x08009608   Section        0  stm32f0xx_hal_dma.o(i.HAL_DMA_IRQHandler)
    i.HAL_DMA_Init                           0x080096a4   Section        0  stm32f0xx_hal_dma.o(i.HAL_DMA_Init)
    i.HAL_DMA_Start_IT                       0x080096fc   Section        0  stm32f0xx_hal_dma.o(i.HAL_DMA_Start_IT)
    i.HAL_Delay                              0x08009766   Section        0  stm32f0xx_hal.o(i.HAL_Delay)
    i.HAL_GPIO_EXTI_Callback                 0x08009782   Section        0  stm32f0xx_hal_gpio.o(i.HAL_GPIO_EXTI_Callback)
    i.HAL_GPIO_EXTI_IRQHandler               0x08009784   Section        0  stm32f0xx_hal_gpio.o(i.HAL_GPIO_EXTI_IRQHandler)
    i.HAL_GPIO_Init                          0x0800979c   Section        0  stm32f0xx_hal_gpio.o(i.HAL_GPIO_Init)
    i.HAL_GPIO_ReadPin                       0x080098f4   Section        0  stm32f0xx_hal_gpio.o(i.HAL_GPIO_ReadPin)
    i.HAL_GPIO_TogglePin                     0x080098fe   Section        0  stm32f0xx_hal_gpio.o(i.HAL_GPIO_TogglePin)
    i.HAL_GPIO_WritePin                      0x08009906   Section        0  stm32f0xx_hal_gpio.o(i.HAL_GPIO_WritePin)
    i.HAL_GetTick                            0x08009914   Section        0  stm32f0xx_hal.o(i.HAL_GetTick)
    i.HAL_IncTick                            0x08009920   Section        0  stm32f0xx_hal.o(i.HAL_IncTick)
    i.HAL_Init                               0x08009930   Section        0  stm32f0xx_hal.o(i.HAL_Init)
    i.HAL_InitTick                           0x08009950   Section        0  stm32f0xx_hal_timebase_tim.o(i.HAL_InitTick)
    i.HAL_MspInit                            0x080099c8   Section        0  stm32f0xx_hal_msp.o(i.HAL_MspInit)
    i.HAL_NVIC_EnableIRQ                     0x080099f0   Section        0  stm32f0xx_hal_cortex.o(i.HAL_NVIC_EnableIRQ)
    i.HAL_NVIC_SetPriority                   0x08009a04   Section        0  stm32f0xx_hal_cortex.o(i.HAL_NVIC_SetPriority)
    i.HAL_NVIC_SystemReset                   0x08009a0c   Section        0  stm32f0xx_hal_cortex.o(i.HAL_NVIC_SystemReset)
    i.HAL_PWR_EnableBkUpAccess               0x08009a28   Section        0  stm32f0xx_hal_pwr.o(i.HAL_PWR_EnableBkUpAccess)
    i.HAL_RCCEx_PeriphCLKConfig              0x08009a38   Section        0  stm32f0xx_hal_rcc_ex.o(i.HAL_RCCEx_PeriphCLKConfig)
    i.HAL_RCC_ClockConfig                    0x08009b58   Section        0  stm32f0xx_hal_rcc.o(i.HAL_RCC_ClockConfig)
    i.HAL_RCC_GetClockConfig                 0x08009cac   Section        0  stm32f0xx_hal_rcc.o(i.HAL_RCC_GetClockConfig)
    i.HAL_RCC_GetPCLK1Freq                   0x08009ce4   Section        0  stm32f0xx_hal_rcc.o(i.HAL_RCC_GetPCLK1Freq)
    i.HAL_RCC_GetSysClockFreq                0x08009d04   Section        0  stm32f0xx_hal_rcc.o(i.HAL_RCC_GetSysClockFreq)
    i.HAL_RCC_MCOConfig                      0x08009d8c   Section        0  stm32f0xx_hal_rcc.o(i.HAL_RCC_MCOConfig)
    i.HAL_RCC_OscConfig                      0x08009ddc   Section        0  stm32f0xx_hal_rcc.o(i.HAL_RCC_OscConfig)
    i.HAL_RTCEx_SetTimeStamp                 0x0800a1b4   Section        0  stm32f0xx_hal_rtc_ex.o(i.HAL_RTCEx_SetTimeStamp)
    i.HAL_RTC_Init                           0x0800a200   Section        0  stm32f0xx_hal_rtc.o(i.HAL_RTC_Init)
    i.HAL_RTC_MspInit                        0x0800a2b4   Section        0  rtc.o(i.HAL_RTC_MspInit)
    i.HAL_RTC_SetDate                        0x0800a2d4   Section        0  stm32f0xx_hal_rtc.o(i.HAL_RTC_SetDate)
    i.HAL_RTC_SetTime                        0x0800a39c   Section        0  stm32f0xx_hal_rtc.o(i.HAL_RTC_SetTime)
    i.HAL_RTC_WaitForSynchro                 0x0800a480   Section        0  stm32f0xx_hal_rtc.o(i.HAL_RTC_WaitForSynchro)
    i.HAL_SPI_Init                           0x0800a4b4   Section        0  stm32f0xx_hal_spi.o(i.HAL_SPI_Init)
    i.HAL_SPI_MspInit                        0x0800a56c   Section        0  spi.o(i.HAL_SPI_MspInit)
    i.HAL_SPI_Receive                        0x0800a5e0   Section        0  stm32f0xx_hal_spi.o(i.HAL_SPI_Receive)
    i.HAL_SPI_Transmit                       0x0800a738   Section        0  stm32f0xx_hal_spi.o(i.HAL_SPI_Transmit)
    i.HAL_SPI_TransmitReceive                0x0800a8a8   Section        0  stm32f0xx_hal_spi.o(i.HAL_SPI_TransmitReceive)
    i.HAL_TIMEx_BreakCallback                0x0800aaf0   Section        0  stm32f0xx_hal_tim_ex.o(i.HAL_TIMEx_BreakCallback)
    i.HAL_TIMEx_CommutationCallback          0x0800aaf2   Section        0  stm32f0xx_hal_tim_ex.o(i.HAL_TIMEx_CommutationCallback)
    i.HAL_TIMEx_ConfigBreakDeadTime          0x0800aaf4   Section        0  stm32f0xx_hal_tim_ex.o(i.HAL_TIMEx_ConfigBreakDeadTime)
    i.HAL_TIMEx_MasterConfigSynchronization  0x0800ab54   Section        0  stm32f0xx_hal_tim_ex.o(i.HAL_TIMEx_MasterConfigSynchronization)
    i.HAL_TIM_Base_Init                      0x0800ab9c   Section        0  stm32f0xx_hal_tim.o(i.HAL_TIM_Base_Init)
    i.HAL_TIM_Base_MspInit                   0x0800abd0   Section        0  tim.o(i.HAL_TIM_Base_MspInit)
    i.HAL_TIM_Base_Start                     0x0800ac38   Section        0  stm32f0xx_hal_tim.o(i.HAL_TIM_Base_Start)
    i.HAL_TIM_Base_Start_IT                  0x0800ac50   Section        0  stm32f0xx_hal_tim.o(i.HAL_TIM_Base_Start_IT)
    i.HAL_TIM_ConfigClockSource              0x0800ac66   Section        0  stm32f0xx_hal_tim.o(i.HAL_TIM_ConfigClockSource)
    i.HAL_TIM_IC_CaptureCallback             0x0800ad54   Section        0  stm32f0xx_hal_tim.o(i.HAL_TIM_IC_CaptureCallback)
    i.HAL_TIM_IRQHandler                     0x0800ad56   Section        0  stm32f0xx_hal_tim.o(i.HAL_TIM_IRQHandler)
    i.HAL_TIM_OC_ConfigChannel               0x0800aeb8   Section        0  stm32f0xx_hal_tim.o(i.HAL_TIM_OC_ConfigChannel)
    i.HAL_TIM_OC_DelayElapsedCallback        0x0800af08   Section        0  stm32f0xx_hal_tim.o(i.HAL_TIM_OC_DelayElapsedCallback)
    i.HAL_TIM_OC_Init                        0x0800af0a   Section        0  stm32f0xx_hal_tim.o(i.HAL_TIM_OC_Init)
    i.HAL_TIM_OC_MspInit                     0x0800af3e   Section        0  stm32f0xx_hal_tim.o(i.HAL_TIM_OC_MspInit)
    i.HAL_TIM_PWM_PulseFinishedCallback      0x0800af40   Section        0  stm32f0xx_hal_tim.o(i.HAL_TIM_PWM_PulseFinishedCallback)
    i.HAL_TIM_PeriodElapsedCallback          0x0800af44   Section        0  main.o(i.HAL_TIM_PeriodElapsedCallback)
    i.HAL_TIM_TriggerCallback                0x0800af58   Section        0  stm32f0xx_hal_tim.o(i.HAL_TIM_TriggerCallback)
    i.HAL_UARTEx_WakeupCallback              0x0800af5a   Section        0  stm32f0xx_hal_uart_ex.o(i.HAL_UARTEx_WakeupCallback)
    i.HAL_UART_ErrorCallback                 0x0800af5c   Section        0  stm32f0xx_hal_uart.o(i.HAL_UART_ErrorCallback)
    i.HAL_UART_IRQHandler                    0x0800af60   Section        0  stm32f0xx_hal_uart.o(i.HAL_UART_IRQHandler)
    i.HAL_UART_Init                          0x0800b094   Section        0  stm32f0xx_hal_uart.o(i.HAL_UART_Init)
    i.HAL_UART_MspInit                       0x0800b100   Section        0  usart.o(i.HAL_UART_MspInit)
    i.HAL_UART_Receive                       0x0800b1a8   Section        0  stm32f0xx_hal_uart.o(i.HAL_UART_Receive)
    i.HAL_UART_RxCpltCallback                0x0800b2a8   Section        0  stm32f0xx_hal_uart.o(i.HAL_UART_RxCpltCallback)
    i.HAL_UART_Transmit                      0x0800b2aa   Section        0  stm32f0xx_hal_uart.o(i.HAL_UART_Transmit)
    i.HAL_UART_TxCpltCallback                0x0800b372   Section        0  stm32f0xx_hal_uart.o(i.HAL_UART_TxCpltCallback)
    i.HardFault_Handler                      0x0800b374   Section        0  stm32f0xx_it.o(i.HardFault_Handler)
    i.MX_ADC_Init                            0x0800b378   Section        0  adc.o(i.MX_ADC_Init)
    i.MX_CRC_Init                            0x0800b41c   Section        0  crc.o(i.MX_CRC_Init)
    i.MX_DMA_Init                            0x0800b448   Section        0  dma.o(i.MX_DMA_Init)
    i.MX_GPIO_Init                           0x0800b470   Section        0  gpio.o(i.MX_GPIO_Init)
    i.MX_RTC_Init                            0x0800b5e0   Section        0  rtc.o(i.MX_RTC_Init)
    i.MX_SPI1_Init                           0x0800b66c   Section        0  spi.o(i.MX_SPI1_Init)
    i.MX_TIM16_Init                          0x0800b6b8   Section        0  tim.o(i.MX_TIM16_Init)
    i.MX_TIM2_Init                           0x0800b754   Section        0  tim.o(i.MX_TIM2_Init)
    i.MX_TIM3_Init                           0x0800b7c0   Section        0  tim.o(i.MX_TIM3_Init)
    i.MX_USART1_UART_Init                    0x0800b830   Section        0  usart.o(i.MX_USART1_UART_Init)
    i.MX_USART2_UART_Init                    0x0800b868   Section        0  usart.o(i.MX_USART2_UART_Init)
    i.NMI_Handler                            0x0800b8a0   Section        0  stm32f0xx_it.o(i.NMI_Handler)
    i.NVIC_SetPriority                       0x0800b8a4   Section        0  stm32f0xx_hal_cortex.o(i.NVIC_SetPriority)
    NVIC_SetPriority                         0x0800b8a5   Thumb Code    60  stm32f0xx_hal_cortex.o(i.NVIC_SetPriority)
    i.PendSV_Handler                         0x0800b8e8   Section        0  stm32f0xx_it.o(i.PendSV_Handler)
    i.RTC_Bcd2ToByte                         0x0800b8ea   Section        0  stm32f0xx_hal_rtc.o(i.RTC_Bcd2ToByte)
    i.RTC_ByteToBcd2                         0x0800b8fa   Section        0  stm32f0xx_hal_rtc.o(i.RTC_ByteToBcd2)
    i.RTC_EnterInitMode                      0x0800b910   Section        0  stm32f0xx_hal_rtc.o(i.RTC_EnterInitMode)
    i.SPI_EndRxTransaction                   0x0800b948   Section        0  stm32f0xx_hal_spi.o(i.SPI_EndRxTransaction)
    SPI_EndRxTransaction                     0x0800b949   Thumb Code   120  stm32f0xx_hal_spi.o(i.SPI_EndRxTransaction)
    i.SPI_EndRxTxTransaction                 0x0800b9c0   Section        0  stm32f0xx_hal_spi.o(i.SPI_EndRxTxTransaction)
    SPI_EndRxTxTransaction                   0x0800b9c1   Thumb Code    76  stm32f0xx_hal_spi.o(i.SPI_EndRxTxTransaction)
    i.SPI_WaitFifoStateUntilTimeout          0x0800ba0c   Section        0  stm32f0xx_hal_spi.o(i.SPI_WaitFifoStateUntilTimeout)
    SPI_WaitFifoStateUntilTimeout            0x0800ba0d   Thumb Code   150  stm32f0xx_hal_spi.o(i.SPI_WaitFifoStateUntilTimeout)
    i.SPI_WaitFlagStateUntilTimeout          0x0800baa2   Section        0  stm32f0xx_hal_spi.o(i.SPI_WaitFlagStateUntilTimeout)
    SPI_WaitFlagStateUntilTimeout            0x0800baa3   Thumb Code   140  stm32f0xx_hal_spi.o(i.SPI_WaitFlagStateUntilTimeout)
    i.SVC_Handler                            0x0800bb2e   Section        0  stm32f0xx_it.o(i.SVC_Handler)
    i.SysTick_Handler                        0x0800bb30   Section        0  stm32f0xx_it.o(i.SysTick_Handler)
    i.SystemInit                             0x0800bb34   Section        0  system_stm32f0xx.o(i.SystemInit)
    i.TIM16_IRQHandler                       0x0800bb90   Section        0  stm32f0xx_it.o(i.TIM16_IRQHandler)
    i.TIM1_BRK_UP_TRG_COM_IRQHandler         0x0800bbac   Section        0  stm32f0xx_it.o(i.TIM1_BRK_UP_TRG_COM_IRQHandler)
    i.TIM_Base_SetConfig                     0x0800bbbc   Section        0  stm32f0xx_hal_tim.o(i.TIM_Base_SetConfig)
    i.TIM_ETR_SetConfig                      0x0800bc50   Section        0  stm32f0xx_hal_tim.o(i.TIM_ETR_SetConfig)
    i.TIM_ITRx_SetConfig                     0x0800bc66   Section        0  stm32f0xx_hal_tim.o(i.TIM_ITRx_SetConfig)
    TIM_ITRx_SetConfig                       0x0800bc67   Thumb Code    16  stm32f0xx_hal_tim.o(i.TIM_ITRx_SetConfig)
    i.TIM_OC1_SetConfig                      0x0800bc78   Section        0  stm32f0xx_hal_tim.o(i.TIM_OC1_SetConfig)
    TIM_OC1_SetConfig                        0x0800bc79   Thumb Code   120  stm32f0xx_hal_tim.o(i.TIM_OC1_SetConfig)
    i.TIM_OC2_SetConfig                      0x0800bd00   Section        0  stm32f0xx_hal_tim.o(i.TIM_OC2_SetConfig)
    i.TIM_OC3_SetConfig                      0x0800bd80   Section        0  stm32f0xx_hal_tim.o(i.TIM_OC3_SetConfig)
    TIM_OC3_SetConfig                        0x0800bd81   Thumb Code   114  stm32f0xx_hal_tim.o(i.TIM_OC3_SetConfig)
    i.TIM_OC4_SetConfig                      0x0800be04   Section        0  stm32f0xx_hal_tim.o(i.TIM_OC4_SetConfig)
    TIM_OC4_SetConfig                        0x0800be05   Thumb Code    90  stm32f0xx_hal_tim.o(i.TIM_OC4_SetConfig)
    i.TIM_TI1_ConfigInputStage               0x0800be70   Section        0  stm32f0xx_hal_tim.o(i.TIM_TI1_ConfigInputStage)
    TIM_TI1_ConfigInputStage                 0x0800be71   Thumb Code    34  stm32f0xx_hal_tim.o(i.TIM_TI1_ConfigInputStage)
    i.TIM_TI2_ConfigInputStage               0x0800be92   Section        0  stm32f0xx_hal_tim.o(i.TIM_TI2_ConfigInputStage)
    TIM_TI2_ConfigInputStage                 0x0800be93   Thumb Code    38  stm32f0xx_hal_tim.o(i.TIM_TI2_ConfigInputStage)
    i.UART_AdvFeatureConfig                  0x0800beb8   Section        0  stm32f0xx_hal_uart.o(i.UART_AdvFeatureConfig)
    i.UART_CheckIdleState                    0x0800bf84   Section        0  stm32f0xx_hal_uart.o(i.UART_CheckIdleState)
    i.UART_DMAAbortOnError                   0x0800bff8   Section        0  stm32f0xx_hal_uart.o(i.UART_DMAAbortOnError)
    UART_DMAAbortOnError                     0x0800bff9   Thumb Code    20  stm32f0xx_hal_uart.o(i.UART_DMAAbortOnError)
    i.UART_EndRxTransfer                     0x0800c00c   Section        0  stm32f0xx_hal_uart.o(i.UART_EndRxTransfer)
    UART_EndRxTransfer                       0x0800c00d   Thumb Code    30  stm32f0xx_hal_uart.o(i.UART_EndRxTransfer)
    i.UART_EndTransmit_IT                    0x0800c02a   Section        0  stm32f0xx_hal_uart.o(i.UART_EndTransmit_IT)
    i.UART_Receive_IT                        0x0800c044   Section        0  stm32f0xx_hal_uart.o(i.UART_Receive_IT)
    i.UART_SetConfig                         0x0800c0c0   Section        0  stm32f0xx_hal_uart.o(i.UART_SetConfig)
    i.UART_Transmit_IT                       0x0800c21c   Section        0  stm32f0xx_hal_uart.o(i.UART_Transmit_IT)
    i.UART_WaitOnFlagUntilTimeout            0x0800c282   Section        0  stm32f0xx_hal_uart.o(i.UART_WaitOnFlagUntilTimeout)
    i.USART1_IRQHandler                      0x0800c2e4   Section        0  stm32f0xx_it.o(i.USART1_IRQHandler)
    i._Z12firstSectionv                      0x0800c2f4   Section        0  peripherial_controller.o(i._Z12firstSectionv)
    i._Z13secondSectionv                     0x0800c3b4   Section        0  peripherial_controller.o(i._Z13secondSectionv)
    i._Z14FLASH_If_WritejPhj                 0x0800c474   Section        0  flash_if.o(i._Z14FLASH_If_WritejPhj)
    i._Z14Serial_PutByteh                    0x0800c4b4   Section        0  common.o(i._Z14Serial_PutByteh)
    i._Z14prepare_packetPhS_                 0x0800c4c8   Section        0  common.o(i._Z14prepare_packetPhS_)
    i._Z14remapMemToSRAMv                    0x0800c50c   Section        0  main.o(i._Z14remapMemToSRAMv)
    i._Z14xmodem_receivev                    0x0800c550   Section        0  xmodem.o(i._Z14xmodem_receivev)
    i._Z15xmodem_calc_crcPht                 0x0800c714   Section        0  xmodem.o(i._Z15xmodem_calc_crcPht)
    i._Z16Serial_PutStringPKc                0x0800c74c   Section        0  common.o(i._Z16Serial_PutStringPKc)
    i._Z17Monitor_PutStringPKc               0x0800c76c   Section        0  common.o(i._Z17Monitor_PutStringPKc)
    i._Z18SystemClock_Configv                0x0800c78c   Section        0  main.o(i._Z18SystemClock_Configv)
    i._Z20xmodem_error_handlerPhh            0x0800c824   Section        0  xmodem.o(i._Z20xmodem_error_handlerPhh)
    xmodem_error_handler(unsigned char*, unsigned char) 0x0800c825   Thumb Code    42  xmodem.o(i._Z20xmodem_error_handlerPhh)
    i._Z20xmodem_handle_packeth              0x0800c850   Section        0  xmodem.o(i._Z20xmodem_handle_packeth)
    xmodem_handle_packet(unsigned char)      0x0800c851   Thumb Code   178  xmodem.o(i._Z20xmodem_handle_packeth)
    i._Z4beepii                              0x0800c910   Section        0  peripherial_controller.o(i._Z4beepii)
    i._Z4toneii                              0x0800c924   Section        0  peripherial_controller.o(i._Z4toneii)
    i._Z6noTonev                             0x0800c978   Section        0  peripherial_controller.o(i._Z6noTonev)
    i._Z8calc_crcPhi                         0x0800c98c   Section        0  common.o(i._Z8calc_crcPhi)
    i._Z8dump_memv                           0x0800c9c4   Section        0  menu.o(i._Z8dump_memv)
    i._Z9Main_Menuv                          0x0800ca14   Section        0  menu.o(i._Z9Main_Menuv)
    i._ZN10STATUS_reg13print_currentEv       0x0800cc74   Section        0  status_reg.o(i._ZN10STATUS_reg13print_currentEv)
    i._ZN10STATUS_reg9get_valueEv            0x0800cca8   Section        0  status_reg.o(i._ZN10STATUS_reg9get_valueEv)
    i._ZN10STATUS_regC1Ev                    0x0800ccc4   Section        0  status_reg.o(i._ZN10STATUS_regC1Ev)
    i._ZN10STATUS_regD1Ev                    0x0800ccc6   Section        0  status_reg.o(i._ZN10STATUS_regD1Ev)
    i._ZN11DebugHelper10fast_beepsEv         0x0800ccc8   Section        0  debug_facilities.o(i._ZN11DebugHelper10fast_beepsEv)
    i._ZN11DebugHelper12fast_beeps_2Ev       0x0800cd54   Section        0  debug_facilities.o(i._ZN11DebugHelper12fast_beeps_2Ev)
    i._ZN11DebugHelper12fast_beeps_3Ev       0x0800cde0   Section        0  debug_facilities.o(i._ZN11DebugHelper12fast_beeps_3Ev)
    i._ZN11DebugHelper12update_stateEh       0x0800ce6c   Section        0  debug_facilities.o(i._ZN11DebugHelper12update_stateEh)
    i._ZN11DebugHelper4showEj                0x0800ce9c   Section        0  debug_facilities.o(i._ZN11DebugHelper4showEj)
    i._ZN11DebugHelper6updateEbbbbb          0x0800cf20   Section        0  debug_facilities.o(i._ZN11DebugHelper6updateEbbbbb)
    i._ZN11DebugHelper6updateEj              0x0800cf58   Section        0  debug_facilities.o(i._ZN11DebugHelper6updateEj)
    i._ZN11DebugHelper9long_beepEv           0x0800cf64   Section        0  debug_facilities.o(i._ZN11DebugHelper9long_beepEv)
    i._ZN11DebugHelperC1Ev                   0x0800cf90   Section        0  debug_facilities.o(i._ZN11DebugHelperC1Ev)
    i._ZN11DebugHelperD1Ev                   0x0800cf9e   Section        0  debug_facilities.o(i._ZN11DebugHelperD1Ev)
    i._ZN11Screen_ctrl10print_logoEv         0x0800cfa0   Section        0  screen_controller.o(i._ZN11Screen_ctrl10print_logoEv)
    i._ZN11Screen_ctrl11pass_to_ardEPh       0x0800cfec   Section        0  screen_controller.o(i._ZN11Screen_ctrl11pass_to_ardEPh)
    i._ZN11Screen_ctrl12blank_screenEv       0x0800d00c   Section        0  screen_controller.o(i._ZN11Screen_ctrl12blank_screenEv)
    i._ZN11Screen_ctrl12clean_screenEj       0x0800d024   Section        0  screen_controller.o(i._ZN11Screen_ctrl12clean_screenEj)
    i._ZN11Screen_ctrl12update_piazoEb       0x0800d044   Section        0  screen_controller.o(i._ZN11Screen_ctrl12update_piazoEb)
    i._ZN11Screen_ctrl14update_batteryEjj    0x0800d0b0   Section        0  screen_controller.o(i._ZN11Screen_ctrl14update_batteryEjj)
    i._ZN11Screen_ctrl14update_versionEv     0x0800d124   Section        0  screen_controller.o(i._ZN11Screen_ctrl14update_versionEv)
    i._ZN11Screen_ctrl15update_pressureEj    0x0800d164   Section        0  screen_controller.o(i._ZN11Screen_ctrl15update_pressureEj)
    i._ZN11Screen_ctrl19check_timer_expiredEv 0x0800d190   Section        0  screen_controller.o(i._ZN11Screen_ctrl19check_timer_expiredEv)
    i._ZN11Screen_ctrl20update_pulse_counterEj 0x0800d21c   Section        0  screen_controller.o(i._ZN11Screen_ctrl20update_pulse_counterEj)
    i._ZN11Screen_ctrl21tx_send_general_errorEj 0x0800d240   Section        0  screen_controller.o(i._ZN11Screen_ctrl21tx_send_general_errorEj)
    i._ZN11Screen_ctrl21tx_send_general_errorEjj 0x0800d2f8   Section        0  screen_controller.o(i._ZN11Screen_ctrl21tx_send_general_errorEjj)
    i._ZN11Screen_ctrl22update_error_remainingEj 0x0800d490   Section        0  screen_controller.o(i._ZN11Screen_ctrl22update_error_remainingEj)
    i._ZN11Screen_ctrl27update_remaining_in_percentEjj 0x0800d4f8   Section        0  screen_controller.o(i._ZN11Screen_ctrl27update_remaining_in_percentEjj)
    i._ZN11Screen_ctrl30update_pulse_counter_remainingEjj 0x0800d5c4   Section        0  screen_controller.o(i._ZN11Screen_ctrl30update_pulse_counter_remainingEjj)
    i._ZN11Screen_ctrl6qa_monEbbb            0x0800d5fc   Section        0  screen_controller.o(i._ZN11Screen_ctrl6qa_monEbbb)
    i._ZN11Screen_ctrlC1Ev                   0x0800d66c   Section        0  screen_controller.o(i._ZN11Screen_ctrlC1Ev)
    i._ZN11Screen_ctrlD1Ev                   0x0800d68c   Section        0  screen_controller.o(i._ZN11Screen_ctrlD1Ev)
    i._ZN14adc_controller14pressure_checkEv  0x0800d68e   Section        0  adc_controller.o(i._ZN14adc_controller14pressure_checkEv)
    i._ZN14adc_controller15convert_to_voltEv 0x0800d6ac   Section        0  adc_controller.o(i._ZN14adc_controller15convert_to_voltEv)
    i._ZN14adc_controller18convert_to_celsiusEv 0x0800d6ec   Section        0  adc_controller.o(i._ZN14adc_controller18convert_to_celsiusEv)
    i._ZN14adc_controller18serial_comm_to_adcE14select_channel 0x0800d700   Section        0  adc_controller.o(i._ZN14adc_controller18serial_comm_to_adcE14select_channel)
    i._ZN14adc_controller4readE14select_channel 0x0800d73c   Section        0  adc_controller.o(i._ZN14adc_controller4readE14select_channel)
    i._ZN14adc_controller4readEv             0x0800d784   Section        0  adc_controller.o(i._ZN14adc_controller4readEv)
    i._ZN14adc_controllerC1EP6CS_reg         0x0800d7d4   Section        0  adc_controller.o(i._ZN14adc_controllerC1EP6CS_reg)
    i._ZN14adc_controllerD1Ev                0x0800d7fe   Section        0  adc_controller.o(i._ZN14adc_controllerD1Ev)
    i._ZN15main_controller10idle_stateEv     0x0800d800   Section        0  main_controller.o(i._ZN15main_controller10idle_stateEv)
    i._ZN15main_controller10init_stateEv     0x0800d8ec   Section        0  main_controller.o(i._ZN15main_controller10init_stateEv)
    i._ZN15main_controller12active_stateEv   0x0800dc28   Section        0  main_controller.o(i._ZN15main_controller12active_stateEv)
    i._ZN15main_controller12update_debugEv   0x0800ddb4   Section        0  main_controller.o(i._ZN15main_controller12update_debugEv)
    i._ZN15main_controller12update_stateEv   0x0800ddfc   Section        0  main_controller.o(i._ZN15main_controller12update_stateEv)
    i._ZN15main_controller13added_counterEv  0x0800de84   Section        0  main_controller.o(i._ZN15main_controller13added_counterEv)
    i._ZN15main_controller13is_b_am_validEv  0x0800dfb0   Section        0  main_controller.o(i._ZN15main_controller13is_b_am_validEv)
    i._ZN15main_controller14get_apt_pulsesEv 0x0800dfc0   Section        0  main_controller.o(i._ZN15main_controller14get_apt_pulsesEv)
    i._ZN15main_controller14init_PF_structEP9PF_memory 0x0800dfec   Section        0  main_controller.o(i._ZN15main_controller14init_PF_structEP9PF_memory)
    i._ZN15main_controller14is_b_apt_validEv 0x0800e01e   Section        0  main_controller.o(i._ZN15main_controller14is_b_apt_validEv)
    i._ZN15main_controller14is_b_mcu_validEv 0x0800e02a   Section        0  main_controller.o(i._ZN15main_controller14is_b_mcu_validEv)
    i._ZN15main_controller14read_interlockEv 0x0800e038   Section        0  main.o(i._ZN15main_controller14read_interlockEv)
    i._ZN15main_controller15fire_is_pressedEv 0x0800e05c   Section        0  main_controller.o(i._ZN15main_controller15fire_is_pressedEv)
    i._ZN15main_controller15get_un32_cursorEv 0x0800e0dc   Section        0  main_controller.o(i._ZN15main_controller15get_un32_cursorEv)
    i._ZN15main_controller15get_un32_pulsesEv 0x0800e0e8   Section        0  main_controller.o(i._ZN15main_controller15get_un32_pulsesEv)
    i._ZN15main_controller16is_b_pressure_okEv 0x0800e0f6   Section        0  main_controller.o(i._ZN15main_controller16is_b_pressure_okEv)
    i._ZN15main_controller17get_current_stateEv 0x0800e126   Section        0  main_controller.o(i._ZN15main_controller17get_current_stateEv)
    i._ZN15main_controller17init_before_whileEv 0x0800e176   Section        0  main_controller.o(i._ZN15main_controller17init_before_whileEv)
    i._ZN15main_controller19generate_error_codeEv 0x0800e1a2   Section        0  main_controller.o(i._ZN15main_controller19generate_error_codeEv)
    i._ZN15main_controller19is_b_is_interlockedEv 0x0800e1c8   Section        0  main_controller.o(i._ZN15main_controller19is_b_is_interlockedEv)
    i._ZN15main_controller19set_b_motor_runningEb 0x0800e238   Section        0  main_controller.o(i._ZN15main_controller19set_b_motor_runningEb)
    i._ZN15main_controller19update_opto_counterEv 0x0800e24c   Section        0  main_controller.o(i._ZN15main_controller19update_opto_counterEv)
    i._ZN15main_controller20need_to_stall_staticEv 0x0800e284   Section        0  main_controller.o(i._ZN15main_controller20need_to_stall_staticEv)
    i._ZN15main_controller21need_to_stall_dynamicEv 0x0800e32c   Section        0  main_controller.o(i._ZN15main_controller21need_to_stall_dynamicEv)
    i._ZN15main_controller30write_out_pulses_on_stop_motorEv 0x0800e5c4   Section        0  main_controller.o(i._ZN15main_controller30write_out_pulses_on_stop_motorEv)
    i._ZN15main_controller7get_allEv         0x0800e7cc   Section        0  main_controller.o(i._ZN15main_controller7get_allEv)
    i._ZN15main_controller8qa_stateEv        0x0800e814   Section        0  main_controller.o(i._ZN15main_controller8qa_stateEv)
    i._ZN15main_controllerC1EP11DebugHelperP8Mem_ctrlP18PeripherialDevicesP5StateP11Screen_ctrlP14adc_controller 0x0800e904   Section        0  main_controller.o(i._ZN15main_controllerC1EP11DebugHelperP8Mem_ctrlP18PeripherialDevicesP5StateP11Screen_ctrlP14adc_controller)
    i._ZN15main_controllerD1Ev               0x0800e976   Section        0  main_controller.o(i._ZN15main_controllerD1Ev)
    i._ZN18PeripherialDevices10stop_motorEv  0x0800e978   Section        0  peripherial_controller.o(i._ZN18PeripherialDevices10stop_motorEv)
    i._ZN18PeripherialDevices11start_motorEv 0x0800e994   Section        0  peripherial_controller.o(i._ZN18PeripherialDevices11start_motorEv)
    i._ZN18PeripherialDevices12read_counterEv 0x0800e9b4   Section        0  peripherial_controller.o(i._ZN18PeripherialDevices12read_counterEv)
    i._ZN18PeripherialDevices12toggle_motorEv 0x0800e9c6   Section        0  peripherial_controller.o(i._ZN18PeripherialDevices12toggle_motorEv)
    i._ZN18PeripherialDevices13clear_counterEv 0x0800e9e0   Section        0  peripherial_controller.o(i._ZN18PeripherialDevices13clear_counterEv)
    i._ZN18PeripherialDevices13reverse_motorEv 0x0800e9ec   Section        0  peripherial_controller.o(i._ZN18PeripherialDevices13reverse_motorEv)
    i._ZN18PeripherialDevices15start_motor_pwmEv 0x0800e9f8   Section        0  peripherial_controller.o(i._ZN18PeripherialDevices15start_motor_pwmEv)
    i._ZN18PeripherialDevices4readEv         0x0800ea50   Section        0  peripherial_controller.o(i._ZN18PeripherialDevices4readEv)
    i._ZN18PeripherialDevices9star_warsEv    0x0800ea6c   Section        0  peripherial_controller.o(i._ZN18PeripherialDevices9star_warsEv)
    i._ZN18PeripherialDevicesC1EP6CS_regP10STATUS_reg 0x0800eb2c   Section        0  peripherial_controller.o(i._ZN18PeripherialDevicesC1EP6CS_regP10STATUS_reg)
    i._ZN18PeripherialDevicesD1Ev            0x0800eb36   Section        0  peripherial_controller.o(i._ZN18PeripherialDevicesD1Ev)
    i._ZN5State14read_interlockEv            0x0800eb38   Section        0  state.o(i._ZN5State14read_interlockEv)
    i._ZN5State15init_first_stepEv           0x0800eba0   Section        0  state.o(i._ZN5State15init_first_stepEv)
    i._ZN5StateC1Ev                          0x0800ec84   Section        0  state.o(i._ZN5StateC1Ev)
    i._ZN5StateD1Ev                          0x0800ec8e   Section        0  state.o(i._ZN5StateD1Ev)
    i._ZN6CS_reg10cs_genericE13GPIO_PinState10cs_decoder 0x0800ec90   Section        0  cs_register.o(i._ZN6CS_reg10cs_genericE13GPIO_PinState10cs_decoder)
    i._ZN6CS_reg14store_registerEv           0x0800ed3c   Section        0  cs_register.o(i._ZN6CS_reg14store_registerEv)
    i._ZN6CS_reg15motor_cmd_tightEb          0x0800ed54   Section        0  cs_register.o(i._ZN6CS_reg15motor_cmd_tightEb)
    i._ZN6CS_reg17motor_cmd_reverseEv        0x0800edfc   Section        0  cs_register.o(i._ZN6CS_reg17motor_cmd_reverseEv)
    i._ZN6CS_reg19pull_chipselet_lineE13GPIO_PinState 0x0800ee40   Section        0  cs_register.o(i._ZN6CS_reg19pull_chipselet_lineE13GPIO_PinState)
    i._ZN6CS_reg20read_back_current_csEv     0x0800ee50   Section        0  cs_register.o(i._ZN6CS_reg20read_back_current_csEv)
    i._ZN6CS_reg21cs_clear_opto_counterE13GPIO_PinState 0x0800eefc   Section        0  cs_register.o(i._ZN6CS_reg21cs_clear_opto_counterE13GPIO_PinState)
    i._ZN6CS_reg3cs1E13GPIO_PinState         0x0800ef14   Section        0  cs_register.o(i._ZN6CS_reg3cs1E13GPIO_PinState)
    i._ZN6CS_reg3cs2E13GPIO_PinState         0x0800efb0   Section        0  cs_register.o(i._ZN6CS_reg3cs2E13GPIO_PinState)
    i._ZN6CS_reg3cs3E13GPIO_PinState         0x0800efc6   Section        0  cs_register.o(i._ZN6CS_reg3cs3E13GPIO_PinState)
    i._ZN6CS_reg6cs_a2dE13GPIO_PinState      0x0800efdc   Section        0  cs_register.o(i._ZN6CS_reg6cs_a2dE13GPIO_PinState)
    i._ZN6CS_reg9cs_statusE13GPIO_PinState   0x0800f010   Section        0  cs_register.o(i._ZN6CS_reg9cs_statusE13GPIO_PinState)
    i._ZN6CS_reg9set_valueEh                 0x0800f028   Section        0  cs_register.o(i._ZN6CS_reg9set_valueEh)
    i._ZN6CS_regC1Ev                         0x0800f068   Section        0  cs_register.o(i._ZN6CS_regC1Ev)
    i._ZN6CS_regD1Ev                         0x0800f080   Section        0  cs_register.o(i._ZN6CS_regD1Ev)
    i._ZN6Memory12print_statusEv             0x0800f084   Section        0  mem.o(i._ZN6Memory12print_statusEv)
    i._ZN6Memory12write_enableEv             0x0800f108   Section        0  mem.o(i._ZN6Memory12write_enableEv)
    i._ZN6Memory13write_disableEv            0x0800f120   Section        0  mem.o(i._ZN6Memory13write_disableEv)
    i._ZN6Memory21read_status_register1Ev    0x0800f138   Section        0  mem.o(i._ZN6Memory21read_status_register1Ev)
    i._ZN6Memory21read_status_register2Ev    0x0800f160   Section        0  mem.o(i._ZN6Memory21read_status_register2Ev)
    i._ZN6Memory21write_status_registerEt    0x0800f188   Section        0  mem.o(i._ZN6Memory21write_status_registerEt)
    i._ZN6Memory4readEj                      0x0800f1a8   Section        0  mem.o(i._ZN6Memory4readEj)
    i._ZN6Memory5eraseEj                     0x0800f1f0   Section        0  mem.o(i._ZN6Memory5eraseEj)
    i._ZN6Memory5eraseEv                     0x0800f224   Section        0  mem.o(i._ZN6Memory5eraseEv)
    i._ZN6Memory5writeEjj                    0x0800f23c   Section        0  mem.o(i._ZN6Memory5writeEjj)
    i._ZN6Memory6get_idEv                    0x0800f28c   Section        0  mem.o(i._ZN6Memory6get_idEv)
    i._ZN6Memory6read16Ej                    0x0800f2b4   Section        0  mem.o(i._ZN6Memory6read16Ej)
    i._ZN6Memory8check_idEv                  0x0800f3f0   Section        0  mem.o(i._ZN6Memory8check_idEv)
    i._ZN6MemoryC1Eh                         0x0800f410   Section        0  mem.o(i._ZN6MemoryC1Eh)
    i._ZN6MemoryD1Ev                         0x0800f45c   Section        0  mem.o(i._ZN6MemoryD1Ev)
    i._ZN7monitor10rx_patternEv              0x0800f460   Section        0  monitor.o(i._ZN7monitor10rx_patternEv)
    i._ZN7monitor11rx_set_dateEv             0x0800f4dc   Section        0  monitor.o(i._ZN7monitor11rx_set_dateEv)
    i._ZN7monitor11rx_set_maxiEv             0x0800f524   Section        0  monitor.o(i._ZN7monitor11rx_set_maxiEv)
    i._ZN7monitor12rx_go_activeEv            0x0800f56c   Section        0  monitor.o(i._ZN7monitor12rx_go_activeEv)
    i._ZN7monitor12rx_read_backEv            0x0800f592   Section        0  monitor.o(i._ZN7monitor12rx_read_backEv)
    i._ZN7monitor12rx_test_readEv            0x0800f5a0   Section        0  monitor.o(i._ZN7monitor12rx_test_readEv)
    i._ZN7monitor13rx_get_man_idEv           0x0800f67c   Section        0  monitor.o(i._ZN7monitor13rx_get_man_idEv)
    i._ZN7monitor13rx_set_serialEv           0x0800f698   Section        0  monitor.o(i._ZN7monitor13rx_set_serialEv)
    i._ZN7monitor13rx_stop_motorEv           0x0800f700   Section        0  monitor.o(i._ZN7monitor13rx_stop_motorEv)
    i._ZN7monitor14rx_find_pulsesEv          0x0800f728   Section        0  monitor.o(i._ZN7monitor14rx_find_pulsesEv)
    i._ZN7monitor14rx_start_motorEv          0x0800f78c   Section        0  monitor.o(i._ZN7monitor14rx_start_motorEv)
    i._ZN7monitor14rx_status_readEv          0x0800f7b4   Section        0  monitor.o(i._ZN7monitor14rx_status_readEv)
    i._ZN7monitor14serial_consumeEv          0x0800f7d0   Section        0  monitor.o(i._ZN7monitor14serial_consumeEv)
    i._ZN7monitor15rx_status_writeEv         0x0800f944   Section        0  monitor.o(i._ZN7monitor15rx_status_writeEv)
    i._ZN7monitor16parse_input_uartEv        0x0800f970   Section        0  monitor.o(i._ZN7monitor16parse_input_uartEv)
    i._ZN7monitor16rx_reverse_motorEv        0x0800ff98   Section        0  monitor.o(i._ZN7monitor16rx_reverse_motorEv)
    i._ZN7monitor18rx_status_reg_readEv      0x0800ffa4   Section        0  monitor.o(i._ZN7monitor18rx_status_reg_readEv)
    i._ZN7monitor19rx_get_man_id_checkEv     0x0800ffbc   Section        0  monitor.o(i._ZN7monitor19rx_get_man_id_checkEv)
    i._ZN7monitor6rx_adcEv                   0x0801005c   Section        0  monitor.o(i._ZN7monitor6rx_adcEv)
    i._ZN7monitor7rx_exitEv                  0x080100b4   Section        0  monitor.o(i._ZN7monitor7rx_exitEv)
    i._ZN7monitor7rx_nukeEv                  0x080100d0   Section        0  monitor.o(i._ZN7monitor7rx_nukeEv)
    i._ZN7monitor7rx_passEv                  0x080100ea   Section        0  monitor.o(i._ZN7monitor7rx_passEv)
    i._ZN7monitor7rx_readEv                  0x08010104   Section        0  monitor.o(i._ZN7monitor7rx_readEv)
    i._ZN7monitor7rx_scanEhj                 0x0801016c   Section        0  monitor.o(i._ZN7monitor7rx_scanEhj)
    i._ZN7monitor7rx_scanEv                  0x08010178   Section        0  monitor.o(i._ZN7monitor7rx_scanEv)
    i._ZN7monitor8rx_blinkEv                 0x080101c4   Section        0  monitor.o(i._ZN7monitor8rx_blinkEv)
    i._ZN7monitor8rx_debugEv                 0x08010264   Section        0  monitor.o(i._ZN7monitor8rx_debugEv)
    i._ZN7monitor8rx_eraseEv                 0x08010278   Section        0  monitor.o(i._ZN7monitor8rx_eraseEv)
    i._ZN7monitor8rx_writeEv                 0x080102d8   Section        0  monitor.o(i._ZN7monitor8rx_writeEv)
    i._ZN7monitorC1EP15main_controller       0x08010398   Section        0  monitor.o(i._ZN7monitorC1EP15main_controller)
    i._ZN7monitorD1Ev                        0x080103cc   Section        0  monitor.o(i._ZN7monitorD1Ev)
    i._ZN8Mem_ctrl10get_serialEh             0x080103d0   Section        0  mem_controller.o(i._ZN8Mem_ctrl10get_serialEh)
    i._ZN8Mem_ctrl10get_serialEv             0x0801041c   Section        0  mem_controller.o(i._ZN8Mem_ctrl10get_serialEv)
    i._ZN8Mem_ctrl10write_onceEhjj           0x08010430   Section        0  mem_controller.o(i._ZN8Mem_ctrl10write_onceEhjj)
    i._ZN8Mem_ctrl13get_ap_offsetEv          0x080105f4   Section        0  mem_controller.o(i._ZN8Mem_ctrl13get_ap_offsetEv)
    i._ZN8Mem_ctrl13poll_completeEhj         0x08010704   Section        0  mem_controller.o(i._ZN8Mem_ctrl13poll_completeEhj)
    i._ZN8Mem_ctrl14print_registerEh         0x080107c4   Section        0  mem_controller.o(i._ZN8Mem_ctrl14print_registerEh)
    i._ZN8Mem_ctrl14write_registerEht        0x08010808   Section        0  mem_controller.o(i._ZN8Mem_ctrl14write_registerEht)
    i._ZN8Mem_ctrl16binary_and_patchEv       0x0801084c   Section        0  mem_controller.o(i._ZN8Mem_ctrl16binary_and_patchEv)
    i._ZN8Mem_ctrl16chip_select_pullEh13GPIO_PinState 0x08010b54   Section        0  mem_controller.o(i._ZN8Mem_ctrl16chip_select_pullEh13GPIO_PinState)
    i._ZN8Mem_ctrl17check_connectionsEh      0x08010b8c   Section        0  mem_controller.o(i._ZN8Mem_ctrl17check_connectionsEh)
    i._ZN8Mem_ctrl17check_connectionsEv      0x08010bac   Section        0  mem_controller.o(i._ZN8Mem_ctrl17check_connectionsEv)
    i._ZN8Mem_ctrl18read_skip_problemsEhj    0x08010bd8   Section        0  mem_controller.o(i._ZN8Mem_ctrl18read_skip_problemsEhj)
    i._ZN8Mem_ctrl20read_back_current_csEv   0x08010c16   Section        0  mem_controller.o(i._ZN8Mem_ctrl20read_back_current_csEv)
    i._ZN8Mem_ctrl32check_connections_with_printbackEh 0x08010c20   Section        0  mem_controller.o(i._ZN8Mem_ctrl32check_connections_with_printbackEh)
    i._ZN8Mem_ctrl4readEhj                   0x08010c84   Section        0  mem_controller.o(i._ZN8Mem_ctrl4readEhj)
    i._ZN8Mem_ctrl5eraseEh                   0x08010c8c   Section        0  mem_controller.o(i._ZN8Mem_ctrl5eraseEh)
    i._ZN8Mem_ctrl5eraseEhj                  0x08010cca   Section        0  mem_controller.o(i._ZN8Mem_ctrl5eraseEhj)
    i._ZN8Mem_ctrl5writeEhjj                 0x08010d0c   Section        0  mem_controller.o(i._ZN8Mem_ctrl5writeEhjj)
    i._ZN8Mem_ctrl7get_maxEh                 0x08010d34   Section        0  mem_controller.o(i._ZN8Mem_ctrl7get_maxEh)
    i._ZN8Mem_ctrl7get_maxEv                 0x08010d5c   Section        0  mem_controller.o(i._ZN8Mem_ctrl7get_maxEv)
    i._ZN8Mem_ctrl7read256Ehj                0x08010d6c   Section        0  mem_controller.o(i._ZN8Mem_ctrl7read256Ehj)
    i._ZN8Mem_ctrl8get_dateEh                0x08010da0   Section        0  mem_controller.o(i._ZN8Mem_ctrl8get_dateEh)
    i._ZN8Mem_ctrl8get_dateEv                0x08010dc8   Section        0  mem_controller.o(i._ZN8Mem_ctrl8get_dateEv)
    i._ZN8Mem_ctrl9LOG_DEBUGEjjjj            0x08010dd8   Section        0  mem_controller.o(i._ZN8Mem_ctrl9LOG_DEBUGEjjjj)
    i._ZN8Mem_ctrl9LOG_WRITEE13stall_log_out 0x08010de4   Section        0  mem_controller.o(i._ZN8Mem_ctrl9LOG_WRITEE13stall_log_out)
    i._ZN8Mem_ctrl9read_onceEhj              0x08010e7c   Section        0  mem_controller.o(i._ZN8Mem_ctrl9read_onceEhj)
    i._ZN8Mem_ctrlC1EP6MemoryS1_S1_P6CS_reg  0x08010ea0   Section        0  mem_controller.o(i._ZN8Mem_ctrlC1EP6MemoryS1_S1_P6CS_reg)
    i._ZN8Mem_ctrlD1Ev                       0x08010eae   Section        0  mem_controller.o(i._ZN8Mem_ctrlD1Ev)
    i.__ARM_common_switch8                   0x08010eb0   Section        0  main.o(i.__ARM_common_switch8)
    i.__cxa_guard_acquire                    0x08010eca   Section        0  cxa_guard_acquire.o(i.__cxa_guard_acquire)
    i.__sti___8_main_cpp_debug               0x08010edc   Section        0  main.o(i.__sti___8_main_cpp_debug)
    __sti___8_main_cpp_debug                 0x08010edd   Thumb Code   262  main.o(i.__sti___8_main_cpp_debug)
    i._is_digit                              0x08011020   Section        0  __printf_wp.o(i._is_digit)
    i.cs3                                    0x0801102e   Section        0  stm32f0xx_it.o(i.cs3)
    i.cs_generic                             0x0801103c   Section        0  stm32f0xx_it.o(i.cs_generic)
    i.delay                                  0x08011070   Section        0  common.o(i.delay)
    i.delay_with_watchdog                    0x08011088   Section        0  common.o(i.delay_with_watchdog)
    i.main                                   0x080110b4   Section        0  main.o(i.main)
    i.pull_chipselet_line                    0x080112bc   Section        0  stm32f0xx_it.o(i.pull_chipselet_line)
    i.read                                   0x080112cc   Section        0  stm32f0xx_it.o(i.read)
    i.read_reset_button                      0x08011314   Section        0  stm32f0xx_it.o(i.read_reset_button)
    i.read_reset_button_aux                  0x08011324   Section        0  common.o(i.read_reset_button_aux)
    i.test_for_reset_press                   0x08011340   Section        0  stm32f0xx_it.o(i.test_for_reset_press)
    i.test_for_reset_press_aux               0x08011370   Section        0  common.o(i.test_for_reset_press_aux)
    i.translate_address_to_int               0x080113a0   Section        0  common.o(i.translate_address_to_int)
    i.translate_int_to_address               0x080113b6   Section        0  common.o(i.translate_int_to_address)
    i.translate_int_to_arr                   0x080113c2   Section        0  common.o(i.translate_int_to_arr)
    i.write                                  0x080113d4   Section        0  stm32f0xx_it.o(i.write)
    i.write_disable                          0x08011424   Section        0  stm32f0xx_it.o(i.write_disable)
    i.write_enable                           0x0801143c   Section        0  stm32f0xx_it.o(i.write_enable)
    i.write_once                             0x08011454   Section        0  stm32f0xx_it.o(i.write_once)
    locale$$code                             0x0801150c   Section       44  lc_ctype_c.o(locale$$code)
    .constdata                               0x08011538   Section       72  main_controller.o(.constdata)
    init_stat                                0x08011538   Data          13  main_controller.o(.constdata)
    init_stat_2                              0x08011545   Data          33  main_controller.o(.constdata)
    mem_stat                                 0x08011566   Data          26  main_controller.o(.constdata)
    .constdata                               0x08011580   Section     1057  peripherial_controller.o(.constdata)
    motor_stat_start_c                       0x08011580   Data          17  peripherial_controller.o(.constdata)
    motor_stat_stop_c                        0x08011591   Data          17  peripherial_controller.o(.constdata)
    pwm_steps_cnt                            0x080115a4   Data        1000  peripherial_controller.o(.constdata)
    motor_stat_start_pwm_c                   0x0801198c   Data          21  peripherial_controller.o(.constdata)
    .constdata                               0x080119a1   Section      496  screen_controller.o(.constdata)
    logo                                     0x080119a1   Data         496  screen_controller.o(.constdata)
    .constdata                               0x08011b91   Section      424  monitor.o(.constdata)
    motor_stat_stop_c                        0x08011b91   Data          16  monitor.o(.constdata)
    motor_stat_start_c                       0x08011ba1   Data          17  monitor.o(.constdata)
    help_str                                 0x08011bb2   Data         391  monitor.o(.constdata)
    .constdata                               0x08011d39   Section       16  system_stm32f0xx.o(.constdata)
    .constdata                               0x08011d49   Section        8  system_stm32f0xx.o(.constdata)
    .constdata                               0x08011d51   Section       40  _printf_hex_int.o(.constdata)
    uc_hextab                                0x08011d51   Data          20  _printf_hex_int.o(.constdata)
    lc_hextab                                0x08011d65   Data          20  _printf_hex_int.o(.constdata)
    .constdata                               0x08011d79   Section       17  __printf_flags_ss_wp.o(.constdata)
    maptable                                 0x08011d79   Data          17  __printf_flags_ss_wp.o(.constdata)
    .conststring                             0x08011d8c   Section      197  mem.o(.conststring)
    .conststring                             0x08011e54   Section      301  menu.o(.conststring)
    .conststring                             0x08011f84   Section       65  screen_controller.o(.conststring)
    .conststring                             0x08011fc8   Section       94  status_reg.o(.conststring)
    locale$$data                             0x08012048   Section      272  lc_ctype_c.o(locale$$data)
    __lcctype_c_name                         0x0801204c   Data           2  lc_ctype_c.o(locale$$data)
    __lcctype_c_start                        0x08012054   Data           0  lc_ctype_c.o(locale$$data)
    .init_array                              0x08012158   Section        4  main.o(.init_array)
    __lcctype_c_end                          0x08012158   Data           0  lc_ctype_c.o(locale$$data)
    .init_array                              0x0801215c   Section        0  init_aeabi.o(.init_array)
    .RAMVectorTable                          0x20000000   Section      192  main.o(.RAMVectorTable)
    .data                                    0x200000c0   Section       22  main.o(.data)
    .data                                    0x200000d8   Section        4  main.o(.data)
    .data                                    0x200000dc   Section        1  main.o(.data)
    .data                                    0x200000dd   Section        1  main.o(.data)
    .data                                    0x200000de   Section        1  main.o(.data)
    .data                                    0x200000e0   Section        2  common.o(.data)
    button_history                           0x200000e0   Data           2  common.o(.data)
    .data                                    0x200000e4   Section        4  cs_register.o(.data)
    cs_line_select                           0x200000e4   Data           4  cs_register.o(.data)
    .data                                    0x200000e8   Section      331  main_controller.o(.data)
    button_history                           0x200000e8   Data           1  main_controller.o(.data)
    new_opto_amount                          0x200000e9   Data           1  main_controller.o(.data)
    once_before_last_amount                  0x200000ea   Data           1  main_controller.o(.data)
    additional_counts                        0x200000eb   Data           1  main_controller.o(.data)
    wait_for_the_flip                        0x200000ec   Data           1  main_controller.o(.data)
    pressure_drops                           0x200000ed   Data           1  main_controller.o(.data)
    button_history                           0x200000ee   Data           2  main_controller.o(.data)
    beep_once                                0x200000f0   Data           4  main_controller.o(.data)
    _ZGVonce_before_last_amount              0x200000f4   Data           4  main_controller.o(.data)
    _ZGVnew_opto_amount                      0x200000f8   Data           4  main_controller.o(.data)
    _ZGVpressure_stall_lingering_timer       0x200000fc   Data           4  main_controller.o(.data)
    pressure_stall_lingering_timer           0x20000100   Data           4  main_controller.o(.data)
    AM_FAILS                                 0x20000104   Data           4  main_controller.o(.data)
    writeout_str                             0x20000108   Data          21  main_controller.o(.data)
    fire_str                                 0x2000011d   Data          16  main_controller.o(.data)
    stall_run_str                            0x2000012d   Data          29  main_controller.o(.data)
    stall_reason_p                           0x2000014a   Data          19  main_controller.o(.data)
    stall_reason_i                           0x2000015d   Data          20  main_controller.o(.data)
    stall_reason_am                          0x20000171   Data          26  main_controller.o(.data)
    stall_dynamic_str                        0x2000018b   Data          25  main_controller.o(.data)
    stall_dynamic_reason_p                   0x200001a4   Data          19  main_controller.o(.data)
    stall_dynamic_reason_c                   0x200001b7   Data          18  main_controller.o(.data)
    stall_dynamic_reason_T                   0x200001c9   Data          22  main_controller.o(.data)
    stall_dynamic_reason_m                   0x200001df   Data          20  main_controller.o(.data)
    stall_dynamic_reason_i                   0x200001f3   Data          20  main_controller.o(.data)
    stall_dynamic_reason_mem                 0x20000207   Data          23  main_controller.o(.data)
    stall_dynamic_reason_a                   0x2000021e   Data          21  main_controller.o(.data)
    .data                                    0x20000234   Section       44  screen_controller.o(.data)
    is_reset_sent                            0x20000234   Data           1  screen_controller.o(.data)
    j                                        0x20000238   Data           4  screen_controller.o(.data)
    _ZGVlast_sent_time                       0x2000023c   Data           4  screen_controller.o(.data)
    _ZGVremainder_scaled                     0x20000240   Data           4  screen_controller.o(.data)
    _ZGVmaxi                                 0x20000244   Data           4  screen_controller.o(.data)
    maxi                                     0x20000248   Data           4  screen_controller.o(.data)
    percent_remaining                        0x2000024c   Data           4  screen_controller.o(.data)
    remainder_scaled                         0x20000250   Data           4  screen_controller.o(.data)
    last_sent_time                           0x20000254   Data           4  screen_controller.o(.data)
    _ZGVlast_sent_time                       0x20000258   Data           4  screen_controller.o(.data)
    last_sent_time                           0x2000025c   Data           4  screen_controller.o(.data)
    .data                                    0x20000260   Section        8  xmodem.o(.data)
    xmodem_packet_number                     0x20000260   Data           1  xmodem.o(.data)
    x_first_packet_received                  0x20000261   Data           1  xmodem.o(.data)
    xmodem_actual_flash_address              0x20000264   Data           4  xmodem.o(.data)
    .data                                    0x20000268   Section      103  monitor.o(.data)
    temp_pulses                              0x20000268   Data           4  monitor.o(.data)
    snum                                     0x2000026c   Data           5  monitor.o(.data)
    date_t                                   0x20000271   Data           5  monitor.o(.data)
    maxi                                     0x20000276   Data           5  monitor.o(.data)
    watchmen                                 0x2000027b   Data          20  monitor.o(.data)
    counter_method_str                       0x2000028f   Data          18  monitor.o(.data)
    error_uart                               0x200002a1   Data          16  monitor.o(.data)
    rst_press_str                            0x200002b1   Data          17  monitor.o(.data)
    interlock                                0x200002c2   Data          13  monitor.o(.data)
    .data                                    0x200002d0   Section        4  stm32f0xx_it.o(.data)
    current                                  0x200002d0   Data           1  stm32f0xx_it.o(.data)
    current                                  0x200002d1   Data           1  stm32f0xx_it.o(.data)
    button_history                           0x200002d2   Data           2  stm32f0xx_it.o(.data)
    .data                                    0x200002d4   Section        4  stm32f0xx_hal.o(.data)
    .data                                    0x200002d8   Section        4  system_stm32f0xx.o(.data)
    .data__ZZN15main_controller14read_interlockEvE7history 0x200002dc   Section        2  main.o(.data__ZZN15main_controller14read_interlockEvE7history)
    .bss                                     0x200002e0   Section      524  main.o(.bss)
    .bss                                     0x200004ec   Section     1029  main.o(.bss)
    .bss                                     0x200008f1   Section      256  main.o(.bss)
    .bss                                     0x200009f1   Section      256  main.o(.bss)
    .bss                                     0x20000af1   Section      256  main.o(.bss)
    .bss                                     0x20000bf1   Section      120  main_controller.o(.bss)
    writeout_str_data                        0x20000bf1   Data          20  main_controller.o(.bss)
    opto_stat                                0x20000c05   Data         100  main_controller.o(.bss)
    .bss                                     0x20000c69   Section      548  mem.o(.bss)
    message                                  0x20000c69   Data         256  mem.o(.bss)
    message_register                         0x20000d69   Data         256  mem.o(.bss)
    spi_read_data                            0x20000e69   Data          16  mem.o(.bss)
    value                                    0x20000e79   Data          20  mem.o(.bss)
    .bss                                     0x20000e8d   Section      145  mem_controller.o(.bss)
    str_value_mismatch                       0x20000e8d   Data          50  mem_controller.o(.bss)
    str_value_mismatch                       0x20000ebf   Data          50  mem_controller.o(.bss)
    str_serial_num                           0x20000ef1   Data          45  mem_controller.o(.bss)
    .bss                                     0x20000f1e   Section       20  menu.o(.bss)
    dump_c                                   0x20000f1e   Data          20  menu.o(.bss)
    .bss                                     0x20000f32   Section      100  status_reg.o(.bss)
    status                                   0x20000f32   Data         100  status_reg.o(.bss)
    .bss                                     0x20000f96   Section      100  monitor.o(.bss)
    ap_status                                0x20000f96   Data         100  monitor.o(.bss)
    .bss                                     0x20000ffc   Section      144  adc.o(.bss)
    .bss                                     0x2000108c   Section       36  crc.o(.bss)
    .bss                                     0x200010b0   Section       32  rtc.o(.bss)
    .bss                                     0x200010d0   Section      100  spi.o(.bss)
    .bss                                     0x20001134   Section      192  tim.o(.bss)
    .bss                                     0x200011f4   Section      224  usart.o(.bss)
    .bss                                     0x200012d4   Section       64  stm32f0xx_hal_timebase_tim.o(.bss)
    .bss                                     0x20001314   Section       96  libspace.o(.bss)
    HEAP                                     0x20001378   Section      512  startup_stm32f072xb.o(HEAP)
    Heap_Mem                                 0x20001378   Data         512  startup_stm32f072xb.o(HEAP)
    STACK                                    0x20001578   Section     1024  startup_stm32f072xb.o(STACK)
    Stack_Mem                                0x20001578   Data        1024  startup_stm32f072xb.o(STACK)
    __initial_sp                             0x20001978   Data           0  startup_stm32f072xb.o(STACK)

    Global Symbols

    Symbol Name                              Value     Ov Type        Size  Object(Section)

    BuildAttributes$$THM_ISAv3M$S$PE$A:L22$X:L11$S22$IEEE1$IW$USESV6$~STKCKD$USESV7$~SHL$OTIME$ROPI$EBA8$UX$STANDARDLIB$REQ8$PRES8$EABIv2 0x00000000   Number         0  anon$$obj.o ABSOLUTE
    __ARM_use_no_argv                        0x00000000   Number         0  main.o ABSOLUTE
    _printf_flags                            0x00000000   Number         0  printf_stubs.o ABSOLUTE
    _printf_return_value                     0x00000000   Number         0  printf_stubs.o ABSOLUTE
    _printf_sizespec                         0x00000000   Number         0  printf_stubs.o ABSOLUTE
    _printf_widthprec                        0x00000000   Number         0  printf_stubs.o ABSOLUTE
    __ARM_exceptions_init                     - Undefined Weak Reference
    __alloca_initialize                       - Undefined Weak Reference
    __arm_preinit_                            - Undefined Weak Reference
    __sigvec_lookup                           - Undefined Weak Reference
    __user_heap_extent                        - Undefined Weak Reference
    _atexit_init                              - Undefined Weak Reference
    _call_atexit_fns                          - Undefined Weak Reference
    _clock_init                               - Undefined Weak Reference
    _fp_trap_init                             - Undefined Weak Reference
    _fp_trap_shutdown                         - Undefined Weak Reference
    _get_lc_collate                           - Undefined Weak Reference
    _get_lc_monetary                          - Undefined Weak Reference
    _get_lc_numeric                           - Undefined Weak Reference
    _get_lc_time                              - Undefined Weak Reference
    _getenv_init                              - Undefined Weak Reference
    _handle_redirection                       - Undefined Weak Reference
    _initio                                   - Undefined Weak Reference
    _mutex_acquire                            - Undefined Weak Reference
    _mutex_free                               - Undefined Weak Reference
    _mutex_release                            - Undefined Weak Reference
    _printf_mbtowc                            - Undefined Weak Reference
    _printf_truncate_signed                   - Undefined Weak Reference
    _printf_truncate_unsigned                 - Undefined Weak Reference
    _rand_init                                - Undefined Weak Reference
    _signal_finish                            - Undefined Weak Reference
    _signal_init                              - Undefined Weak Reference
    _terminateio                              - Undefined Weak Reference
    __Vectors_Size                           0x000000c0   Number         0  startup_stm32f072xb.o ABSOLUTE
    __Vectors                                0x08008000   Data           4  startup_stm32f072xb.o(RESET)
    __dso_handle                             0x08008000   Number         0  startup_stm32f072xb.o(RESET)
    __Vectors_End                            0x080080c0   Data           0  startup_stm32f072xb.o(RESET)
    __main                                   0x080080c1   Thumb Code     8  __main.o(!!!main)
    __scatterload                            0x080080c9   Thumb Code     0  __scatter.o(!!!scatter)
    __scatterload_rt2                        0x080080c9   Thumb Code    52  __scatter.o(!!!scatter)
    __scatterload_rt2_thumb_only             0x080080c9   Thumb Code     0  __scatter.o(!!!scatter)
    __scatterload_null                       0x080080d9   Thumb Code     0  __scatter.o(!!!scatter)
    __scatterload_zeroinit                   0x08008105   Thumb Code    28  __scatter_zi.o(!!handler_zi)
    _printf_percent                          0x08008121   Thumb Code     0  _printf_percent.o(.ARM.Collect$$_printf_percent$$00000000)
    _printf_d                                0x08008123   Thumb Code     0  _printf_d.o(.ARM.Collect$$_printf_percent$$00000009)
    _printf_u                                0x0800812d   Thumb Code     0  _printf_u.o(.ARM.Collect$$_printf_percent$$0000000A)
    _printf_x                                0x08008137   Thumb Code     0  _printf_x.o(.ARM.Collect$$_printf_percent$$0000000C)
    _printf_s                                0x08008141   Thumb Code     0  _printf_s.o(.ARM.Collect$$_printf_percent$$00000014)
    _printf_percent_end                      0x0800814b   Thumb Code     0  _printf_percent_end.o(.ARM.Collect$$_printf_percent$$00000017)
    __rt_lib_init                            0x0800814f   Thumb Code     0  libinit.o(.ARM.Collect$$libinit$$00000000)
    __rt_lib_init_fp_1                       0x08008151   Thumb Code     0  libinit2.o(.ARM.Collect$$libinit$$00000002)
    __rt_lib_init_heap_2                     0x08008151   Thumb Code     0  libinit2.o(.ARM.Collect$$libinit$$00000005)
    __rt_lib_init_preinit_1                  0x08008151   Thumb Code     0  libinit2.o(.ARM.Collect$$libinit$$00000004)
    __rt_lib_init_heap_1                     0x08008159   Thumb Code     0  libinit2.o(.ARM.Collect$$libinit$$0000000A)
    __rt_lib_init_lc_common                  0x08008159   Thumb Code     0  libinit2.o(.ARM.Collect$$libinit$$0000000F)
    __rt_lib_init_rand_1                     0x08008159   Thumb Code     0  libinit2.o(.ARM.Collect$$libinit$$0000000E)
    __rt_lib_init_user_alloc_1               0x08008159   Thumb Code     0  libinit2.o(.ARM.Collect$$libinit$$0000000C)
    __rt_lib_init_lc_collate_1               0x0800815f   Thumb Code     0  libinit2.o(.ARM.Collect$$libinit$$00000011)
    __rt_lib_init_lc_ctype_2                 0x0800815f   Thumb Code     0  libinit2.o(.ARM.Collect$$libinit$$00000012)
    __rt_lib_init_alloca_1                   0x0800816b   Thumb Code     0  libinit2.o(.ARM.Collect$$libinit$$0000002E)
    __rt_lib_init_argv_1                     0x0800816b   Thumb Code     0  libinit2.o(.ARM.Collect$$libinit$$0000002C)
    __rt_lib_init_atexit_1                   0x0800816b   Thumb Code     0  libinit2.o(.ARM.Collect$$libinit$$0000001B)
    __rt_lib_init_clock_1                    0x0800816b   Thumb Code     0  libinit2.o(.ARM.Collect$$libinit$$00000021)
    __rt_lib_init_cpp_2                      0x0800816b   Thumb Code     0  libinit2.o(.ARM.Collect$$libinit$$00000031)
    __rt_lib_init_exceptions_1               0x0800816b   Thumb Code     0  libinit2.o(.ARM.Collect$$libinit$$00000030)
    __rt_lib_init_fp_trap_1                  0x0800816b   Thumb Code     0  libinit2.o(.ARM.Collect$$libinit$$0000001F)
    __rt_lib_init_getenv_1                   0x0800816b   Thumb Code     0  libinit2.o(.ARM.Collect$$libinit$$00000023)
    __rt_lib_init_lc_ctype_1                 0x0800816b   Thumb Code     0  libinit2.o(.ARM.Collect$$libinit$$00000013)
    __rt_lib_init_lc_monetary_1              0x0800816b   Thumb Code     0  libinit2.o(.ARM.Collect$$libinit$$00000015)
    __rt_lib_init_lc_numeric_1               0x0800816b   Thumb Code     0  libinit2.o(.ARM.Collect$$libinit$$00000017)
    __rt_lib_init_lc_time_1                  0x0800816b   Thumb Code     0  libinit2.o(.ARM.Collect$$libinit$$00000019)
    __rt_lib_init_signal_1                   0x0800816b   Thumb Code     0  libinit2.o(.ARM.Collect$$libinit$$0000001D)
    __rt_lib_init_stdio_1                    0x0800816b   Thumb Code     0  libinit2.o(.ARM.Collect$$libinit$$00000025)
    __rt_lib_init_cpp_1                      0x0800816f   Thumb Code     0  libinit2.o(.ARM.Collect$$libinit$$00000032)
    __rt_lib_init_return                     0x0800816f   Thumb Code     0  libinit2.o(.ARM.Collect$$libinit$$00000033)
    __rt_lib_shutdown                        0x08008171   Thumb Code     0  libshutdown.o(.ARM.Collect$$libshutdown$$00000000)
    __rt_lib_shutdown_cpp_2                  0x08008173   Thumb Code     0  libshutdown2.o(.ARM.Collect$$libshutdown$$00000001)
    __rt_lib_shutdown_cpp_1                  0x08008179   Thumb Code     0  libshutdown2.o(.ARM.Collect$$libshutdown$$00000002)
    __rt_lib_shutdown_fp_trap_1              0x08008179   Thumb Code     0  libshutdown2.o(.ARM.Collect$$libshutdown$$00000007)
    __rt_lib_shutdown_heap_1                 0x08008179   Thumb Code     0  libshutdown2.o(.ARM.Collect$$libshutdown$$0000000F)
    __rt_lib_shutdown_return                 0x08008179   Thumb Code     0  libshutdown2.o(.ARM.Collect$$libshutdown$$00000010)
    __rt_lib_shutdown_signal_1               0x08008179   Thumb Code     0  libshutdown2.o(.ARM.Collect$$libshutdown$$0000000A)
    __rt_lib_shutdown_stdio_1                0x08008179   Thumb Code     0  libshutdown2.o(.ARM.Collect$$libshutdown$$00000004)
    __rt_lib_shutdown_user_alloc_1           0x08008179   Thumb Code     0  libshutdown2.o(.ARM.Collect$$libshutdown$$0000000C)
    __rt_entry                               0x0800817b   Thumb Code     0  __rtentry.o(.ARM.Collect$$rtentry$$00000000)
    __rt_entry_presh_1                       0x0800817b   Thumb Code     0  __rtentry2.o(.ARM.Collect$$rtentry$$00000002)
    __rt_entry_sh                            0x0800817b   Thumb Code     0  __rtentry4.o(.ARM.Collect$$rtentry$$00000004)
    __rt_entry_li                            0x08008181   Thumb Code     0  __rtentry2.o(.ARM.Collect$$rtentry$$0000000A)
    __rt_entry_postsh_1                      0x08008181   Thumb Code     0  __rtentry2.o(.ARM.Collect$$rtentry$$00000009)
    __rt_entry_main                          0x08008185   Thumb Code     0  __rtentry2.o(.ARM.Collect$$rtentry$$0000000D)
    __rt_entry_postli_1                      0x08008185   Thumb Code     0  __rtentry2.o(.ARM.Collect$$rtentry$$0000000C)
    __rt_exit                                0x0800818d   Thumb Code     0  rtexit.o(.ARM.Collect$$rtexit$$00000000)
    __rt_exit_ls                             0x0800818f   Thumb Code     0  rtexit2.o(.ARM.Collect$$rtexit$$00000003)
    __rt_exit_prels_1                        0x0800818f   Thumb Code     0  rtexit2.o(.ARM.Collect$$rtexit$$00000002)
    __rt_exit_exit                           0x08008193   Thumb Code     0  rtexit2.o(.ARM.Collect$$rtexit$$00000004)
    __aeabi_memcpy4                          0x08008199   Thumb Code    56  rt_memcpy.o(.emb_text)
    __aeabi_memcpy8                          0x08008199   Thumb Code     0  rt_memcpy.o(.emb_text)
    Reset_Handler                            0x080081d1   Thumb Code     8  startup_stm32f072xb.o(.text)
    _maybe_terminate_alloc                   0x080081d1   Thumb Code     0  maybetermalloc1.o(.emb_text)
    ADC1_COMP_IRQHandler                     0x080081e3   Thumb Code     0  startup_stm32f072xb.o(.text)
    CEC_CAN_IRQHandler                       0x080081e3   Thumb Code     0  startup_stm32f072xb.o(.text)
    DMA1_Channel2_3_IRQHandler               0x080081e3   Thumb Code     0  startup_stm32f072xb.o(.text)
    DMA1_Channel4_5_6_7_IRQHandler           0x080081e3   Thumb Code     0  startup_stm32f072xb.o(.text)
    EXTI0_1_IRQHandler                       0x080081e3   Thumb Code     0  startup_stm32f072xb.o(.text)
    EXTI4_15_IRQHandler                      0x080081e3   Thumb Code     0  startup_stm32f072xb.o(.text)
    FLASH_IRQHandler                         0x080081e3   Thumb Code     0  startup_stm32f072xb.o(.text)
    I2C1_IRQHandler                          0x080081e3   Thumb Code     0  startup_stm32f072xb.o(.text)
    I2C2_IRQHandler                          0x080081e3   Thumb Code     0  startup_stm32f072xb.o(.text)
    PVD_VDDIO2_IRQHandler                    0x080081e3   Thumb Code     0  startup_stm32f072xb.o(.text)
    RCC_CRS_IRQHandler                       0x080081e3   Thumb Code     0  startup_stm32f072xb.o(.text)
    RTC_IRQHandler                           0x080081e3   Thumb Code     0  startup_stm32f072xb.o(.text)
    SPI1_IRQHandler                          0x080081e3   Thumb Code     0  startup_stm32f072xb.o(.text)
    SPI2_IRQHandler                          0x080081e3   Thumb Code     0  startup_stm32f072xb.o(.text)
    TIM14_IRQHandler                         0x080081e3   Thumb Code     0  startup_stm32f072xb.o(.text)
    TIM15_IRQHandler                         0x080081e3   Thumb Code     0  startup_stm32f072xb.o(.text)
    TIM17_IRQHandler                         0x080081e3   Thumb Code     0  startup_stm32f072xb.o(.text)
    TIM1_CC_IRQHandler                       0x080081e3   Thumb Code     0  startup_stm32f072xb.o(.text)
    TIM2_IRQHandler                          0x080081e3   Thumb Code     0  startup_stm32f072xb.o(.text)
    TIM3_IRQHandler                          0x080081e3   Thumb Code     0  startup_stm32f072xb.o(.text)
    TIM6_DAC_IRQHandler                      0x080081e3   Thumb Code     0  startup_stm32f072xb.o(.text)
    TIM7_IRQHandler                          0x080081e3   Thumb Code     0  startup_stm32f072xb.o(.text)
    TSC_IRQHandler                           0x080081e3   Thumb Code     0  startup_stm32f072xb.o(.text)
    USART2_IRQHandler                        0x080081e3   Thumb Code     0  startup_stm32f072xb.o(.text)
    USART3_4_IRQHandler                      0x080081e3   Thumb Code     0  startup_stm32f072xb.o(.text)
    USB_IRQHandler                           0x080081e3   Thumb Code     0  startup_stm32f072xb.o(.text)
    WWDG_IRQHandler                          0x080081e3   Thumb Code     0  startup_stm32f072xb.o(.text)
    __user_initial_stackheap                 0x080081e5   Thumb Code     0  startup_stm32f072xb.o(.text)
    __2sprintf                               0x08008209   Thumb Code    36  noretval__2sprintf.o(.text)
    _printf_pre_padding                      0x08008231   Thumb Code    44  _printf_pad.o(.text)
    _printf_post_padding                     0x0800825d   Thumb Code    34  _printf_pad.o(.text)
    _printf_str                              0x0800827f   Thumb Code    82  _printf_str.o(.text)
    _printf_int_dec                          0x080082d1   Thumb Code    90  _printf_dec.o(.text)
    _printf_int_hex                          0x0800833d   Thumb Code    84  _printf_hex_int.o(.text)
    _printf_longlong_hex                     0x0800833d   Thumb Code     0  _printf_hex_int.o(.text)
    __printf                                 0x08008395   Thumb Code   386  __printf_flags_ss_wp.o(.text)
    strtoul                                  0x0800851d   Thumb Code   118  strtoul.o(.text)
    __aeabi_atexit                           0x08008593   Thumb Code    42  aeabi_atexit.o(.text)
    _strtok_r                                0x080085bd   Thumb Code     8  strtok_r.o(.text)
    strtok_r                                 0x080085bd   Thumb Code     0  strtok_r.o(.text)
    strncmp                                  0x080085c5   Thumb Code   154  strncmp.o(.text)
    _memset_w                                0x08008665   Thumb Code    26  rt_memclr.o(.text)
    _memset                                  0x0800867f   Thumb Code    30  rt_memclr.o(.text)
    __aeabi_memclr                           0x0800869d   Thumb Code     4  rt_memclr.o(.text)
    __rt_memclr                              0x0800869d   Thumb Code     0  rt_memclr.o(.text)
    __aeabi_memclr4                          0x080086a1   Thumb Code     0  rt_memclr.o(.text)
    __aeabi_memclr8                          0x080086a1   Thumb Code     0  rt_memclr.o(.text)
    __rt_memclr_w                            0x080086a1   Thumb Code     4  rt_memclr.o(.text)
    __aeabi_uread4                           0x080086a5   Thumb Code    34  uread4.o(.text)
    __rt_uread4                              0x080086a5   Thumb Code     0  uread4.o(.text)
    __aeabi_uidiv                            0x080086c7   Thumb Code     0  aeabi_sdiv.o(.text)
    __aeabi_uidivmod                         0x080086c7   Thumb Code    20  aeabi_sdiv.o(.text)
    __aeabi_idiv                             0x080086db   Thumb Code     0  aeabi_sdiv.o(.text)
    __aeabi_idivmod                          0x080086db   Thumb Code   326  aeabi_sdiv.o(.text)
    __use_two_region_memory                  0x08008821   Thumb Code     2  heapauxi.o(.text)
    __rt_heap_escrow                         0x08008823   Thumb Code     2  heapauxi.o(.text)
    __rt_heap_expand                         0x08008825   Thumb Code     2  heapauxi.o(.text)
    __cpp_initialize__aeabi_                 0x08008829   Thumb Code    26  init_aeabi.o(.text)
    __rt_ctype_table                         0x0800884d   Thumb Code    16  rt_ctype_table.o(.text)
    __rt_ddtor_pointer_addr                  0x0800885d   Thumb Code     8  rt_ddtor_pointer_addr_intlibspace.o(.text)
    __aeabi_errno_addr                       0x08008865   Thumb Code     8  rt_errno_addr_intlibspace.o(.text)
    __errno$intlibspace                      0x08008865   Thumb Code     0  rt_errno_addr_intlibspace.o(.text)
    __rt_errno_addr$intlibspace              0x08008865   Thumb Code     0  rt_errno_addr_intlibspace.o(.text)
    malloc                                   0x0800886d   Thumb Code    98  h1_alloc.o(.text)
    _printf_int_common                       0x080088cf   Thumb Code   176  _printf_intcommon.o(.text)
    _printf_char_common                      0x0800898b   Thumb Code    32  _printf_char_common.o(.text)
    _sputc                                   0x080089b1   Thumb Code    10  _sputc.o(.text)
    _printf_cs_common                        0x080089bb   Thumb Code    22  _printf_char.o(.text)
    _printf_char                             0x080089d1   Thumb Code    16  _printf_char.o(.text)
    _printf_string                           0x080089e1   Thumb Code     8  _printf_char.o(.text)
    _strtoul                                 0x080089e9   Thumb Code   166  _strtoul.o(.text)
    __cxa_finalize                           0x08008a8f   Thumb Code    66  cxa_finalize.o(.text)
    __strtok_internal                        0x08008ad1   Thumb Code    66  strtok_int.o(.text)
    __rt_udiv10                              0x08008b19   Thumb Code    40  rtudiv10.o(.text)
    __user_libspace                          0x08008b41   Thumb Code     8  libspace.o(.text)
    __user_perproc_libspace                  0x08008b41   Thumb Code     0  libspace.o(.text)
    __user_perthread_libspace                0x08008b41   Thumb Code     0  libspace.o(.text)
    __rt_heap_descriptor                     0x08008b49   Thumb Code     8  rt_heap_descriptor_intlibspace.o(.text)
    __rt_locale                              0x08008b51   Thumb Code     8  rt_locale_intlibspace.o(.text)
    __use_no_heap                            0x08008b59   Thumb Code     2  hguard.o(.text)
    __heap$guard                             0x08008b5b   Thumb Code     2  hguard.o(.text)
    _terminate_user_alloc                    0x08008b5d   Thumb Code     2  init_alloc.o(.text)
    _init_user_alloc                         0x08008b5f   Thumb Code     2  init_alloc.o(.text)
    __Heap_Full                              0x08008b61   Thumb Code    32  init_alloc.o(.text)
    __Heap_Broken                            0x08008b81   Thumb Code    10  init_alloc.o(.text)
    _init_alloc                              0x08008b8b   Thumb Code    90  init_alloc.o(.text)
    __Heap_Initialize                        0x08008be5   Thumb Code    10  h1_init.o(.text)
    __Heap_DescSize                          0x08008bef   Thumb Code     4  h1_init.o(.text)
    free                                     0x08008bf3   Thumb Code    76  h1_free.o(.text)
    _chval                                   0x08008c3f   Thumb Code    30  _chval.o(.text)
    strcspn                                  0x08008c5d   Thumb Code    34  strcspn.o(.text)
    strspn                                   0x08008c7f   Thumb Code    32  strspn.o(.text)
    __user_setup_stackheap                   0x08008c9f   Thumb Code    62  sys_stackheap_outer.o(.text)
    __Heap_ProvideMemory                     0x08008cdd   Thumb Code    52  h1_extend.o(.text)
    exit                                     0x08008d11   Thumb Code    16  exit.o(.text)
    __rt_SIGRTMEM                            0x08008d21   Thumb Code    12  defsig_rtmem_outer.o(.text)
    strcmp                                   0x08008d2d   Thumb Code   132  strcmp.o(.text)
    __I$use$semihosting                      0x08008db5   Thumb Code     0  use_no_semi.o(.text)
    __use_no_semihosting_swi                 0x08008db5   Thumb Code     2  use_no_semi.o(.text)
    __semihosting_library_function           0x08008db7   Thumb Code     0  indicate_semi.o(.text)
    __sig_exit                               0x08008db7   Thumb Code    12  defsig_exit.o(.text)
    __rt_SIGRTMEM_inner                      0x08008dc5   Thumb Code    22  defsig_rtmem_inner.o(.text)
    _sys_exit                                0x08008e15   Thumb Code     8  sys_exit.o(.text)
    __default_signal_display                 0x08008e21   Thumb Code    52  defsig_general.o(.text)
    _ttywrch                                 0x08008e55   Thumb Code    12  sys_wrch.o(.text)
    __decompress                             0x08008e61   Thumb Code     0  __dczerorl2.o(.text)
    __decompress1                            0x08008e61   Thumb Code    86  __dczerorl2.o(.text)
    DMA1_Channel1_IRQHandler                 0x08008fcd   Thumb Code    10  stm32f0xx_it.o(i.DMA1_Channel1_IRQHandler)
    EXTI2_3_IRQHandler                       0x08009029   Thumb Code   126  stm32f0xx_it.o(i.EXTI2_3_IRQHandler)
    Error_Handler                            0x080090b5   Thumb Code    36  main.o(i.Error_Handler)
    HAL_ADC_ConfigChannel                    0x080090dd   Thumb Code   284  stm32f0xx_hal_adc.o(i.HAL_ADC_ConfigChannel)
    HAL_ADC_ConvCpltCallback                 0x08009209   Thumb Code    20  main.o(i.HAL_ADC_ConvCpltCallback)
    HAL_ADC_ConvHalfCpltCallback             0x08009221   Thumb Code     2  stm32f0xx_hal_adc.o(i.HAL_ADC_ConvHalfCpltCallback)
    HAL_ADC_ErrorCallback                    0x08009223   Thumb Code     2  stm32f0xx_hal_adc.o(i.HAL_ADC_ErrorCallback)
    HAL_ADC_Init                             0x08009225   Thumb Code   364  stm32f0xx_hal_adc.o(i.HAL_ADC_Init)
    HAL_ADC_MspInit                          0x08009399   Thumb Code   120  adc.o(i.HAL_ADC_MspInit)
    HAL_ADC_Start_DMA                        0x08009425   Thumb Code   144  stm32f0xx_hal_adc.o(i.HAL_ADC_Start_DMA)
    HAL_CRCEx_Init                           0x080094c5   Thumb Code    44  stm32f0xx_hal_crc_ex.o(i.HAL_CRCEx_Init)
    HAL_CRCEx_Polynomial_Set                 0x080094f5   Thumb Code    74  stm32f0xx_hal_crc_ex.o(i.HAL_CRCEx_Polynomial_Set)
    HAL_CRC_Init                             0x0800953f   Thumb Code    92  stm32f0xx_hal_crc.o(i.HAL_CRC_Init)
    HAL_CRC_MspInit                          0x0800959d   Thumb Code    28  crc.o(i.HAL_CRC_MspInit)
    HAL_DMA_Abort_IT                         0x080095c1   Thumb Code    72  stm32f0xx_hal_dma.o(i.HAL_DMA_Abort_IT)
    HAL_DMA_IRQHandler                       0x08009609   Thumb Code   156  stm32f0xx_hal_dma.o(i.HAL_DMA_IRQHandler)
    HAL_DMA_Init                             0x080096a5   Thumb Code    84  stm32f0xx_hal_dma.o(i.HAL_DMA_Init)
    HAL_DMA_Start_IT                         0x080096fd   Thumb Code   106  stm32f0xx_hal_dma.o(i.HAL_DMA_Start_IT)
    HAL_Delay                                0x08009767   Thumb Code    28  stm32f0xx_hal.o(i.HAL_Delay)
    HAL_GPIO_EXTI_Callback                   0x08009783   Thumb Code     2  stm32f0xx_hal_gpio.o(i.HAL_GPIO_EXTI_Callback)
    HAL_GPIO_EXTI_IRQHandler                 0x08009785   Thumb Code    18  stm32f0xx_hal_gpio.o(i.HAL_GPIO_EXTI_IRQHandler)
    HAL_GPIO_Init                            0x0800979d   Thumb Code   314  stm32f0xx_hal_gpio.o(i.HAL_GPIO_Init)
    HAL_GPIO_ReadPin                         0x080098f5   Thumb Code    10  stm32f0xx_hal_gpio.o(i.HAL_GPIO_ReadPin)
    HAL_GPIO_TogglePin                       0x080098ff   Thumb Code     8  stm32f0xx_hal_gpio.o(i.HAL_GPIO_TogglePin)
    HAL_GPIO_WritePin                        0x08009907   Thumb Code    12  stm32f0xx_hal_gpio.o(i.HAL_GPIO_WritePin)
    HAL_GetTick                              0x08009915   Thumb Code     6  stm32f0xx_hal.o(i.HAL_GetTick)
    HAL_IncTick                              0x08009921   Thumb Code    10  stm32f0xx_hal.o(i.HAL_IncTick)
    HAL_Init                                 0x08009931   Thumb Code    26  stm32f0xx_hal.o(i.HAL_Init)
    HAL_InitTick                             0x08009951   Thumb Code    98  stm32f0xx_hal_timebase_tim.o(i.HAL_InitTick)
    HAL_MspInit                              0x080099c9   Thumb Code    34  stm32f0xx_hal_msp.o(i.HAL_MspInit)
    HAL_NVIC_EnableIRQ                       0x080099f1   Thumb Code    14  stm32f0xx_hal_cortex.o(i.HAL_NVIC_EnableIRQ)
    HAL_NVIC_SetPriority                     0x08009a05   Thumb Code     8  stm32f0xx_hal_cortex.o(i.HAL_NVIC_SetPriority)
    HAL_NVIC_SystemReset                     0x08009a0d   Thumb Code    18  stm32f0xx_hal_cortex.o(i.HAL_NVIC_SystemReset)
    HAL_PWR_EnableBkUpAccess                 0x08009a29   Thumb Code    12  stm32f0xx_hal_pwr.o(i.HAL_PWR_EnableBkUpAccess)
    HAL_RCCEx_PeriphCLKConfig                0x08009a39   Thumb Code   274  stm32f0xx_hal_rcc_ex.o(i.HAL_RCCEx_PeriphCLKConfig)
    HAL_RCC_ClockConfig                      0x08009b59   Thumb Code   320  stm32f0xx_hal_rcc.o(i.HAL_RCC_ClockConfig)
    HAL_RCC_GetClockConfig                   0x08009cad   Thumb Code    46  stm32f0xx_hal_rcc.o(i.HAL_RCC_GetClockConfig)
    HAL_RCC_GetPCLK1Freq                     0x08009ce5   Thumb Code    20  stm32f0xx_hal_rcc.o(i.HAL_RCC_GetPCLK1Freq)
    HAL_RCC_GetSysClockFreq                  0x08009d05   Thumb Code    90  stm32f0xx_hal_rcc.o(i.HAL_RCC_GetSysClockFreq)
    HAL_RCC_MCOConfig                        0x08009d8d   Thumb Code    74  stm32f0xx_hal_rcc.o(i.HAL_RCC_MCOConfig)
    HAL_RCC_OscConfig                        0x08009ddd   Thumb Code   966  stm32f0xx_hal_rcc.o(i.HAL_RCC_OscConfig)
    HAL_RTCEx_SetTimeStamp                   0x0800a1b5   Thumb Code    70  stm32f0xx_hal_rtc_ex.o(i.HAL_RTCEx_SetTimeStamp)
    HAL_RTC_Init                             0x0800a201   Thumb Code   174  stm32f0xx_hal_rtc.o(i.HAL_RTC_Init)
    HAL_RTC_MspInit                          0x0800a2b5   Thumb Code    22  rtc.o(i.HAL_RTC_MspInit)
    HAL_RTC_SetDate                          0x0800a2d5   Thumb Code   194  stm32f0xx_hal_rtc.o(i.HAL_RTC_SetDate)
    HAL_RTC_SetTime                          0x0800a39d   Thumb Code   222  stm32f0xx_hal_rtc.o(i.HAL_RTC_SetTime)
    HAL_RTC_WaitForSynchro                   0x0800a481   Thumb Code    52  stm32f0xx_hal_rtc.o(i.HAL_RTC_WaitForSynchro)
    HAL_SPI_Init                             0x0800a4b5   Thumb Code   184  stm32f0xx_hal_spi.o(i.HAL_SPI_Init)
    HAL_SPI_MspInit                          0x0800a56d   Thumb Code   108  spi.o(i.HAL_SPI_MspInit)
    HAL_SPI_Receive                          0x0800a5e1   Thumb Code   344  stm32f0xx_hal_spi.o(i.HAL_SPI_Receive)
    HAL_SPI_Transmit                         0x0800a739   Thumb Code   368  stm32f0xx_hal_spi.o(i.HAL_SPI_Transmit)
    HAL_SPI_TransmitReceive                  0x0800a8a9   Thumb Code   584  stm32f0xx_hal_spi.o(i.HAL_SPI_TransmitReceive)
    HAL_TIMEx_BreakCallback                  0x0800aaf1   Thumb Code     2  stm32f0xx_hal_tim_ex.o(i.HAL_TIMEx_BreakCallback)
    HAL_TIMEx_CommutationCallback            0x0800aaf3   Thumb Code     2  stm32f0xx_hal_tim_ex.o(i.HAL_TIMEx_CommutationCallback)
    HAL_TIMEx_ConfigBreakDeadTime            0x0800aaf5   Thumb Code    96  stm32f0xx_hal_tim_ex.o(i.HAL_TIMEx_ConfigBreakDeadTime)
    HAL_TIMEx_MasterConfigSynchronization    0x0800ab55   Thumb Code    72  stm32f0xx_hal_tim_ex.o(i.HAL_TIMEx_MasterConfigSynchronization)
    HAL_TIM_Base_Init                        0x0800ab9d   Thumb Code    52  stm32f0xx_hal_tim.o(i.HAL_TIM_Base_Init)
    HAL_TIM_Base_MspInit                     0x0800abd1   Thumb Code    90  tim.o(i.HAL_TIM_Base_MspInit)
    HAL_TIM_Base_Start                       0x0800ac39   Thumb Code    24  stm32f0xx_hal_tim.o(i.HAL_TIM_Base_Start)
    HAL_TIM_Base_Start_IT                    0x0800ac51   Thumb Code    22  stm32f0xx_hal_tim.o(i.HAL_TIM_Base_Start_IT)
    HAL_TIM_ConfigClockSource                0x0800ac67   Thumb Code   238  stm32f0xx_hal_tim.o(i.HAL_TIM_ConfigClockSource)
    HAL_TIM_IC_CaptureCallback               0x0800ad55   Thumb Code     2  stm32f0xx_hal_tim.o(i.HAL_TIM_IC_CaptureCallback)
    HAL_TIM_IRQHandler                       0x0800ad57   Thumb Code   354  stm32f0xx_hal_tim.o(i.HAL_TIM_IRQHandler)
    HAL_TIM_OC_ConfigChannel                 0x0800aeb9   Thumb Code    80  stm32f0xx_hal_tim.o(i.HAL_TIM_OC_ConfigChannel)
    HAL_TIM_OC_DelayElapsedCallback          0x0800af09   Thumb Code     2  stm32f0xx_hal_tim.o(i.HAL_TIM_OC_DelayElapsedCallback)
    HAL_TIM_OC_Init                          0x0800af0b   Thumb Code    52  stm32f0xx_hal_tim.o(i.HAL_TIM_OC_Init)
    HAL_TIM_OC_MspInit                       0x0800af3f   Thumb Code     2  stm32f0xx_hal_tim.o(i.HAL_TIM_OC_MspInit)
    HAL_TIM_PWM_PulseFinishedCallback        0x0800af41   Thumb Code     2  stm32f0xx_hal_tim.o(i.HAL_TIM_PWM_PulseFinishedCallback)
    HAL_TIM_PeriodElapsedCallback            0x0800af45   Thumb Code    16  main.o(i.HAL_TIM_PeriodElapsedCallback)
    HAL_TIM_TriggerCallback                  0x0800af59   Thumb Code     2  stm32f0xx_hal_tim.o(i.HAL_TIM_TriggerCallback)
    HAL_UARTEx_WakeupCallback                0x0800af5b   Thumb Code     2  stm32f0xx_hal_uart_ex.o(i.HAL_UARTEx_WakeupCallback)
    HAL_UART_ErrorCallback                   0x0800af5d   Thumb Code     2  stm32f0xx_hal_uart.o(i.HAL_UART_ErrorCallback)
    HAL_UART_IRQHandler                      0x0800af61   Thumb Code   304  stm32f0xx_hal_uart.o(i.HAL_UART_IRQHandler)
    HAL_UART_Init                            0x0800b095   Thumb Code   108  stm32f0xx_hal_uart.o(i.HAL_UART_Init)
    HAL_UART_MspInit                         0x0800b101   Thumb Code   154  usart.o(i.HAL_UART_MspInit)
    HAL_UART_Receive                         0x0800b1a9   Thumb Code   250  stm32f0xx_hal_uart.o(i.HAL_UART_Receive)
    HAL_UART_RxCpltCallback                  0x0800b2a9   Thumb Code     2  stm32f0xx_hal_uart.o(i.HAL_UART_RxCpltCallback)
    HAL_UART_Transmit                        0x0800b2ab   Thumb Code   200  stm32f0xx_hal_uart.o(i.HAL_UART_Transmit)
    HAL_UART_TxCpltCallback                  0x0800b373   Thumb Code     2  stm32f0xx_hal_uart.o(i.HAL_UART_TxCpltCallback)
    HardFault_Handler                        0x0800b375   Thumb Code     2  stm32f0xx_it.o(i.HardFault_Handler)
    MX_ADC_Init                              0x0800b379   Thumb Code   154  adc.o(i.MX_ADC_Init)
    MX_CRC_Init                              0x0800b41d   Thumb Code    36  crc.o(i.MX_CRC_Init)
    MX_DMA_Init                              0x0800b449   Thumb Code    36  dma.o(i.MX_DMA_Init)
    MX_GPIO_Init                             0x0800b471   Thumb Code   334  gpio.o(i.MX_GPIO_Init)
    MX_RTC_Init                              0x0800b5e1   Thumb Code   132  rtc.o(i.MX_RTC_Init)
    MX_SPI1_Init                             0x0800b66d   Thumb Code    66  spi.o(i.MX_SPI1_Init)
    MX_TIM16_Init                            0x0800b6b9   Thumb Code   148  tim.o(i.MX_TIM16_Init)
    MX_TIM2_Init                             0x0800b755   Thumb Code    98  tim.o(i.MX_TIM2_Init)
    MX_TIM3_Init                             0x0800b7c1   Thumb Code    98  tim.o(i.MX_TIM3_Init)
    MX_USART1_UART_Init                      0x0800b831   Thumb Code    48  usart.o(i.MX_USART1_UART_Init)
    MX_USART2_UART_Init                      0x0800b869   Thumb Code    48  usart.o(i.MX_USART2_UART_Init)
    NMI_Handler                              0x0800b8a1   Thumb Code     2  stm32f0xx_it.o(i.NMI_Handler)
    PendSV_Handler                           0x0800b8e9   Thumb Code     2  stm32f0xx_it.o(i.PendSV_Handler)
    RTC_Bcd2ToByte                           0x0800b8eb   Thumb Code    16  stm32f0xx_hal_rtc.o(i.RTC_Bcd2ToByte)
    RTC_ByteToBcd2                           0x0800b8fb   Thumb Code    22  stm32f0xx_hal_rtc.o(i.RTC_ByteToBcd2)
    RTC_EnterInitMode                        0x0800b911   Thumb Code    56  stm32f0xx_hal_rtc.o(i.RTC_EnterInitMode)
    SVC_Handler                              0x0800bb2f   Thumb Code     2  stm32f0xx_it.o(i.SVC_Handler)
    SysTick_Handler                          0x0800bb31   Thumb Code     2  stm32f0xx_it.o(i.SysTick_Handler)
    SystemInit                               0x0800bb35   Thumb Code    76  system_stm32f0xx.o(i.SystemInit)
    TIM16_IRQHandler                         0x0800bb91   Thumb Code    18  stm32f0xx_it.o(i.TIM16_IRQHandler)
    TIM1_BRK_UP_TRG_COM_IRQHandler           0x0800bbad   Thumb Code    10  stm32f0xx_it.o(i.TIM1_BRK_UP_TRG_COM_IRQHandler)
    TIM_Base_SetConfig                       0x0800bbbd   Thumb Code   124  stm32f0xx_hal_tim.o(i.TIM_Base_SetConfig)
    TIM_ETR_SetConfig                        0x0800bc51   Thumb Code    22  stm32f0xx_hal_tim.o(i.TIM_ETR_SetConfig)
    TIM_OC2_SetConfig                        0x0800bd01   Thumb Code   110  stm32f0xx_hal_tim.o(i.TIM_OC2_SetConfig)
    UART_AdvFeatureConfig                    0x0800beb9   Thumb Code   202  stm32f0xx_hal_uart.o(i.UART_AdvFeatureConfig)
    UART_CheckIdleState                      0x0800bf85   Thumb Code   102  stm32f0xx_hal_uart.o(i.UART_CheckIdleState)
    UART_EndTransmit_IT                      0x0800c02b   Thumb Code    26  stm32f0xx_hal_uart.o(i.UART_EndTransmit_IT)
    UART_Receive_IT                          0x0800c045   Thumb Code   122  stm32f0xx_hal_uart.o(i.UART_Receive_IT)
    UART_SetConfig                           0x0800c0c1   Thumb Code   316  stm32f0xx_hal_uart.o(i.UART_SetConfig)
    UART_Transmit_IT                         0x0800c21d   Thumb Code   102  stm32f0xx_hal_uart.o(i.UART_Transmit_IT)
    UART_WaitOnFlagUntilTimeout              0x0800c283   Thumb Code    98  stm32f0xx_hal_uart.o(i.UART_WaitOnFlagUntilTimeout)
    USART1_IRQHandler                        0x0800c2e5   Thumb Code    10  stm32f0xx_it.o(i.USART1_IRQHandler)
    firstSection()                           0x0800c2f5   Thumb Code   186  peripherial_controller.o(i._Z12firstSectionv)
    secondSection()                          0x0800c3b5   Thumb Code   182  peripherial_controller.o(i._Z13secondSectionv)
    FLASH_If_Write(unsigned, unsigned char*, unsigned) 0x0800c475   Thumb Code    60  flash_if.o(i._Z14FLASH_If_WritejPhj)
    Serial_PutByte(unsigned char)            0x0800c4b5   Thumb Code    16  common.o(i._Z14Serial_PutByteh)
    prepare_packet(unsigned char*, unsigned char*) 0x0800c4c9   Thumb Code    68  common.o(i._Z14prepare_packetPhS_)
    remapMemToSRAM()                         0x0800c50d   Thumb Code    54  main.o(i._Z14remapMemToSRAMv)
    xmodem_receive()                         0x0800c551   Thumb Code   304  xmodem.o(i._Z14xmodem_receivev)
    xmodem_calc_crc(unsigned char*, unsigned short) 0x0800c715   Thumb Code    52  xmodem.o(i._Z15xmodem_calc_crcPht)
    Serial_PutString(const char*)            0x0800c74d   Thumb Code    28  common.o(i._Z16Serial_PutStringPKc)
    Monitor_PutString(const char*)           0x0800c76d   Thumb Code    24  common.o(i._Z17Monitor_PutStringPKc)
    SystemClock_Config()                     0x0800c78d   Thumb Code   144  main.o(i._Z18SystemClock_Configv)
    beep(int, int)                           0x0800c911   Thumb Code    18  peripherial_controller.o(i._Z4beepii)
    tone(int, int)                           0x0800c925   Thumb Code    70  peripherial_controller.o(i._Z4toneii)
    noTone()                                 0x0800c979   Thumb Code    16  peripherial_controller.o(i._Z6noTonev)
    calc_crc(unsigned char*, int)            0x0800c98d   Thumb Code    50  common.o(i._Z8calc_crcPhi)
    dump_mem()                               0x0800c9c5   Thumb Code    52  menu.o(i._Z8dump_memv)
    Main_Menu()                              0x0800ca15   Thumb Code   156  menu.o(i._Z9Main_Menuv)
    STATUS_reg::print_current()              0x0800cc75   Thumb Code    42  status_reg.o(i._ZN10STATUS_reg13print_currentEv)
    STATUS_reg::get_value()                  0x0800cca9   Thumb Code    24  status_reg.o(i._ZN10STATUS_reg9get_valueEv)
    STATUS_reg::STATUS_reg()                 0x0800ccc5   Thumb Code     2  status_reg.o(i._ZN10STATUS_regC1Ev)
    STATUS_reg::STATUS_reg__sub_object()     0x0800ccc5   Thumb Code     0  status_reg.o(i._ZN10STATUS_regC1Ev)
    STATUS_reg::~STATUS_reg()                0x0800ccc7   Thumb Code     2  status_reg.o(i._ZN10STATUS_regD1Ev)
    STATUS_reg::~STATUS_reg__sub_object()    0x0800ccc7   Thumb Code     0  status_reg.o(i._ZN10STATUS_regD1Ev)
    DebugHelper::fast_beeps()                0x0800ccc9   Thumb Code   136  debug_facilities.o(i._ZN11DebugHelper10fast_beepsEv)
    DebugHelper::fast_beeps_2()              0x0800cd55   Thumb Code   136  debug_facilities.o(i._ZN11DebugHelper12fast_beeps_2Ev)
    DebugHelper::fast_beeps_3()              0x0800cde1   Thumb Code   136  debug_facilities.o(i._ZN11DebugHelper12fast_beeps_3Ev)
    DebugHelper::update_state(unsigned char) 0x0800ce6d   Thumb Code    44  debug_facilities.o(i._ZN11DebugHelper12update_stateEh)
    DebugHelper::show(unsigned)              0x0800ce9d   Thumb Code   122  debug_facilities.o(i._ZN11DebugHelper4showEj)
    DebugHelper::update(bool, bool, bool, bool, bool) 0x0800cf21   Thumb Code    56  debug_facilities.o(i._ZN11DebugHelper6updateEbbbbb)
    DebugHelper::update(unsigned)            0x0800cf59   Thumb Code    10  debug_facilities.o(i._ZN11DebugHelper6updateEj)
    DebugHelper::long_beep()                 0x0800cf65   Thumb Code    40  debug_facilities.o(i._ZN11DebugHelper9long_beepEv)
    DebugHelper::DebugHelper()               0x0800cf91   Thumb Code    14  debug_facilities.o(i._ZN11DebugHelperC1Ev)
    DebugHelper::DebugHelper__sub_object()   0x0800cf91   Thumb Code     0  debug_facilities.o(i._ZN11DebugHelperC1Ev)
    DebugHelper::~DebugHelper()              0x0800cf9f   Thumb Code     2  debug_facilities.o(i._ZN11DebugHelperD1Ev)
    DebugHelper::~DebugHelper__sub_object()  0x0800cf9f   Thumb Code     0  debug_facilities.o(i._ZN11DebugHelperD1Ev)
    Screen_ctrl::print_logo()                0x0800cfa1   Thumb Code    28  screen_controller.o(i._ZN11Screen_ctrl10print_logoEv)
    Screen_ctrl::pass_to_ard(unsigned char*) 0x0800cfed   Thumb Code    28  screen_controller.o(i._ZN11Screen_ctrl11pass_to_ardEPh)
    Screen_ctrl::blank_screen()              0x0800d00d   Thumb Code    20  screen_controller.o(i._ZN11Screen_ctrl12blank_screenEv)
    Screen_ctrl::clean_screen(unsigned)      0x0800d025   Thumb Code    22  screen_controller.o(i._ZN11Screen_ctrl12clean_screenEj)
    Screen_ctrl::update_piazo(bool)          0x0800d045   Thumb Code    86  screen_controller.o(i._ZN11Screen_ctrl12update_piazoEb)
    Screen_ctrl::update_battery(unsigned, unsigned) 0x0800d0b1   Thumb Code    70  screen_controller.o(i._ZN11Screen_ctrl14update_batteryEjj)
    Screen_ctrl::update_version()            0x0800d125   Thumb Code    36  screen_controller.o(i._ZN11Screen_ctrl14update_versionEv)
    Screen_ctrl::update_pressure(unsigned)   0x0800d165   Thumb Code    28  screen_controller.o(i._ZN11Screen_ctrl15update_pressureEj)
    Screen_ctrl::check_timer_expired()       0x0800d191   Thumb Code    98  screen_controller.o(i._ZN11Screen_ctrl19check_timer_expiredEv)
    Screen_ctrl::update_pulse_counter(unsigned) 0x0800d21d   Thumb Code    26  screen_controller.o(i._ZN11Screen_ctrl20update_pulse_counterEj)
    Screen_ctrl::tx_send_general_error(unsigned) 0x0800d241   Thumb Code   106  screen_controller.o(i._ZN11Screen_ctrl21tx_send_general_errorEj)
    Screen_ctrl::tx_send_general_error(unsigned, unsigned) 0x0800d2f9   Thumb Code   158  screen_controller.o(i._ZN11Screen_ctrl21tx_send_general_errorEjj)
    Screen_ctrl::update_error_remaining(unsigned) 0x0800d491   Thumb Code    86  screen_controller.o(i._ZN11Screen_ctrl22update_error_remainingEj)
    Screen_ctrl::update_remaining_in_percent(unsigned, unsigned) 0x0800d4f9   Thumb Code   192  screen_controller.o(i._ZN11Screen_ctrl27update_remaining_in_percentEjj)
    Screen_ctrl::update_pulse_counter_remaining(unsigned, unsigned) 0x0800d5c5   Thumb Code    38  screen_controller.o(i._ZN11Screen_ctrl30update_pulse_counter_remainingEjj)
    Screen_ctrl::qa_mon(bool, bool, bool)    0x0800d5fd   Thumb Code    66  screen_controller.o(i._ZN11Screen_ctrl6qa_monEbbb)
    Screen_ctrl::Screen_ctrl()               0x0800d66d   Thumb Code    28  screen_controller.o(i._ZN11Screen_ctrlC1Ev)
    Screen_ctrl::Screen_ctrl__sub_object()   0x0800d66d   Thumb Code     0  screen_controller.o(i._ZN11Screen_ctrlC1Ev)
    Screen_ctrl::~Screen_ctrl()              0x0800d68d   Thumb Code     2  screen_controller.o(i._ZN11Screen_ctrlD1Ev)
    Screen_ctrl::~Screen_ctrl__sub_object()  0x0800d68d   Thumb Code     0  screen_controller.o(i._ZN11Screen_ctrlD1Ev)
    adc_controller::pressure_check()         0x0800d68f   Thumb Code    30  adc_controller.o(i._ZN14adc_controller14pressure_checkEv)
    adc_controller::convert_to_volt()        0x0800d6ad   Thumb Code    56  adc_controller.o(i._ZN14adc_controller15convert_to_voltEv)
    adc_controller::convert_to_celsius()     0x0800d6ed   Thumb Code    20  adc_controller.o(i._ZN14adc_controller18convert_to_celsiusEv)
    adc_controller::serial_comm_to_adc(select_channel) 0x0800d701   Thumb Code    54  adc_controller.o(i._ZN14adc_controller18serial_comm_to_adcE14select_channel)
    adc_controller::read(select_channel)     0x0800d73d   Thumb Code    72  adc_controller.o(i._ZN14adc_controller4readE14select_channel)
    adc_controller::read()                   0x0800d785   Thumb Code    76  adc_controller.o(i._ZN14adc_controller4readEv)
    adc_controller::adc_controller(CS_reg*)  0x0800d7d5   Thumb Code    42  adc_controller.o(i._ZN14adc_controllerC1EP6CS_reg)
    adc_controller::adc_controller__sub_object(CS_reg*) 0x0800d7d5   Thumb Code     0  adc_controller.o(i._ZN14adc_controllerC1EP6CS_reg)
    adc_controller::~adc_controller()        0x0800d7ff   Thumb Code     2  adc_controller.o(i._ZN14adc_controllerD1Ev)
    adc_controller::~adc_controller__sub_object() 0x0800d7ff   Thumb Code     0  adc_controller.o(i._ZN14adc_controllerD1Ev)
    main_controller::idle_state()            0x0800d801   Thumb Code   222  main_controller.o(i._ZN15main_controller10idle_stateEv)
    main_controller::init_state()            0x0800d8ed   Thumb Code   634  main_controller.o(i._ZN15main_controller10init_stateEv)
    main_controller::active_state()          0x0800dc29   Thumb Code   386  main_controller.o(i._ZN15main_controller12active_stateEv)
    main_controller::update_debug()          0x0800ddb5   Thumb Code    72  main_controller.o(i._ZN15main_controller12update_debugEv)
    main_controller::update_state()          0x0800ddfd   Thumb Code   134  main_controller.o(i._ZN15main_controller12update_stateEv)
    main_controller::added_counter()         0x0800de85   Thumb Code   236  main_controller.o(i._ZN15main_controller13added_counterEv)
    main_controller::is_b_am_valid()         0x0800dfb1   Thumb Code    14  main_controller.o(i._ZN15main_controller13is_b_am_validEv)
    main_controller::get_apt_pulses()        0x0800dfc1   Thumb Code    40  main_controller.o(i._ZN15main_controller14get_apt_pulsesEv)
    main_controller::init_PF_struct(PF_memory*) 0x0800dfed   Thumb Code    50  main_controller.o(i._ZN15main_controller14init_PF_structEP9PF_memory)
    main_controller::is_b_apt_valid()        0x0800e01f   Thumb Code    12  main_controller.o(i._ZN15main_controller14is_b_apt_validEv)
    main_controller::is_b_mcu_valid()        0x0800e02b   Thumb Code    12  main_controller.o(i._ZN15main_controller14is_b_mcu_validEv)
    main_controller::read_interlock()        0x0800e039   Thumb Code    26  main.o(i._ZN15main_controller14read_interlockEv)
    main_controller::fire_is_pressed()       0x0800e05d   Thumb Code   116  main_controller.o(i._ZN15main_controller15fire_is_pressedEv)
    main_controller::get_un32_cursor()       0x0800e0dd   Thumb Code    12  main_controller.o(i._ZN15main_controller15get_un32_cursorEv)
    main_controller::get_un32_pulses()       0x0800e0e9   Thumb Code    14  main_controller.o(i._ZN15main_controller15get_un32_pulsesEv)
    main_controller::is_b_pressure_ok()      0x0800e0f7   Thumb Code    48  main_controller.o(i._ZN15main_controller16is_b_pressure_okEv)
    main_controller::get_current_state()     0x0800e127   Thumb Code    80  main_controller.o(i._ZN15main_controller17get_current_stateEv)
    main_controller::init_before_while()     0x0800e177   Thumb Code    44  main_controller.o(i._ZN15main_controller17init_before_whileEv)
    main_controller::generate_error_code()   0x0800e1a3   Thumb Code    36  main_controller.o(i._ZN15main_controller19generate_error_codeEv)
    main_controller::is_b_is_interlocked()   0x0800e1c9   Thumb Code    98  main_controller.o(i._ZN15main_controller19is_b_is_interlockedEv)
    main_controller::set_b_motor_running(bool) 0x0800e239   Thumb Code    20  main_controller.o(i._ZN15main_controller19set_b_motor_runningEb)
    main_controller::update_opto_counter()   0x0800e24d   Thumb Code    52  main_controller.o(i._ZN15main_controller19update_opto_counterEv)
    main_controller::need_to_stall_static()  0x0800e285   Thumb Code   160  main_controller.o(i._ZN15main_controller20need_to_stall_staticEv)
    main_controller::need_to_stall_dynamic() 0x0800e32d   Thumb Code   604  main_controller.o(i._ZN15main_controller21need_to_stall_dynamicEv)
    main_controller::write_out_pulses_on_stop_motor() 0x0800e5c5   Thumb Code   362  main_controller.o(i._ZN15main_controller30write_out_pulses_on_stop_motorEv)
    main_controller::get_all()               0x0800e7cd   Thumb Code    70  main_controller.o(i._ZN15main_controller7get_allEv)
    main_controller::qa_state()              0x0800e815   Thumb Code   234  main_controller.o(i._ZN15main_controller8qa_stateEv)
    main_controller::main_controller(DebugHelper*, Mem_ctrl*, PeripherialDevices*, State*, Screen_ctrl*, adc_controller*) 0x0800e905   Thumb Code   114  main_controller.o(i._ZN15main_controllerC1EP11DebugHelperP8Mem_ctrlP18PeripherialDevicesP5StateP11Screen_ctrlP14adc_controller)
    main_controller::main_controller__sub_object(DebugHelper*, Mem_ctrl*, PeripherialDevices*, State*, Screen_ctrl*, adc_controller*) 0x0800e905   Thumb Code     0  main_controller.o(i._ZN15main_controllerC1EP11DebugHelperP8Mem_ctrlP18PeripherialDevicesP5StateP11Screen_ctrlP14adc_controller)
    main_controller::~main_controller()      0x0800e977   Thumb Code     2  main_controller.o(i._ZN15main_controllerD1Ev)
    main_controller::~main_controller__sub_object() 0x0800e977   Thumb Code     0  main_controller.o(i._ZN15main_controllerD1Ev)
    PeripherialDevices::stop_motor()         0x0800e979   Thumb Code    24  peripherial_controller.o(i._ZN18PeripherialDevices10stop_motorEv)
    PeripherialDevices::start_motor()        0x0800e995   Thumb Code    28  peripherial_controller.o(i._ZN18PeripherialDevices11start_motorEv)
    PeripherialDevices::read_counter()       0x0800e9b5   Thumb Code    18  peripherial_controller.o(i._ZN18PeripherialDevices12read_counterEv)
    PeripherialDevices::toggle_motor()       0x0800e9c7   Thumb Code    26  peripherial_controller.o(i._ZN18PeripherialDevices12toggle_motorEv)
    PeripherialDevices::clear_counter()      0x0800e9e1   Thumb Code    12  peripherial_controller.o(i._ZN18PeripherialDevices13clear_counterEv)
    PeripherialDevices::reverse_motor()      0x0800e9ed   Thumb Code    10  peripherial_controller.o(i._ZN18PeripherialDevices13reverse_motorEv)
    PeripherialDevices::start_motor_pwm()    0x0800e9f9   Thumb Code    80  peripherial_controller.o(i._ZN18PeripherialDevices15start_motor_pwmEv)
    PeripherialDevices::read()               0x0800ea51   Thumb Code    28  peripherial_controller.o(i._ZN18PeripherialDevices4readEv)
    PeripherialDevices::star_wars()          0x0800ea6d   Thumb Code   188  peripherial_controller.o(i._ZN18PeripherialDevices9star_warsEv)
    PeripherialDevices::PeripherialDevices(CS_reg*, STATUS_reg*) 0x0800eb2d   Thumb Code    10  peripherial_controller.o(i._ZN18PeripherialDevicesC1EP6CS_regP10STATUS_reg)
    PeripherialDevices::PeripherialDevices__sub_object(CS_reg*, STATUS_reg*) 0x0800eb2d   Thumb Code     0  peripherial_controller.o(i._ZN18PeripherialDevicesC1EP6CS_regP10STATUS_reg)
    PeripherialDevices::~PeripherialDevices() 0x0800eb37   Thumb Code     2  peripherial_controller.o(i._ZN18PeripherialDevicesD1Ev)
    PeripherialDevices::~PeripherialDevices__sub_object() 0x0800eb37   Thumb Code     0  peripherial_controller.o(i._ZN18PeripherialDevicesD1Ev)
    State::read_interlock()                  0x0800eb39   Thumb Code    96  state.o(i._ZN5State14read_interlockEv)
    State::init_first_step()                 0x0800eba1   Thumb Code   210  state.o(i._ZN5State15init_first_stepEv)
    State::State()                           0x0800ec85   Thumb Code    10  state.o(i._ZN5StateC1Ev)
    State::State__sub_object()               0x0800ec85   Thumb Code     0  state.o(i._ZN5StateC1Ev)
    State::~State()                          0x0800ec8f   Thumb Code     2  state.o(i._ZN5StateD1Ev)
    State::~State__sub_object()              0x0800ec8f   Thumb Code     0  state.o(i._ZN5StateD1Ev)
    CS_reg::cs_generic(GPIO_PinState, cs_decoder) 0x0800ec91   Thumb Code   158  cs_register.o(i._ZN6CS_reg10cs_genericE13GPIO_PinState10cs_decoder)
    CS_reg::store_register()                 0x0800ed3d   Thumb Code    20  cs_register.o(i._ZN6CS_reg14store_registerEv)
    CS_reg::motor_cmd_tight(bool)            0x0800ed55   Thumb Code   160  cs_register.o(i._ZN6CS_reg15motor_cmd_tightEb)
    CS_reg::motor_cmd_reverse()              0x0800edfd   Thumb Code    64  cs_register.o(i._ZN6CS_reg17motor_cmd_reverseEv)
    CS_reg::pull_chipselet_line(GPIO_PinState) 0x0800ee41   Thumb Code    16  cs_register.o(i._ZN6CS_reg19pull_chipselet_lineE13GPIO_PinState)
    CS_reg::read_back_current_cs()           0x0800ee51   Thumb Code   100  cs_register.o(i._ZN6CS_reg20read_back_current_csEv)
    CS_reg::cs_clear_opto_counter(GPIO_PinState) 0x0800eefd   Thumb Code    22  cs_register.o(i._ZN6CS_reg21cs_clear_opto_counterE13GPIO_PinState)
    CS_reg::cs1(GPIO_PinState)               0x0800ef15   Thumb Code   148  cs_register.o(i._ZN6CS_reg3cs1E13GPIO_PinState)
    CS_reg::cs2(GPIO_PinState)               0x0800efb1   Thumb Code    22  cs_register.o(i._ZN6CS_reg3cs2E13GPIO_PinState)
    CS_reg::cs3(GPIO_PinState)               0x0800efc7   Thumb Code    22  cs_register.o(i._ZN6CS_reg3cs3E13GPIO_PinState)
    CS_reg::cs_a2d(GPIO_PinState)            0x0800efdd   Thumb Code    46  cs_register.o(i._ZN6CS_reg6cs_a2dE13GPIO_PinState)
    CS_reg::cs_status(GPIO_PinState)         0x0800f011   Thumb Code    22  cs_register.o(i._ZN6CS_reg9cs_statusE13GPIO_PinState)
    CS_reg::set_value(unsigned char)         0x0800f029   Thumb Code    58  cs_register.o(i._ZN6CS_reg9set_valueEh)
    CS_reg::CS_reg()                         0x0800f069   Thumb Code    24  cs_register.o(i._ZN6CS_regC1Ev)
    CS_reg::CS_reg__sub_object()             0x0800f069   Thumb Code     0  cs_register.o(i._ZN6CS_regC1Ev)
    CS_reg::~CS_reg()                        0x0800f081   Thumb Code     2  cs_register.o(i._ZN6CS_regD1Ev)
    CS_reg::~CS_reg__sub_object()            0x0800f081   Thumb Code     0  cs_register.o(i._ZN6CS_regD1Ev)
    Memory::print_status()                   0x0800f085   Thumb Code   124  mem.o(i._ZN6Memory12print_statusEv)
    Memory::write_enable()                   0x0800f109   Thumb Code    20  mem.o(i._ZN6Memory12write_enableEv)
    Memory::write_disable()                  0x0800f121   Thumb Code    20  mem.o(i._ZN6Memory13write_disableEv)
    Memory::read_status_register1()          0x0800f139   Thumb Code    36  mem.o(i._ZN6Memory21read_status_register1Ev)
    Memory::read_status_register2()          0x0800f161   Thumb Code    36  mem.o(i._ZN6Memory21read_status_register2Ev)
    Memory::write_status_register(unsigned short) 0x0800f189   Thumb Code    28  mem.o(i._ZN6Memory21write_status_registerEt)
    Memory::read(unsigned)                   0x0800f1a9   Thumb Code    68  mem.o(i._ZN6Memory4readEj)
    Memory::erase(unsigned)                  0x0800f1f1   Thumb Code    46  mem.o(i._ZN6Memory5eraseEj)
    Memory::erase()                          0x0800f225   Thumb Code    20  mem.o(i._ZN6Memory5eraseEv)
    Memory::write(unsigned, unsigned)        0x0800f23d   Thumb Code    76  mem.o(i._ZN6Memory5writeEjj)
    Memory::get_id()                         0x0800f28d   Thumb Code    34  mem.o(i._ZN6Memory6get_idEv)
    Memory::read16(unsigned)                 0x0800f2b5   Thumb Code   182  mem.o(i._ZN6Memory6read16Ej)
    Memory::check_id()                       0x0800f3f1   Thumb Code    32  mem.o(i._ZN6Memory8check_idEv)
    Memory::Memory(unsigned char)            0x0800f411   Thumb Code    64  mem.o(i._ZN6MemoryC1Eh)
    Memory::Memory__sub_object(unsigned char) 0x0800f411   Thumb Code     0  mem.o(i._ZN6MemoryC1Eh)
    Memory::~Memory()                        0x0800f45d   Thumb Code     2  mem.o(i._ZN6MemoryD1Ev)
    Memory::~Memory__sub_object()            0x0800f45d   Thumb Code     0  mem.o(i._ZN6MemoryD1Ev)
    monitor::rx_pattern()                    0x0800f461   Thumb Code    80  monitor.o(i._ZN7monitor10rx_patternEv)
    monitor::rx_set_date()                   0x0800f4dd   Thumb Code    62  monitor.o(i._ZN7monitor11rx_set_dateEv)
    monitor::rx_set_maxi()                   0x0800f525   Thumb Code    62  monitor.o(i._ZN7monitor11rx_set_maxiEv)
    monitor::rx_go_active()                  0x0800f56d   Thumb Code    38  monitor.o(i._ZN7monitor12rx_go_activeEv)
    monitor::rx_read_back()                  0x0800f593   Thumb Code    12  monitor.o(i._ZN7monitor12rx_read_backEv)
    monitor::rx_test_read()                  0x0800f5a1   Thumb Code   180  monitor.o(i._ZN7monitor12rx_test_readEv)
    monitor::rx_get_man_id()                 0x0800f67d   Thumb Code    26  monitor.o(i._ZN7monitor13rx_get_man_idEv)
    monitor::rx_set_serial()                 0x0800f699   Thumb Code    96  monitor.o(i._ZN7monitor13rx_set_serialEv)
    monitor::rx_stop_motor()                 0x0800f701   Thumb Code    36  monitor.o(i._ZN7monitor13rx_stop_motorEv)
    monitor::rx_find_pulses()                0x0800f729   Thumb Code    62  monitor.o(i._ZN7monitor14rx_find_pulsesEv)
    monitor::rx_start_motor()                0x0800f78d   Thumb Code    36  monitor.o(i._ZN7monitor14rx_start_motorEv)
    monitor::rx_status_read()                0x0800f7b5   Thumb Code    26  monitor.o(i._ZN7monitor14rx_status_readEv)
    monitor::serial_consume()                0x0800f7d1   Thumb Code   346  monitor.o(i._ZN7monitor14serial_consumeEv)
    monitor::rx_status_write()               0x0800f945   Thumb Code    42  monitor.o(i._ZN7monitor15rx_status_writeEv)
    monitor::parse_input_uart()              0x0800f971   Thumb Code  1532  monitor.o(i._ZN7monitor16parse_input_uartEv)
    monitor::rx_reverse_motor()              0x0800ff99   Thumb Code    12  monitor.o(i._ZN7monitor16rx_reverse_motorEv)
    monitor::rx_status_reg_read()            0x0800ffa5   Thumb Code    24  monitor.o(i._ZN7monitor18rx_status_reg_readEv)
    monitor::rx_get_man_id_check()           0x0800ffbd   Thumb Code   116  monitor.o(i._ZN7monitor19rx_get_man_id_checkEv)
    monitor::rx_adc()                        0x0801005d   Thumb Code    86  monitor.o(i._ZN7monitor6rx_adcEv)
    monitor::rx_exit()                       0x080100b5   Thumb Code    18  monitor.o(i._ZN7monitor7rx_exitEv)
    monitor::rx_nuke()                       0x080100d1   Thumb Code    26  monitor.o(i._ZN7monitor7rx_nukeEv)
    monitor::rx_pass()                       0x080100eb   Thumb Code    24  monitor.o(i._ZN7monitor7rx_passEv)
    monitor::rx_read()                       0x08010105   Thumb Code    64  monitor.o(i._ZN7monitor7rx_readEv)
    monitor::rx_scan(unsigned char, unsigned) 0x0801016d   Thumb Code    12  monitor.o(i._ZN7monitor7rx_scanEhj)
    monitor::rx_scan()                       0x08010179   Thumb Code    64  monitor.o(i._ZN7monitor7rx_scanEv)
    monitor::rx_blink()                      0x080101c5   Thumb Code    96  monitor.o(i._ZN7monitor8rx_blinkEv)
    monitor::rx_debug()                      0x08010265   Thumb Code    20  monitor.o(i._ZN7monitor8rx_debugEv)
    monitor::rx_erase()                      0x08010279   Thumb Code    66  monitor.o(i._ZN7monitor8rx_eraseEv)
    monitor::rx_write()                      0x080102d9   Thumb Code   116  monitor.o(i._ZN7monitor8rx_writeEv)
    monitor::monitor(main_controller*)       0x08010399   Thumb Code    46  monitor.o(i._ZN7monitorC1EP15main_controller)
    monitor::monitor__sub_object(main_controller*) 0x08010399   Thumb Code     0  monitor.o(i._ZN7monitorC1EP15main_controller)
    monitor::~monitor()                      0x080103cd   Thumb Code     2  monitor.o(i._ZN7monitorD1Ev)
    monitor::~monitor__sub_object()          0x080103cd   Thumb Code     0  monitor.o(i._ZN7monitorD1Ev)
    Mem_ctrl::get_serial(unsigned char)      0x080103d1   Thumb Code    52  mem_controller.o(i._ZN8Mem_ctrl10get_serialEh)
    Mem_ctrl::get_serial()                   0x0801041d   Thumb Code    20  mem_controller.o(i._ZN8Mem_ctrl10get_serialEv)
    Mem_ctrl::write_once(unsigned char, unsigned, unsigned) 0x08010431   Thumb Code   264  mem_controller.o(i._ZN8Mem_ctrl10write_onceEhjj)
    Mem_ctrl::get_ap_offset()                0x080105f5   Thumb Code   222  mem_controller.o(i._ZN8Mem_ctrl13get_ap_offsetEv)
    Mem_ctrl::poll_complete(unsigned char, unsigned) 0x08010705   Thumb Code   130  mem_controller.o(i._ZN8Mem_ctrl13poll_completeEhj)
    Mem_ctrl::print_register(unsigned char)  0x080107c5   Thumb Code    68  mem_controller.o(i._ZN8Mem_ctrl14print_registerEh)
    Mem_ctrl::write_register(unsigned char, unsigned short) 0x08010809   Thumb Code    66  mem_controller.o(i._ZN8Mem_ctrl14write_registerEht)
    Mem_ctrl::binary_and_patch()             0x0801084d   Thumb Code   608  mem_controller.o(i._ZN8Mem_ctrl16binary_and_patchEv)
    Mem_ctrl::chip_select_pull(unsigned char, GPIO_PinState) 0x08010b55   Thumb Code    56  mem_controller.o(i._ZN8Mem_ctrl16chip_select_pullEh13GPIO_PinState)
    Mem_ctrl::check_connections(unsigned char) 0x08010b8d   Thumb Code    32  mem_controller.o(i._ZN8Mem_ctrl17check_connectionsEh)
    Mem_ctrl::check_connections()            0x08010bad   Thumb Code    40  mem_controller.o(i._ZN8Mem_ctrl17check_connectionsEv)
    Mem_ctrl::read_skip_problems(unsigned char, unsigned) 0x08010bd9   Thumb Code    62  mem_controller.o(i._ZN8Mem_ctrl18read_skip_problemsEhj)
    Mem_ctrl::read_back_current_cs()         0x08010c17   Thumb Code    10  mem_controller.o(i._ZN8Mem_ctrl20read_back_current_csEv)
    Mem_ctrl::check_connections_with_printback(unsigned char) 0x08010c21   Thumb Code    60  mem_controller.o(i._ZN8Mem_ctrl32check_connections_with_printbackEh)
    Mem_ctrl::read(unsigned char, unsigned)  0x08010c85   Thumb Code     8  mem_controller.o(i._ZN8Mem_ctrl4readEhj)
    Mem_ctrl::erase(unsigned char)           0x08010c8d   Thumb Code    62  mem_controller.o(i._ZN8Mem_ctrl5eraseEh)
    Mem_ctrl::erase(unsigned char, unsigned) 0x08010ccb   Thumb Code    66  mem_controller.o(i._ZN8Mem_ctrl5eraseEhj)
    Mem_ctrl::write(unsigned char, unsigned, unsigned) 0x08010d0d   Thumb Code    38  mem_controller.o(i._ZN8Mem_ctrl5writeEhjj)
    Mem_ctrl::get_max(unsigned char)         0x08010d35   Thumb Code    36  mem_controller.o(i._ZN8Mem_ctrl7get_maxEh)
    Mem_ctrl::get_max()                      0x08010d5d   Thumb Code    16  mem_controller.o(i._ZN8Mem_ctrl7get_maxEv)
    Mem_ctrl::read256(unsigned char, unsigned) 0x08010d6d   Thumb Code    52  mem_controller.o(i._ZN8Mem_ctrl7read256Ehj)
    Mem_ctrl::get_date(unsigned char)        0x08010da1   Thumb Code    36  mem_controller.o(i._ZN8Mem_ctrl8get_dateEh)
    Mem_ctrl::get_date()                     0x08010dc9   Thumb Code    16  mem_controller.o(i._ZN8Mem_ctrl8get_dateEv)
    Mem_ctrl::LOG_DEBUG(unsigned, unsigned, unsigned, unsigned) 0x08010dd9   Thumb Code    12  mem_controller.o(i._ZN8Mem_ctrl9LOG_DEBUGEjjjj)
    Mem_ctrl::LOG_WRITE(stall_log_out)       0x08010de5   Thumb Code   148  mem_controller.o(i._ZN8Mem_ctrl9LOG_WRITEE13stall_log_out)
    Mem_ctrl::read_once(unsigned char, unsigned) 0x08010e7d   Thumb Code    36  mem_controller.o(i._ZN8Mem_ctrl9read_onceEhj)
    Mem_ctrl::Mem_ctrl(Memory*, Memory*, Memory*, CS_reg*) 0x08010ea1   Thumb Code    14  mem_controller.o(i._ZN8Mem_ctrlC1EP6MemoryS1_S1_P6CS_reg)
    Mem_ctrl::Mem_ctrl__sub_object(Memory*, Memory*, Memory*, CS_reg*) 0x08010ea1   Thumb Code     0  mem_controller.o(i._ZN8Mem_ctrlC1EP6MemoryS1_S1_P6CS_reg)
    Mem_ctrl::~Mem_ctrl()                    0x08010eaf   Thumb Code     2  mem_controller.o(i._ZN8Mem_ctrlD1Ev)
    Mem_ctrl::~Mem_ctrl__sub_object()        0x08010eaf   Thumb Code     0  mem_controller.o(i._ZN8Mem_ctrlD1Ev)
    __ARM_common_switch8                     0x08010eb1   Thumb Code    26  main.o(i.__ARM_common_switch8)
    __cxa_guard_acquire                      0x08010ecb   Thumb Code    18  cxa_guard_acquire.o(i.__cxa_guard_acquire)
    _is_digit                                0x08011021   Thumb Code    14  __printf_wp.o(i._is_digit)
    cs3                                      0x0801102f   Thumb Code    12  stm32f0xx_it.o(i.cs3)
    cs_generic                               0x0801103d   Thumb Code    46  stm32f0xx_it.o(i.cs_generic)
    delay                                    0x08011071   Thumb Code    18  common.o(i.delay)
    delay_with_watchdog                      0x08011089   Thumb Code    40  common.o(i.delay_with_watchdog)
    main                                     0x080110b5   Thumb Code   480  main.o(i.main)
    pull_chipselet_line                      0x080112bd   Thumb Code    16  stm32f0xx_it.o(i.pull_chipselet_line)
    read                                     0x080112cd   Thumb Code    68  stm32f0xx_it.o(i.read)
    read_reset_button                        0x08011315   Thumb Code    12  stm32f0xx_it.o(i.read_reset_button)
    read_reset_button_aux                    0x08011325   Thumb Code    22  common.o(i.read_reset_button_aux)
    test_for_reset_press                     0x08011341   Thumb Code    40  stm32f0xx_it.o(i.test_for_reset_press)
    test_for_reset_press_aux                 0x08011371   Thumb Code    40  common.o(i.test_for_reset_press_aux)
    translate_address_to_int                 0x080113a1   Thumb Code    22  common.o(i.translate_address_to_int)
    translate_int_to_address                 0x080113b7   Thumb Code    12  common.o(i.translate_int_to_address)
    translate_int_to_arr                     0x080113c3   Thumb Code    16  common.o(i.translate_int_to_arr)
    write                                    0x080113d5   Thumb Code    76  stm32f0xx_it.o(i.write)
    write_disable                            0x08011425   Thumb Code    20  stm32f0xx_it.o(i.write_disable)
    write_enable                             0x0801143d   Thumb Code    20  stm32f0xx_it.o(i.write_enable)
    write_once                               0x08011455   Thumb Code   178  stm32f0xx_it.o(i.write_once)
    _get_lc_ctype                            0x0801150d   Thumb Code    44  lc_ctype_c.o(locale$$code)
    AHBPrescTable                            0x08011d39   Data          16  system_stm32f0xx.o(.constdata)
    APBPrescTable                            0x08011d49   Data           8  system_stm32f0xx.o(.constdata)
    Region$$Table$$Base                      0x08012028   Number         0  anon$$obj.o(Region$$Table)
    Region$$Table$$Limit                     0x08012048   Number         0  anon$$obj.o(Region$$Table)
    __ctype                                  0x08012055   Data           0  lc_ctype_c.o(locale$$data)
    SHT$$INIT_ARRAY$$Base                    0x08012158   Number         0  main.o(.init_array)
    SHT$$INIT_ARRAY$$Limit                   0x0801215c   Number         0  init_aeabi.o(.init_array)
    VectorTable                              0x20000000   Data         192  main.o(.RAMVectorTable)
    WATCHDOG_IS_ENABLED                      0x200000c0   Data           1  main.o(.data)
